(dp0
(S'AP53'
p1
S'AP53_pseudo595'
p2
S'-'
p3
tp4
(lp5
(I608871
I609530
S'+'
p6
S'ltaS/pseudogene'
p7
tp8
as(S'AP53'
p9
S'AP53_pseudo268'
p10
g3
tp11
(lp12
(I291349
I292850
g6
S'csrS/pseudogene'
p13
tp14
as(S'AP53'
p15
S'AP53_pseudo388'
p16
g3
tp17
(lp18
(I396183
I397677
g6
S'-/pseudogene'
p19
tp20
as(S'AP53'
p21
S'AP53_pseudo603'
p22
g3
tp23
(lp24
(I613251
I613747
g3
S'-/pseudogene'
p25
tp26
as(S'AP53'
p27
S'AP53_pseudo1615'
p28
g3
tp29
(lp30
(I1601291
I1604125
g3
S'salB/pseudogene'
p31
tp32
as(S'AP53'
p33
S'AP53_pseudo1183'
p34
g3
tp35
(lp36
(I1168226
I1168722
g3
S'-/pseudogene'
p37
tp38
as(S'AP53'
p39
S'AP53_pseudo73'
p40
g3
tp41
(lp42
(I86985
I87785
g6
S'-/pseudogene'
p43
tp44
as(S'AP53'
p45
S'AP53_pseudo1695'
p46
g3
tp47
(lp48
(I1690592
I1691758
g3
S'FcR/pseudogene'
p49
tp50
as(S'AP53'
p51
S'AP53_pseudo1337'
p52
g3
tp53
(lp54
(I1316101
I1317267
g3
S'-/pseudogene'
p55
tp56
as(S'AP53'
p57
S'AP53_pseudo1389'
p58
g3
tp59
(lp60
(I1363445
I1364224
g6
S'-/pseudogene'
p61
tp62
as(S'AP53'
p63
S'AP53_pseudo656'
p64
g3
tp65
(lp66
(I649563
I651380
g6
S'ltaS/pseudogene'
p67
tp68
as.