(dp0
S'AP53_1295'
p1
(lp2
(I1273246
I1274691
S'-'
p3
S'CDS'
p4
S'AP53_1295'
p5
tp6
asS'AP53_1294'
p7
(lp8
(I1272335
I1272940
g3
S'CDS'
p9
S'AP53_1294'
p10
tp11
asS'AP53_1297'
p12
(lp13
(I1275708
I1276658
g3
S'CDS'
p14
S'AP53_1297'
p15
tp16
asS'AP53_1296'
p17
(lp18
(I1274772
I1275698
g3
S'CDS'
p19
S'AP53_1296'
p20
tp21
asS'AP53_1291'
p22
(lp23
(I1265701
I1269117
g3
S'CDS'
p24
S'AP53_1291'
p25
tp26
asS'AP53_1290'
p27
(lp28
(I1264685
I1265563
g3
S'CDS'
p29
S'AP53_1290'
p30
tp31
asS'AP53_1293'
p32
(lp33
(I1270621
I1272345
g3
S'CDS'
p34
S'AP53_1293'
p35
tp36
asS'AP53_1292'
p37
(lp38
(I1269137
I1270621
g3
S'CDS'
p39
S'AP53_1292'
p40
tp41
asS'AP53_1299'
p42
(lp43
(I1277875
I1277997
S'+'
p44
S'CDS'
p45
S'AP53_1299'
p46
tp47
asS'AP53_1298'
p48
(lp49
(I1276854
I1277732
g44
S'CDS'
p50
S'AP53_1298'
p51
tp52
asS'AP53_1749'
p53
(lp54
(I1744728
I1745324
g44
S'CDS'
p55
S'AP53_1749'
p56
tp57
asS'AP53_1748'
p58
(lp59
(I1743033
I1744706
g44
S'CDS'
p60
S'AP53_1748'
p61
tp62
asS'AP53_1744'
p63
(lp64
(I1737804
I1739069
g3
S'CDS'
p65
S'AP53_1744'
p66
tp67
asS'AP53_1743'
p68
(lp69
(I1736214
I1737746
g44
S'CDS'
p70
S'AP53_1743'
p71
tp72
asS'AP53_1742'
p73
(lp74
(I1735633
I1736193
g44
S'CDS'
p75
S'AP53_1742'
p76
tp77
asS'AP53_1343'
p78
(lp79
(I1320352
I1320588
g3
S'CDS'
p80
S'AP53_1343'
p81
tp82
asS'AP53_1342'
p83
(lp84
(I1320185
I1320355
g3
S'CDS'
p85
S'AP53_1342'
p86
tp87
asS'AP53_1341'
p88
(lp89
(I1319270
I1319902
g3
S'CDS'
p90
S'AP53_1341'
p91
tp92
asS'AP53_1340'
p93
(lp94
(I1318786
I1319265
g3
S'CDS'
p95
S'AP53_1340'
p96
tp97
asS'AP53_1347'
p98
(lp99
(I1321832
I1322257
g3
S'CDS'
p100
S'AP53_1347'
p101
tp102
asS'AP53_1346'
p103
(lp104
(I1321183
I1321533
g3
S'CDS'
p105
S'AP53_1346'
p106
tp107
asS'AP53_1345'
p108
(lp109
(I1320830
I1321186
g3
S'CDS'
p110
S'AP53_1345'
p111
tp112
asS'AP53_1344'
p113
(lp114
(I1320588
I1320719
g3
S'CDS'
p115
S'AP53_1344'
p116
tp117
asS'AP53_1349'
p118
(lp119
(I1322925
I1323407
g3
S'CDS'
p120
S'AP53_1349'
p121
tp122
asS'AP53_1348'
p123
(lp124
(I1322250
I1322924
g3
S'CDS'
p125
S'AP53_1348'
p126
tp127
asS'AP53_1639'
p128
(lp129
(I1620665
I1622008
g3
S'CDS'
p130
S'AP53_1639'
p131
tp132
asS'AP53_1638'
p133
(lp134
(I1620259
I1620672
g3
S'CDS'
p135
S'AP53_1638'
p136
tp137
asS'AP53_1637'
p138
(lp139
(I1619266
I1620063
g3
S'CDS'
p140
S'AP53_1637'
p141
tp142
asS'AP53_1636'
p143
(lp144
(I1618473
I1619219
g3
S'CDS'
p145
S'AP53_1636'
p146
tp147
asS'AP53_1635'
p148
(lp149
(I1617951
I1618433
g3
S'CDS'
p150
S'AP53_1635'
p151
tp152
asS'AP53_1634'
p153
(lp154
(I1616994
I1617854
g3
S'CDS'
p155
S'AP53_1634'
p156
tp157
asS'AP53_1633'
p158
(lp159
(I1616352
I1616858
g3
S'CDS'
p160
S'AP53_1633'
p161
tp162
asS'AP53_1632'
p163
(lp164
(I1616149
I1616355
g3
S'CDS'
p165
S'AP53_1632'
p166
tp167
asS'AP53_1631'
p168
(lp169
(I1615485
I1615931
g3
S'CDS'
p170
S'AP53_1631'
p171
tp172
asS'AP53_1630'
p173
(lp174
(I1615072
I1615464
g3
S'CDS'
p175
S'AP53_1630'
p176
tp177
asS'AP53_1129'
p178
(lp179
(I1114829
I1116562
g3
S'CDS'
p180
S'AP53_1129'
p181
tp182
asS'AP53_1128'
p183
(lp184
(I1113217
I1114644
g3
S'CDS'
p185
S'AP53_1128'
p186
tp187
asS'AP53_1123'
p188
(lp189
(I1108724
I1109533
g44
S'CDS'
p190
S'AP53_1123'
p191
tp192
asS'AP53_1122'
p193
(lp194
(I1108082
I1108579
g3
S'CDS'
p195
S'AP53_1122'
p196
tp197
asS'AP53_1121'
p198
(lp199
(I1106412
I1108082
g3
S'CDS'
p200
S'AP53_1121'
p201
tp202
asS'AP53_1120'
p203
(lp204
(I1106113
I1106316
g3
S'CDS'
p205
S'AP53_1120'
p206
tp207
asS'AP53_1127'
p208
(lp209
(I1111848
I1113122
g3
S'CDS'
p210
S'AP53_1127'
p211
tp212
asS'AP53_1126'
p213
(lp214
(I1110653
I1111738
g44
S'CDS'
p215
S'AP53_1126'
p216
tp217
asS'AP53_1125'
p218
(lp219
(I1109929
I1110555
g3
S'CDS'
p220
S'AP53_1125'
p221
tp222
asS'AP53_1124'
p223
(lp224
(I1109586
I1109804
g3
S'CDS'
p225
S'AP53_1124'
p226
tp227
asS'AP53_392'
p228
(lp229
(I400144
I400269
g3
S'CDS'
p230
S'AP53_392'
p231
tp232
asS'AP53_393'
p233
(lp234
(I400346
I401710
g3
S'CDS'
p235
S'AP53_393'
p236
tp237
asS'AP53_390'
p238
(lp239
(I397912
I398661
g44
S'CDS'
p240
S'AP53_390'
p241
tp242
asS'AP53_391'
p243
(lp244
(I398662
I399996
g44
S'CDS'
p245
S'AP53_391'
p246
tp247
asS'AP53_396'
p248
(lp249
(I404402
I404602
g44
S'CDS'
p250
S'AP53_396'
p251
tp252
asS'AP53_397'
p253
(lp254
(I404963
I405091
g44
S'CDS'
p255
S'AP53_397'
p256
tp257
asS'AP53_394'
p258
(lp259
(I401721
I403874
g3
S'CDS'
p260
S'AP53_394'
p261
tp262
asS'AP53_395'
p263
(lp264
(I404162
I404389
g44
S'CDS'
p265
S'AP53_395'
p266
tp267
asS'AP53_398'
p268
(lp269
(I405141
I405422
g44
S'CDS'
p270
S'AP53_398'
p271
tp272
asS'AP53_399'
p273
(lp274
(I406274
I407035
g44
S'CDS'
p275
S'AP53_399'
p276
tp277
asS'AP53_402'
p278
(lp279
(I408178
I408333
g3
S'CDS'
p280
S'AP53_402'
p281
tp282
asS'AP53_403'
p283
(lp284
(I408569
I408682
g3
S'CDS'
p285
S'AP53_403'
p286
tp287
asS'AP53_400'
p288
(lp289
(I407118
I407339
g44
S'CDS'
p290
S'AP53_400'
p291
tp292
asS'AP53_401'
p293
(lp294
(I407384
I407830
g44
S'CDS'
p295
S'AP53_401'
p296
tp297
asS'AP53_154'
p298
(lp299
(I175670
I175906
g44
S'CDS'
p300
S'AP53_154'
p301
tp302
asS'AP53_155'
p303
(lp304
(I176128
I177462
g44
S'CDS'
p305
S'AP53_155'
p306
tp307
asS'AP53_404'
p308
(lp309
(I408871
I409020
g3
S'CDS'
p310
S'AP53_404'
p311
tp312
asS'AP53_405'
p313
(lp314
(I409518
I410384
g44
S'CDS'
p315
S'AP53_405'
p316
tp317
asS'AP53_158'
p318
(lp319
(I178313
I178492
g3
S'CDS'
p320
S'AP53_158'
p321
tp322
asS'AP53_159'
p323
(lp324
(I178568
I179137
g3
S'CDS'
p325
S'AP53_159'
p326
tp327
asS'AP53_408'
p328
(lp329
(I412163
I413665
g44
S'CDS'
p330
S'AP53_408'
p331
tp332
asS'AP53_409'
p333
(lp334
(I413787
I414980
g44
S'CDS'
p335
S'AP53_409'
p336
tp337
asS'AP53_987'
p338
(lp339
(I989470
I990306
g3
S'CDS'
p340
S'AP53_987'
p341
tp342
asS'AP53_234'
p343
(lp344
(I250867
I251346
g44
S'CDS'
p345
S'AP53_234'
p346
tp347
asS'AP53_237'
p348
(lp349
(I254258
I255490
g3
S'CDS'
p350
S'AP53_237'
p351
tp352
asS'AP53_1512'
p353
(lp354
(I1484614
I1486629
g3
S'CDS'
p355
S'AP53_1512'
p356
tp357
asS'AP53_236'
p358
(lp359
(I252909
I254090
g3
S'CDS'
p360
S'AP53_236'
p361
tp362
asS'AP53_1513'
p363
(lp364
(I1487004
I1488398
g3
S'CDS'
p365
S'AP53_1513'
p366
tp367
asS'AP53_983'
p368
(lp369
(I982432
I984750
g3
S'CDS'
p370
S'AP53_983'
p371
tp372
asS'AP53_1510'
p373
(lp374
(I1482703
I1483407
g3
S'CDS'
p375
S'AP53_1510'
p376
tp377
asS'AP53_230'
p378
(lp379
(I247344
I247469
g44
S'CDS'
p380
S'AP53_230'
p381
tp382
asS'AP53_1511'
p383
(lp384
(I1483420
I1484322
g3
S'CDS'
p385
S'AP53_1511'
p386
tp387
asS'AP53_233'
p388
(lp389
(I249654
I250880
g44
S'CDS'
p390
S'AP53_233'
p391
tp392
asS'AP53_1516'
p393
(lp394
(I1489662
I1491332
g3
S'CDS'
p395
S'AP53_1516'
p396
tp397
asS'AP53_232'
p398
(lp399
(I248361
I249623
g44
S'CDS'
p400
S'AP53_232'
p401
tp402
asS'AP53_1517'
p403
(lp404
(I1491325
I1493043
g3
S'CDS'
p405
S'AP53_1517'
p406
tp407
asS'AP53_334'
p408
(lp409
(I351811
I352299
g44
S'CDS'
p410
S'AP53_334'
p411
tp412
asS'AP53_1514'
p413
(lp414
(I1488395
I1489075
g3
S'CDS'
p415
S'AP53_1514'
p416
tp417
asS'AP53_335'
p418
(lp419
(I352266
I354446
g44
S'CDS'
p420
S'AP53_335'
p421
tp422
asS'AP53_1455'
p423
(lp424
(I1431532
I1431834
g3
S'CDS'
p425
S'AP53_1455'
p426
tp427
asS'AP53_1515'
p428
(lp429
(I1489072
I1489665
g3
S'CDS'
p430
S'AP53_1515'
p431
tp432
asS'AP53_624'
p433
(lp434
(I633216
I633365
g3
S'CDS'
p435
S'AP53_624'
p436
tp437
asS'AP53_716'
p438
(lp439
(I709972
I710352
g44
S'CDS'
p440
S'AP53_716'
p441
tp442
asS'AP53_717'
p443
(lp444
(I710352
I711200
g44
S'CDS'
p445
S'AP53_717'
p446
tp447
asS'AP53_714'
p448
(lp449
(I709221
I709340
g44
S'CDS'
p450
S'AP53_714'
p451
tp452
asS'AP53_715'
p453
(lp454
(I709568
I709744
g44
S'CDS'
p455
S'AP53_715'
p456
tp457
asS'AP53_712'
p458
(lp459
(I707561
I707680
g3
S'CDS'
p460
S'AP53_712'
p461
tp462
asS'AP53_713'
p463
(lp464
(I708040
I709065
g3
S'CDS'
p465
S'AP53_713'
p466
tp467
asS'AP53_710'
p468
(lp469
(I706376
I707083
g44
S'CDS'
p470
S'AP53_710'
p471
tp472
asS'AP53_711'
p473
(lp474
(I707239
I707358
g3
S'CDS'
p475
S'AP53_711'
p476
tp477
asS'AP53_622'
p478
(lp479
(I631015
I632745
g3
S'CDS'
p480
S'AP53_622'
p481
tp482
asS'AP53_718'
p483
(lp484
(I711325
I712533
g44
S'CDS'
p485
S'AP53_718'
p486
tp487
asS'AP53_719'
p488
(lp489
(I712530
I714407
g44
S'CDS'
p490
S'AP53_719'
p491
tp492
asS'AP53_1519'
p493
(lp494
(I1493918
I1494940
g3
S'CDS'
p495
S'AP53_1519'
p496
tp497
asS'AP53_332'
p498
(lp499
(I350540
I350698
g3
S'CDS'
p500
S'AP53_332'
p501
tp502
asS'AP53_978'
p503
(lp504
(I980181
I980381
g3
S'CDS'
p505
S'AP53_978'
p506
tp507
asS'AP53_979'
p508
(lp509
(I980422
I980961
g3
S'CDS'
p510
S'AP53_979'
p511
tp512
asS'AP53_976'
p513
(lp514
(I978878
I979519
g3
S'CDS'
p515
S'AP53_976'
p516
tp517
asS'AP53_977'
p518
(lp519
(I979682
I980170
g3
S'CDS'
p520
S'AP53_977'
p521
tp522
asS'AP53_974'
p523
(lp524
(I977374
I978075
g3
S'CDS'
p525
S'AP53_974'
p526
tp527
asS'AP53_975'
p528
(lp529
(I978193
I978735
g44
S'CDS'
p530
S'AP53_975'
p531
tp532
asS'AP53_972'
p533
(lp534
(I974035
I974631
g3
S'CDS'
p535
S'AP53_972'
p536
tp537
asS'AP53_973'
p538
(lp539
(I974723
I977359
g3
S'CDS'
p540
S'AP53_973'
p541
tp542
asS'AP53_970'
p543
(lp544
(I971622
I972962
g3
S'CDS'
p545
S'AP53_970'
p546
tp547
asS'AP53_971'
p548
(lp549
(I973068
I974024
g3
S'CDS'
p550
S'AP53_971'
p551
tp552
asS'AP53_578'
p553
(lp554
(I586816
I587484
g44
S'CDS'
p555
S'AP53_578'
p556
tp557
asS'AP53_579'
p558
(lp559
(I587586
I588512
g3
S'CDS'
p560
S'AP53_579'
p561
tp562
asS'AP53_572'
p563
(lp564
(I580549
I580848
g44
S'CDS'
p565
S'AP53_572'
p566
tp567
asS'AP53_573'
p568
(lp569
(I581131
I582174
g44
S'CDS'
p570
S'AP53_573'
p571
tp572
asS'AP53_570'
p573
(lp574
(I580200
I580562
g44
S'CDS'
p575
S'AP53_570'
p576
tp577
asS'AP53_571'
p578
(lp579
(I580097
I580216
g3
S'CDS'
p580
S'AP53_571'
p581
tp582
asS'AP53_576'
p583
(lp584
(I585271
I585657
g44
S'CDS'
p585
S'AP53_576'
p586
tp587
asS'AP53_577'
p588
(lp589
(I585730
I586806
g44
S'CDS'
p590
S'AP53_577'
p591
tp592
asS'AP53_574'
p593
(lp594
(I582384
I584789
g44
S'CDS'
p595
S'AP53_574'
p596
tp597
asS'AP53_575'
p598
(lp599
(I584901
I585278
g44
S'CDS'
p600
S'AP53_575'
p601
tp602
asS'AP53_378'
p603
(lp604
(I392044
I392280
g3
S'CDS'
p605
S'AP53_378'
p606
tp607
asS'AP53_379'
p608
(lp609
(I392578
I392802
g44
S'CDS'
p610
S'AP53_379'
p611
tp612
asS'AP53_370'
p613
(lp614
(I386268
I386843
g44
S'CDS'
p615
S'AP53_370'
p616
tp617
asS'AP53_371'
p618
(lp619
(I387002
I387499
g44
S'CDS'
p620
S'AP53_371'
p621
tp622
asS'AP53_372'
p623
(lp624
(I387480
I387887
g44
S'CDS'
p625
S'AP53_372'
p626
tp627
asS'AP53_373'
p628
(lp629
(I388007
I388903
g44
S'CDS'
p630
S'AP53_373'
p631
tp632
asS'AP53_374'
p633
(lp634
(I388923
I389399
g44
S'CDS'
p635
S'AP53_374'
p636
tp637
asS'AP53_375'
p638
(lp639
(I389704
I389883
g3
S'CDS'
p640
S'AP53_375'
p641
tp642
asS'AP53_376'
p643
(lp644
(I390560
I391006
g3
S'CDS'
p645
S'AP53_376'
p646
tp647
asS'AP53_377'
p648
(lp649
(I391229
I391939
g3
S'CDS'
p650
S'AP53_377'
p651
tp652
asS'AP53_1286'
p653
(lp654
(I1261488
I1262561
g44
S'CDS'
p655
S'AP53_1286'
p656
tp657
asS'AP53_1287'
p658
(lp659
(I1262997
I1263302
g3
S'CDS'
p660
S'AP53_1287'
p661
tp662
asS'AP53_1284'
p663
(lp664
(I1259947
I1260201
g3
S'CDS'
p665
S'AP53_1284'
p666
tp667
asS'AP53_445'
p668
(lp669
(I452559
I453548
g44
S'CDS'
p670
S'AP53_445'
p671
tp672
asS'AP53_1282'
p673
(lp674
(I1259275
I1259508
g44
S'CDS'
p675
S'AP53_1282'
p676
tp677
asS'AP53_1283'
p678
(lp679
(I1259531
I1259926
g3
S'CDS'
p680
S'AP53_1283'
p681
tp682
asS'AP53_1280'
p683
(lp684
(I1255708
I1258356
g3
S'CDS'
p685
S'AP53_1280'
p686
tp687
asS'AP53_1281'
p688
(lp689
(I1258358
I1258921
g3
S'CDS'
p690
S'AP53_1281'
p691
tp692
asS'AP53_1746'
p693
(lp694
(I1741479
I1742378
g44
S'CDS'
p695
S'AP53_1746'
p696
tp697
asS'AP53_1288'
p698
(lp699
(I1263304
I1263642
g3
S'CDS'
p700
S'AP53_1288'
p701
tp702
asS'AP53_1289'
p703
(lp704
(I1263695
I1264450
g3
S'CDS'
p705
S'AP53_1289'
p706
tp707
asS'AP53_1354'
p708
(lp709
(I1324927
I1325688
g3
S'CDS'
p710
S'AP53_1354'
p711
tp712
asS'AP53_1355'
p713
(lp714
(I1325782
I1325919
g3
S'CDS'
p715
S'AP53_1355'
p716
tp717
asS'AP53_1356'
p718
(lp719
(I1325950
I1326201
g3
S'CDS'
p720
S'AP53_1356'
p721
tp722
asS'AP53_1357'
p723
(lp724
(I1326272
I1326457
g3
S'CDS'
p725
S'AP53_1357'
p726
tp727
asS'AP53_1350'
p728
(lp729
(I1323429
I1323683
g3
S'CDS'
p730
S'AP53_1350'
p731
tp732
asS'AP53_1351'
p733
(lp734
(I1323664
I1323954
g3
S'CDS'
p735
S'AP53_1351'
p736
tp737
asS'AP53_1352'
p738
(lp739
(I1324030
I1324167
g3
S'CDS'
p740
S'AP53_1352'
p741
tp742
asS'AP53_1353'
p743
(lp744
(I1324158
I1324940
g3
S'CDS'
p745
S'AP53_1353'
p746
tp747
asS'AP53_1358'
p748
(lp749
(I1326624
I1326863
g44
S'CDS'
p750
S'AP53_1358'
p751
tp752
asS'AP53_1359'
p753
(lp754
(I1326961
I1327680
g3
S'CDS'
p755
S'AP53_1359'
p756
tp757
asS'AP53_1758'
p758
(lp759
(I1758927
I1760951
g3
S'CDS'
p760
S'AP53_1758'
p761
tp762
asS'AP53_1759'
p763
(lp764
(I1761162
I1761875
g44
S'CDS'
p765
S'AP53_1759'
p766
tp767
asS'AP53_1750'
p768
(lp769
(I1745544
I1746887
g44
S'CDS'
p770
S'AP53_1750'
p771
tp772
asS'AP53_1751'
p773
(lp774
(I1746898
I1748439
g44
S'CDS'
p775
S'AP53_1751'
p776
tp777
asS'AP53_1752'
p778
(lp779
(I1748626
I1749612
g44
S'CDS'
p780
S'AP53_1752'
p781
tp782
asS'AP53_1753'
p783
(lp784
(I1749643
I1752717
g3
S'CDS'
p785
S'AP53_1753'
p786
tp787
asS'AP53_1754'
p788
(lp789
(I1753021
I1753788
g44
S'CDS'
p790
S'AP53_1754'
p791
tp792
asS'AP53_1755'
p793
(lp794
(I1753922
I1754962
g44
S'CDS'
p795
S'AP53_1755'
p796
tp797
asS'AP53_1756'
p798
(lp799
(I1755128
I1757023
g3
S'CDS'
p800
S'AP53_1756'
p801
tp802
asS'AP53_1757'
p803
(lp804
(I1757231
I1758859
g3
S'CDS'
p805
S'AP53_1757'
p806
tp807
asS'AP53_1620'
p808
(lp809
(I1608397
I1609380
g3
S'CDS'
p810
S'AP53_1620'
p811
tp812
asS'AP53_1621'
p813
(lp814
(I1609384
I1610313
g3
S'CDS'
p815
S'AP53_1621'
p816
tp817
asS'AP53_1622'
p818
(lp819
(I1610361
I1610876
g3
S'CDS'
p820
S'AP53_1622'
p821
tp822
asS'AP53_1623'
p823
(lp824
(I1610911
I1611339
g3
S'CDS'
p825
S'AP53_1623'
p826
tp827
asS'AP53_1624'
p828
(lp829
(I1611784
I1612557
g44
S'CDS'
p830
S'AP53_1624'
p831
tp832
asS'AP53_1625'
p833
(lp834
(I1613207
I1613494
g44
S'CDS'
p835
S'AP53_1625'
p836
tp837
asS'AP53_1626'
p838
(lp839
(I1613484
I1613819
g44
S'CDS'
p840
S'AP53_1626'
p841
tp842
asS'AP53_1627'
p843
(lp844
(I1614142
I1614258
g3
S'CDS'
p845
S'AP53_1627'
p846
tp847
asS'AP53_1628'
p848
(lp849
(I1614265
I1614441
g44
S'CDS'
p850
S'AP53_1628'
p851
tp852
asS'AP53_1629'
p853
(lp854
(I1614803
I1614952
g44
S'CDS'
p855
S'AP53_1629'
p856
tp857
asS'AP53_1469'
p858
(lp859
(I1442204
I1443664
g3
S'CDS'
p860
S'AP53_1469'
p861
tp862
asS'AP53_1138'
p863
(lp864
(I1123544
I1124239
g3
S'CDS'
p865
S'AP53_1138'
p866
tp867
asS'AP53_1139'
p868
(lp869
(I1124258
I1125019
g3
S'CDS'
p870
S'AP53_1139'
p871
tp872
asS'AP53_1134'
p873
(lp874
(I1119953
I1120912
g44
S'CDS'
p875
S'AP53_1134'
p876
tp877
asS'AP53_1135'
p878
(lp879
(I1120974
I1122200
g44
S'CDS'
p880
S'AP53_1135'
p881
tp882
asS'AP53_1136'
p883
(lp884
(I1122296
I1122589
g44
S'CDS'
p885
S'AP53_1136'
p886
tp887
asS'AP53_1137'
p888
(lp889
(I1122622
I1123452
g44
S'CDS'
p890
S'AP53_1137'
p891
tp892
asS'AP53_1130'
p893
(lp894
(I1116567
I1116830
g3
S'CDS'
p895
S'AP53_1130'
p896
tp897
asS'AP53_1131'
p898
(lp899
(I1117265
I1117441
g44
S'CDS'
p900
S'AP53_1131'
p901
tp902
asS'AP53_1132'
p903
(lp904
(I1117461
I1119620
g44
S'CDS'
p905
S'AP53_1132'
p906
tp907
asS'AP53_1133'
p908
(lp909
(I1119702
I1119827
g3
S'CDS'
p910
S'AP53_1133'
p911
tp912
asS'AP53_240'
p913
(lp914
(I259358
I260284
g44
S'CDS'
p915
S'AP53_240'
p916
tp917
asS'AP53_241'
p918
(lp919
(I260293
I261363
g44
S'CDS'
p920
S'AP53_241'
p921
tp922
asS'AP53_930'
p923
(lp924
(I930883
I931440
g3
S'CDS'
p925
S'AP53_930'
p926
tp927
asS'AP53_931'
p928
(lp929
(I931418
I932284
g3
S'CDS'
p930
S'AP53_931'
p931
tp932
asS'AP53_936'
p933
(lp934
(I938250
I939269
g3
S'CDS'
p935
S'AP53_936'
p936
tp937
asS'AP53_937'
p938
(lp939
(I939316
I940197
g3
S'CDS'
p940
S'AP53_937'
p941
tp942
asS'AP53_934'
p943
(lp944
(I934790
I936367
g3
S'CDS'
p945
S'AP53_934'
p946
tp947
asS'AP53_935'
p948
(lp949
(I936452
I938122
g3
S'CDS'
p950
S'AP53_935'
p951
tp952
asS'AP53_385'
p953
(lp954
(I395146
I395715
g44
S'CDS'
p955
S'AP53_385'
p956
tp957
asS'AP53_384'
p958
(lp959
(I394832
I395113
g44
S'CDS'
p960
S'AP53_384'
p961
tp962
asS'AP53_387'
p963
(lp964
(I395980
I396144
g44
S'CDS'
p965
S'AP53_387'
p966
tp967
asS'AP53_386'
p968
(lp969
(I395791
I395970
g44
S'CDS'
p970
S'AP53_386'
p971
tp972
asS'AP53_381'
p973
(lp974
(I393647
I393775
g44
S'CDS'
p975
S'AP53_381'
p976
tp977
asS'AP53_380'
p978
(lp979
(I392780
I392956
g44
S'CDS'
p980
S'AP53_380'
p981
tp982
asS'AP53_383'
p983
(lp984
(I394449
I394766
g44
S'CDS'
p985
S'AP53_383'
p986
tp987
asS'AP53_382'
p988
(lp989
(I394170
I394400
g44
S'CDS'
p990
S'AP53_382'
p991
tp992
asS'AP53_143'
p993
(lp994
(I161963
I162448
g44
S'CDS'
p995
S'AP53_143'
p996
tp997
asS'AP53_142'
p998
(lp999
(I161562
I161840
g44
S'CDS'
p1000
S'AP53_142'
p1001
tp1002
asS'AP53_141'
p1003
(lp1004
(I160058
I161491
g44
S'CDS'
p1005
S'AP53_141'
p1006
tp1007
asS'AP53_416'
p1008
(lp1009
(I420767
I421450
g3
S'CDS'
p1010
S'AP53_416'
p1011
tp1012
asS'AP53_147'
p1013
(lp1014
(I165100
I166746
g44
S'CDS'
p1015
S'AP53_147'
p1016
tp1017
asS'AP53_146'
p1018
(lp1019
(I164071
I164775
g44
S'CDS'
p1020
S'AP53_146'
p1021
tp1022
asS'AP53_145'
p1023
(lp1024
(I163206
I164069
g44
S'CDS'
p1025
S'AP53_145'
p1026
tp1027
asS'AP53_144'
p1028
(lp1029
(I162539
I163201
g44
S'CDS'
p1030
S'AP53_144'
p1031
tp1032
asS'AP53_149'
p1033
(lp1034
(I168578
I169774
g44
S'CDS'
p1035
S'AP53_149'
p1036
tp1037
asS'AP53_148'
p1038
(lp1039
(I166999
I168090
g44
S'CDS'
p1040
S'AP53_148'
p1041
tp1042
asS'AP53_419'
p1043
(lp1044
(I423120
I423785
g3
S'CDS'
p1045
S'AP53_419'
p1046
tp1047
asS'AP53_418'
p1048
(lp1049
(I422732
I423109
g3
S'CDS'
p1050
S'AP53_418'
p1051
tp1052
asS'AP53_709'
p1053
(lp1054
(I705712
I706224
g44
S'CDS'
p1055
S'AP53_709'
p1056
tp1057
asS'AP53_708'
p1058
(lp1059
(I703586
I705532
g44
S'CDS'
p1060
S'AP53_708'
p1061
tp1062
asS'AP53_701'
p1063
(lp1064
(I697309
I697827
g44
S'CDS'
p1065
S'AP53_701'
p1066
tp1067
asS'AP53_700'
p1068
(lp1069
(I696573
I697094
g44
S'CDS'
p1070
S'AP53_700'
p1071
tp1072
asS'AP53_703'
p1073
(lp1074
(I698548
I699540
g44
S'CDS'
p1075
S'AP53_703'
p1076
tp1077
asS'AP53_702'
p1078
(lp1079
(I697817
I698548
g44
S'CDS'
p1080
S'AP53_702'
p1081
tp1082
asS'AP53_705'
p1083
(lp1084
(I700789
I701712
g44
S'CDS'
p1085
S'AP53_705'
p1086
tp1087
asS'AP53_704'
p1088
(lp1089
(I699718
I700776
g44
S'CDS'
p1090
S'AP53_704'
p1091
tp1092
asS'AP53_707'
p1093
(lp1094
(I702678
I703589
g44
S'CDS'
p1095
S'AP53_707'
p1096
tp1097
asS'AP53_706'
p1098
(lp1099
(I701968
I702681
g44
S'CDS'
p1100
S'AP53_706'
p1101
tp1102
asS'AP53_961'
p1103
(lp1104
(I964015
I964902
g3
S'CDS'
p1105
S'AP53_961'
p1106
tp1107
asS'AP53_960'
p1108
(lp1109
(I963196
I963999
g3
S'CDS'
p1110
S'AP53_960'
p1111
tp1112
asS'AP53_963'
p1113
(lp1114
(I965838
I966704
g3
S'CDS'
p1115
S'AP53_963'
p1116
tp1117
asS'AP53_962'
p1118
(lp1119
(I964892
I965827
g3
S'CDS'
p1120
S'AP53_962'
p1121
tp1122
asS'AP53_965'
p1123
(lp1124
(I968156
I968944
g3
S'CDS'
p1125
S'AP53_965'
p1126
tp1127
asS'AP53_964'
p1128
(lp1129
(I966843
I968153
g3
S'CDS'
p1130
S'AP53_964'
p1131
tp1132
asS'AP53_967'
p1133
(lp1134
(I969214
I969618
g3
S'CDS'
p1135
S'AP53_967'
p1136
tp1137
asS'AP53_966'
p1138
(lp1139
(I968934
I969152
g3
S'CDS'
p1140
S'AP53_966'
p1141
tp1142
asS'AP53_969'
p1143
(lp1144
(I970622
I971506
g3
S'CDS'
p1145
S'AP53_969'
p1146
tp1147
asS'AP53_968'
p1148
(lp1149
(I969661
I970593
g3
S'CDS'
p1150
S'AP53_968'
p1151
tp1152
asS'AP53_1682'
p1153
(lp1154
(I1675412
I1676389
g44
S'CDS'
p1155
S'AP53_1682'
p1156
tp1157
asS'AP53_569'
p1158
(lp1159
(I579761
I579949
g44
S'CDS'
p1160
S'AP53_569'
p1161
tp1162
asS'AP53_568'
p1163
(lp1164
(I578486
I579757
g44
S'CDS'
p1165
S'AP53_568'
p1166
tp1167
asS'AP53_1683'
p1168
(lp1169
(I1676386
I1677207
g44
S'CDS'
p1170
S'AP53_1683'
p1171
tp1172
asS'AP53_565'
p1173
(lp1174
(I576063
I577469
g44
S'CDS'
p1175
S'AP53_565'
p1176
tp1177
asS'AP53_564'
p1178
(lp1179
(I575026
I575901
g44
S'CDS'
p1180
S'AP53_564'
p1181
tp1182
asS'AP53_567'
p1183
(lp1184
(I578197
I578421
g44
S'CDS'
p1185
S'AP53_567'
p1186
tp1187
asS'AP53_566'
p1188
(lp1189
(I577482
I577898
g44
S'CDS'
p1190
S'AP53_566'
p1191
tp1192
asS'AP53_561'
p1193
(lp1194
(I572456
I572950
g44
S'CDS'
p1195
S'AP53_561'
p1196
tp1197
asS'AP53_560'
p1198
(lp1199
(I571722
I572438
g44
S'CDS'
p1200
S'AP53_560'
p1201
tp1202
asS'AP53_563'
p1203
(lp1204
(I573502
I575010
g44
S'CDS'
p1205
S'AP53_563'
p1206
tp1207
asS'AP53_562'
p1208
(lp1209
(I572950
I573486
g44
S'CDS'
p1210
S'AP53_562'
p1211
tp1212
asS'AP53_369'
p1213
(lp1214
(I385170
I386222
g44
S'CDS'
p1215
S'AP53_369'
p1216
tp1217
asS'AP53_368'
p1218
(lp1219
(I383239
I385011
g44
S'CDS'
p1220
S'AP53_368'
p1221
tp1222
asS'AP53_363'
p1223
(lp1224
(I379269
I379826
g44
S'CDS'
p1225
S'AP53_363'
p1226
tp1227
asS'AP53_362'
p1228
(lp1229
(I378512
I379240
g44
S'CDS'
p1230
S'AP53_362'
p1231
tp1232
asS'AP53_361'
p1233
(lp1234
(I377500
I378189
g44
S'CDS'
p1235
S'AP53_361'
p1236
tp1237
asS'AP53_360'
p1238
(lp1239
(I376969
I377394
g44
S'CDS'
p1240
S'AP53_360'
p1241
tp1242
asS'AP53_367'
p1243
(lp1244
(I381742
I382923
g44
S'CDS'
p1245
S'AP53_367'
p1246
tp1247
asS'AP53_366'
p1248
(lp1249
(I381371
I381586
g44
S'CDS'
p1250
S'AP53_366'
p1251
tp1252
asS'AP53_365'
p1253
(lp1254
(I380865
I381374
g44
S'CDS'
p1255
S'AP53_365'
p1256
tp1257
asS'AP53_364'
p1258
(lp1259
(I379935
I380792
g44
S'CDS'
p1260
S'AP53_364'
p1261
tp1262
asS'AP53_1688'
p1263
(lp1264
(I1681567
I1682487
g3
S'CDS'
p1265
S'AP53_1688'
p1266
tp1267
asS'AP53_1689'
p1268
(lp1269
(I1682547
I1682660
g44
S'CDS'
p1270
S'AP53_1689'
p1271
tp1272
asS'AP53_1431'
p1273
(lp1274
(I1408823
I1409356
g3
S'CDS'
p1275
S'AP53_1431'
p1276
tp1277
asS'AP53_1430'
p1278
(lp1279
(I1407534
I1408451
g3
S'CDS'
p1280
S'AP53_1430'
p1281
tp1282
asS'AP53_1433'
p1283
(lp1284
(I1410449
I1411597
g3
S'CDS'
p1285
S'AP53_1433'
p1286
tp1287
asS'AP53_1432'
p1288
(lp1289
(I1409488
I1410327
g3
S'CDS'
p1290
S'AP53_1432'
p1291
tp1292
asS'AP53_1435'
p1293
(lp1294
(I1413548
I1414270
g44
S'CDS'
p1295
S'AP53_1435'
p1296
tp1297
asS'AP53_1434'
p1298
(lp1299
(I1411715
I1413346
g3
S'CDS'
p1300
S'AP53_1434'
p1301
tp1302
asS'AP53_1437'
p1303
(lp1304
(I1415534
I1416091
g44
S'CDS'
p1305
S'AP53_1437'
p1306
tp1307
asS'AP53_1388'
p1308
(lp1309
(I1362753
I1363412
g44
S'CDS'
p1310
S'AP53_1388'
p1311
tp1312
asS'AP53_1387'
p1313
(lp1314
(I1362101
I1362751
g44
S'CDS'
p1315
S'AP53_1387'
p1316
tp1317
asS'AP53_1386'
p1318
(lp1319
(I1360890
I1362077
g44
S'CDS'
p1320
S'AP53_1386'
p1321
tp1322
asS'AP53_1385'
p1323
(lp1324
(I1359795
I1360691
g3
S'CDS'
p1325
S'AP53_1385'
p1326
tp1327
asS'AP53_1384'
p1328
(lp1329
(I1358058
I1359665
g3
S'CDS'
p1330
S'AP53_1384'
p1331
tp1332
asS'AP53_1383'
p1333
(lp1334
(I1357313
I1357948
g3
S'CDS'
p1335
S'AP53_1383'
p1336
tp1337
asS'AP53_1382'
p1338
(lp1339
(I1356980
I1357294
g3
S'CDS'
p1340
S'AP53_1382'
p1341
tp1342
asS'AP53_1381'
p1343
(lp1344
(I1354531
I1356915
g3
S'CDS'
p1345
S'AP53_1381'
p1346
tp1347
asS'AP53_1380'
p1348
(lp1349
(I1353534
I1354469
g3
S'CDS'
p1350
S'AP53_1380'
p1351
tp1352
asS'AP53_407'
p1353
(lp1354
(I411380
I411973
g44
S'CDS'
p1355
S'AP53_407'
p1356
tp1357
asS'AP53_1729'
p1358
(lp1359
(I1723403
I1723594
g44
S'CDS'
p1360
S'AP53_1729'
p1361
tp1362
asS'AP53_1728'
p1363
(lp1364
(I1722532
I1722912
g3
S'CDS'
p1365
S'AP53_1728'
p1366
tp1367
asS'AP53_1725'
p1368
(lp1369
(I1719564
I1719764
g44
S'CDS'
p1370
S'AP53_1725'
p1371
tp1372
asS'AP53_1724'
p1373
(lp1374
(I1718756
I1719529
g44
S'CDS'
p1375
S'AP53_1724'
p1376
tp1377
asS'AP53_1727'
p1378
(lp1379
(I1720157
I1722427
g3
S'CDS'
p1380
S'AP53_1727'
p1381
tp1382
asS'AP53_1726'
p1383
(lp1384
(I1719766
I1719942
g3
S'CDS'
p1385
S'AP53_1726'
p1386
tp1387
asS'AP53_1721'
p1388
(lp1389
(I1716280
I1716600
g3
S'CDS'
p1390
S'AP53_1721'
p1391
tp1392
asS'AP53_1720'
p1393
(lp1394
(I1715944
I1716252
g3
S'CDS'
p1395
S'AP53_1720'
p1396
tp1397
asS'AP53_1723'
p1398
(lp1399
(I1717884
I1718630
g3
S'CDS'
p1400
S'AP53_1723'
p1401
tp1402
asS'AP53_1722'
p1403
(lp1404
(I1716888
I1717868
g3
S'CDS'
p1405
S'AP53_1722'
p1406
tp1407
asS'AP53_1655'
p1408
(lp1409
(I1638992
I1640848
g3
S'CDS'
p1410
S'AP53_1655'
p1411
tp1412
asS'AP53_1654'
p1413
(lp1414
(I1634341
I1638738
g3
S'CDS'
p1415
S'AP53_1654'
p1416
tp1417
asS'AP53_1657'
p1418
(lp1419
(I1642378
I1643172
g3
S'CDS'
p1420
S'AP53_1657'
p1421
tp1422
asS'AP53_1656'
p1423
(lp1424
(I1641046
I1642305
g3
S'CDS'
p1425
S'AP53_1656'
p1426
tp1427
asS'AP53_1651'
p1428
(lp1429
(I1632482
I1633096
g44
S'CDS'
p1430
S'AP53_1651'
p1431
tp1432
asS'AP53_1650'
p1433
(lp1434
(I1632099
I1632356
g44
S'CDS'
p1435
S'AP53_1650'
p1436
tp1437
asS'AP53_1653'
p1438
(lp1439
(I1633803
I1634231
g3
S'CDS'
p1440
S'AP53_1653'
p1441
tp1442
asS'AP53_1652'
p1443
(lp1444
(I1633130
I1633672
g3
S'CDS'
p1445
S'AP53_1652'
p1446
tp1447
asS'AP53_1659'
p1448
(lp1449
(I1644153
I1644518
g3
S'CDS'
p1450
S'AP53_1659'
p1451
tp1452
asS'AP53_1658'
p1453
(lp1454
(I1643185
I1643934
g3
S'CDS'
p1455
S'AP53_1658'
p1456
tp1457
asS'AP53_1810'
p1458
(lp1459
(I1801560
I1802438
g3
S'CDS'
p1460
S'AP53_1810'
p1461
tp1462
asS'AP53_1817'
p1463
(lp1464
(I1808244
I1808582
g44
S'CDS'
p1465
S'AP53_1817'
p1466
tp1467
asS'AP53_1816'
p1468
(lp1469
(I1807618
I1808232
g44
S'CDS'
p1470
S'AP53_1816'
p1471
tp1472
asS'AP53_1815'
p1473
(lp1474
(I1807176
I1807325
g44
S'CDS'
p1475
S'AP53_1815'
p1476
tp1477
asS'AP53_1814'
p1478
(lp1479
(I1806978
I1807160
g44
S'CDS'
p1480
S'AP53_1814'
p1481
tp1482
asS'AP53_1328'
p1483
(lp1484
(I1308832
I1309650
g3
S'CDS'
p1485
S'AP53_1328'
p1486
tp1487
asS'AP53_1833'
p1488
(lp1489
(I1823460
I1823912
g3
S'CDS'
p1490
S'AP53_1833'
p1491
tp1492
asS'AP53_1832'
p1493
(lp1494
(I1822063
I1823424
g3
S'CDS'
p1495
S'AP53_1832'
p1496
tp1497
asS'AP53_176'
p1498
(lp1499
(I191564
I191683
g44
S'CDS'
p1500
S'AP53_176'
p1501
tp1502
asS'AP53_177'
p1503
(lp1504
(I191780
I193129
g44
S'CDS'
p1505
S'AP53_177'
p1506
tp1507
asS'AP53_174'
p1508
(lp1509
(I190618
I191322
g44
S'CDS'
p1510
S'AP53_174'
p1511
tp1512
asS'AP53_175'
p1513
(lp1514
(I191409
I191528
g44
S'CDS'
p1515
S'AP53_175'
p1516
tp1517
asS'AP53_172'
p1518
(lp1519
(I187857
I188372
g44
S'CDS'
p1520
S'AP53_172'
p1521
tp1522
asS'AP53_173'
p1523
(lp1524
(I188986
I190206
g3
S'CDS'
p1525
S'AP53_173'
p1526
tp1527
asS'AP53_170'
p1528
(lp1529
(I186399
I186938
g44
S'CDS'
p1530
S'AP53_170'
p1531
tp1532
asS'AP53_171'
p1533
(lp1534
(I187078
I187857
g44
S'CDS'
p1535
S'AP53_171'
p1536
tp1537
asS'AP53_178'
p1538
(lp1539
(I193478
I194986
g3
S'CDS'
p1540
S'AP53_178'
p1541
tp1542
asS'AP53_179'
p1543
(lp1544
(I195291
I195422
g44
S'CDS'
p1545
S'AP53_179'
p1546
tp1547
asS'AP53_288'
p1548
(lp1549
(I312303
I312764
g44
S'CDS'
p1550
S'AP53_288'
p1551
tp1552
asS'AP53_289'
p1553
(lp1554
(I312761
I313507
g44
S'CDS'
p1555
S'AP53_289'
p1556
tp1557
asS'AP53_284'
p1558
(lp1559
(I309609
I309851
g44
S'CDS'
p1560
S'AP53_284'
p1561
tp1562
asS'AP53_285'
p1563
(lp1564
(I310029
I310823
g44
S'CDS'
p1565
S'AP53_285'
p1566
tp1567
asS'AP53_286'
p1568
(lp1569
(I310820
I311806
g44
S'CDS'
p1570
S'AP53_286'
p1571
tp1572
asS'AP53_287'
p1573
(lp1574
(I311785
I312306
g44
S'CDS'
p1575
S'AP53_287'
p1576
tp1577
asS'AP53_280'
p1578
(lp1579
(I306912
I307190
g3
S'CDS'
p1580
S'AP53_280'
p1581
tp1582
asS'AP53_281'
p1583
(lp1584
(I307451
I308188
g44
S'CDS'
p1585
S'AP53_281'
p1586
tp1587
asS'AP53_282'
p1588
(lp1589
(I308227
I308727
g44
S'CDS'
p1590
S'AP53_282'
p1591
tp1592
asS'AP53_283'
p1593
(lp1594
(I308742
I309431
g44
S'CDS'
p1595
S'AP53_283'
p1596
tp1597
asS'AP53_1714'
p1598
(lp1599
(I1709305
I1709433
g44
S'CDS'
p1600
S'AP53_1714'
p1601
tp1602
asS'AP53_778'
p1603
(lp1604
(I771725
I772831
g44
S'CDS'
p1605
S'AP53_778'
p1606
tp1607
asS'AP53_779'
p1608
(lp1609
(I772889
I773758
g44
S'CDS'
p1610
S'AP53_779'
p1611
tp1612
asS'AP53_1715'
p1613
(lp1614
(I1709585
I1710094
g44
S'CDS'
p1615
S'AP53_1715'
p1616
tp1617
asS'AP53_774'
p1618
(lp1619
(I768813
I769496
g44
S'CDS'
p1620
S'AP53_774'
p1621
tp1622
asS'AP53_775'
p1623
(lp1624
(I769493
I770149
g44
S'CDS'
p1625
S'AP53_775'
p1626
tp1627
asS'AP53_776'
p1628
(lp1629
(I770221
I770907
g44
S'CDS'
p1630
S'AP53_776'
p1631
tp1632
asS'AP53_777'
p1633
(lp1634
(I770897
I771685
g44
S'CDS'
p1635
S'AP53_777'
p1636
tp1637
asS'AP53_770'
p1638
(lp1639
(I764163
I765092
g44
S'CDS'
p1640
S'AP53_770'
p1641
tp1642
asS'AP53_771'
p1643
(lp1644
(I765092
I765856
g44
S'CDS'
p1645
S'AP53_771'
p1646
tp1647
asS'AP53_772'
p1648
(lp1649
(I765853
I768063
g44
S'CDS'
p1650
S'AP53_772'
p1651
tp1652
asS'AP53_773'
p1653
(lp1654
(I768214
I768732
g44
S'CDS'
p1655
S'AP53_773'
p1656
tp1657
asS'AP53_1717'
p1658
(lp1659
(I1711321
I1711989
g3
S'CDS'
p1660
S'AP53_1717'
p1661
tp1662
asS'AP53_1710'
p1663
(lp1664
(I1706654
I1706824
g3
S'CDS'
p1665
S'AP53_1710'
p1666
tp1667
asS'AP53_1711'
p1668
(lp1669
(I1706908
I1707039
g44
S'CDS'
p1670
S'AP53_1711'
p1671
tp1672
asS'AP53_914'
p1673
(lp1674
(I912431
I913318
g44
S'CDS'
p1675
S'AP53_914'
p1676
tp1677
asS'AP53_915'
p1678
(lp1679
(I913321
I914853
g44
S'CDS'
p1680
S'AP53_915'
p1681
tp1682
asS'AP53_916'
p1683
(lp1684
(I914846
I915424
g44
S'CDS'
p1685
S'AP53_916'
p1686
tp1687
asS'AP53_917'
p1688
(lp1689
(I915439
I916833
g44
S'CDS'
p1690
S'AP53_917'
p1691
tp1692
asS'AP53_910'
p1693
(lp1694
(I910386
I910781
g44
S'CDS'
p1695
S'AP53_910'
p1696
tp1697
asS'AP53_911'
p1698
(lp1699
(I910826
I911947
g44
S'CDS'
p1700
S'AP53_911'
p1701
tp1702
asS'AP53_912'
p1703
(lp1704
(I911965
I912099
g44
S'CDS'
p1705
S'AP53_912'
p1706
tp1707
asS'AP53_913'
p1708
(lp1709
(I912135
I912443
g44
S'CDS'
p1710
S'AP53_913'
p1711
tp1712
asS'AP53_1713'
p1713
(lp1714
(I1708406
I1709221
g3
S'CDS'
p1715
S'AP53_1713'
p1716
tp1717
asS'AP53_918'
p1718
(lp1719
(I916943
I917995
g3
S'CDS'
p1720
S'AP53_918'
p1721
tp1722
asS'AP53_919'
p1723
(lp1724
(I918084
I918566
g3
S'CDS'
p1725
S'AP53_919'
p1726
tp1727
asS'AP53_590'
p1728
(lp1729
(I603157
I604089
g44
S'CDS'
p1730
S'AP53_590'
p1731
tp1732
asS'AP53_591'
p1733
(lp1734
(I604092
I604895
g44
S'CDS'
p1735
S'AP53_591'
p1736
tp1737
asS'AP53_592'
p1738
(lp1739
(I604895
I606100
g44
S'CDS'
p1740
S'AP53_592'
p1741
tp1742
asS'AP53_593'
p1743
(lp1744
(I606125
I607132
g44
S'CDS'
p1745
S'AP53_593'
p1746
tp1747
asS'AP53_594'
p1748
(lp1749
(I607129
I608874
g44
S'CDS'
p1750
S'AP53_594'
p1751
tp1752
asS'AP53_596'
p1753
(lp1754
(I609993
I610202
g3
S'CDS'
p1755
S'AP53_596'
p1756
tp1757
asS'AP53_597'
p1758
(lp1759
(I610356
I610502
g44
S'CDS'
p1760
S'AP53_597'
p1761
tp1762
asS'AP53_598'
p1763
(lp1764
(I610643
I610894
g44
S'CDS'
p1765
S'AP53_598'
p1766
tp1767
asS'AP53_599'
p1768
(lp1769
(I611158
I611397
g44
S'CDS'
p1770
S'AP53_599'
p1771
tp1772
asS'AP53_600'
p1773
(lp1774
(I611455
I611811
g44
S'CDS'
p1775
S'AP53_600'
p1776
tp1777
asS'AP53_601'
p1778
(lp1779
(I611927
I613135
g3
S'CDS'
p1780
S'AP53_601'
p1781
tp1782
asS'AP53_604'
p1783
(lp1784
(I613759
I614391
g3
S'CDS'
p1785
S'AP53_604'
p1786
tp1787
asS'AP53_605'
p1788
(lp1789
(I614394
I614822
g3
S'CDS'
p1790
S'AP53_605'
p1791
tp1792
asS'AP53_358'
p1793
(lp1794
(I373897
I376302
g44
S'CDS'
p1795
S'AP53_358'
p1796
tp1797
asS'AP53_607'
p1798
(lp1799
(I616748
I617755
g3
S'CDS'
p1800
S'AP53_607'
p1801
tp1802
asS'AP53_608'
p1803
(lp1804
(I617752
I619803
g3
S'CDS'
p1805
S'AP53_608'
p1806
tp1807
asS'AP53_609'
p1808
(lp1809
(I619800
I620570
g3
S'CDS'
p1810
S'AP53_609'
p1811
tp1812
asS'AP53_354'
p1813
(lp1814
(I370150
I371082
g44
S'CDS'
p1815
S'AP53_354'
p1816
tp1817
asS'AP53_355'
p1818
(lp1819
(I371146
I371871
g44
S'CDS'
p1820
S'AP53_355'
p1821
tp1822
asS'AP53_352'
p1823
(lp1824
(I368917
I369258
g44
S'CDS'
p1825
S'AP53_352'
p1826
tp1827
asS'AP53_353'
p1828
(lp1829
(I369357
I370004
g3
S'CDS'
p1830
S'AP53_353'
p1831
tp1832
asS'AP53_350'
p1833
(lp1834
(I367800
I368051
g44
S'CDS'
p1835
S'AP53_350'
p1836
tp1837
asS'AP53_351'
p1838
(lp1839
(I368071
I368766
g44
S'CDS'
p1840
S'AP53_351'
p1841
tp1842
asS'AP53_828'
p1843
(lp1844
(I828823
I829425
g44
S'CDS'
p1845
S'AP53_828'
p1846
tp1847
asS'AP53_829'
p1848
(lp1849
(I829550
I830959
g44
S'CDS'
p1850
S'AP53_829'
p1851
tp1852
asS'AP53_820'
p1853
(lp1854
(I819469
I819960
g44
S'CDS'
p1855
S'AP53_820'
p1856
tp1857
asS'AP53_821'
p1858
(lp1859
(I819977
I820786
g44
S'CDS'
p1860
S'AP53_821'
p1861
tp1862
asS'AP53_822'
p1863
(lp1864
(I820783
I821610
g44
S'CDS'
p1865
S'AP53_822'
p1866
tp1867
asS'AP53_823'
p1868
(lp1869
(I821746
I823395
g44
S'CDS'
p1870
S'AP53_823'
p1871
tp1872
asS'AP53_824'
p1873
(lp1874
(I823399
I824187
g44
S'CDS'
p1875
S'AP53_824'
p1876
tp1877
asS'AP53_825'
p1878
(lp1879
(I824181
I825227
g44
S'CDS'
p1880
S'AP53_825'
p1881
tp1882
asS'AP53_826'
p1883
(lp1884
(I825342
I826739
g44
S'CDS'
p1885
S'AP53_826'
p1886
tp1887
asS'AP53_827'
p1888
(lp1889
(I826841
I828637
g44
S'CDS'
p1890
S'AP53_827'
p1891
tp1892
asS'AP53_606'
p1893
(lp1894
(I614834
I616738
g3
S'CDS'
p1895
S'AP53_606'
p1896
tp1897
asS'AP53_359'
p1898
(lp1899
(I376372
I376722
g3
S'CDS'
p1900
S'AP53_359'
p1901
tp1902
asS'AP53_356'
p1903
(lp1904
(I371872
I372726
g44
S'CDS'
p1905
S'AP53_356'
p1906
tp1907
asS'AP53_357'
p1908
(lp1909
(I372874
I373680
g3
S'CDS'
p1910
S'AP53_357'
p1911
tp1912
asS'AP53_1422'
p1913
(lp1914
(I1398289
I1399635
g3
S'CDS'
p1915
S'AP53_1422'
p1916
tp1917
asS'AP53_1391'
p1918
(lp1919
(I1364295
I1365626
g44
S'CDS'
p1920
S'AP53_1391'
p1921
tp1922
asS'AP53_1392'
p1923
(lp1924
(I1365700
I1366182
g44
S'CDS'
p1925
S'AP53_1392'
p1926
tp1927
asS'AP53_1393'
p1928
(lp1929
(I1366328
I1367797
g3
S'CDS'
p1930
S'AP53_1393'
p1931
tp1932
asS'AP53_1394'
p1933
(lp1934
(I1367811
I1368965
g3
S'CDS'
p1935
S'AP53_1394'
p1936
tp1937
asS'AP53_1395'
p1938
(lp1939
(I1369410
I1369736
g3
S'CDS'
p1940
S'AP53_1395'
p1941
tp1942
asS'AP53_1396'
p1943
(lp1944
(I1369855
I1370370
g3
S'CDS'
p1945
S'AP53_1396'
p1946
tp1947
asS'AP53_1397'
p1948
(lp1949
(I1370451
I1371059
g44
S'CDS'
p1950
S'AP53_1397'
p1951
tp1952
asS'AP53_1398'
p1953
(lp1954
(I1371046
I1373220
g44
S'CDS'
p1955
S'AP53_1398'
p1956
tp1957
asS'AP53_1399'
p1958
(lp1959
(I1373687
I1375024
g3
S'CDS'
p1960
S'AP53_1399'
p1961
tp1962
asS'AP53_1428'
p1963
(lp1964
(I1404707
I1404964
g3
S'CDS'
p1965
S'AP53_1428'
p1966
tp1967
asS'AP53_1429'
p1968
(lp1969
(I1405118
I1407157
g3
S'CDS'
p1970
S'AP53_1429'
p1971
tp1972
asS'AP53_1738'
p1973
(lp1974
(I1731344
I1733788
g3
S'CDS'
p1975
S'AP53_1738'
p1976
tp1977
asS'AP53_1739'
p1978
(lp1979
(I1733788
I1734249
g3
S'CDS'
p1980
S'AP53_1739'
p1981
tp1982
asS'AP53_1736'
p1983
(lp1984
(I1729209
I1730840
g3
S'CDS'
p1985
S'AP53_1736'
p1986
tp1987
asS'AP53_1737'
p1988
(lp1989
(I1730876
I1731166
g3
S'CDS'
p1990
S'AP53_1737'
p1991
tp1992
asS'AP53_1734'
p1993
(lp1994
(I1728692
I1728958
g3
S'CDS'
p1995
S'AP53_1734'
p1996
tp1997
asS'AP53_1735'
p1998
(lp1999
(I1729016
I1729150
g44
S'CDS'
p2000
S'AP53_1735'
p2001
tp2002
asS'AP53_1732'
p2003
(lp2004
(I1726465
I1727964
g44
S'CDS'
p2005
S'AP53_1732'
p2006
tp2007
asS'AP53_1733'
p2008
(lp2009
(I1728607
I1728738
g3
S'CDS'
p2010
S'AP53_1733'
p2011
tp2012
asS'AP53_1730'
p2013
(lp2014
(I1723578
I1724489
g44
S'CDS'
p2015
S'AP53_1730'
p2016
tp2017
asS'AP53_1731'
p2018
(lp2019
(I1724578
I1726218
g3
S'CDS'
p2020
S'AP53_1731'
p2021
tp2022
asS'AP53_1646'
p2023
(lp2024
(I1628639
I1628923
g3
S'CDS'
p2025
S'AP53_1646'
p2026
tp2027
asS'AP53_1647'
p2028
(lp2029
(I1628916
I1630976
g3
S'CDS'
p2030
S'AP53_1647'
p2031
tp2032
asS'AP53_1644'
p2033
(lp2034
(I1626492
I1627220
g3
S'CDS'
p2035
S'AP53_1644'
p2036
tp2037
asS'AP53_1645'
p2038
(lp2039
(I1627233
I1628612
g3
S'CDS'
p2040
S'AP53_1645'
p2041
tp2042
asS'AP53_1642'
p2043
(lp2044
(I1623335
I1624087
g3
S'CDS'
p2045
S'AP53_1642'
p2046
tp2047
asS'AP53_1643'
p2048
(lp2049
(I1624080
I1626212
g3
S'CDS'
p2050
S'AP53_1643'
p2051
tp2052
asS'AP53_1640'
p2053
(lp2054
(I1622036
I1622266
g3
S'CDS'
p2055
S'AP53_1640'
p2056
tp2057
asS'AP53_1641'
p2058
(lp2059
(I1622745
I1623326
g3
S'CDS'
p2060
S'AP53_1641'
p2061
tp2062
asS'AP53_1648'
p2063
(lp2064
(I1631328
I1631597
g3
S'CDS'
p2065
S'AP53_1648'
p2066
tp2067
asS'AP53_1649'
p2068
(lp2069
(I1631773
I1631973
g3
S'CDS'
p2070
S'AP53_1649'
p2071
tp2072
asS'AP53_169'
p2073
(lp2074
(I186084
I186395
g44
S'CDS'
p2075
S'AP53_169'
p2076
tp2077
asS'AP53_168'
p2078
(lp2079
(I184725
I185867
g44
S'CDS'
p2080
S'AP53_168'
p2081
tp2082
asS'AP53_161'
p2083
(lp2084
(I179541
I180851
g3
S'CDS'
p2085
S'AP53_161'
p2086
tp2087
asS'AP53_160'
p2088
(lp2089
(I179170
I179463
g3
S'CDS'
p2090
S'AP53_160'
p2091
tp2092
asS'AP53_163'
p2093
(lp2094
(I182246
I182698
g3
S'CDS'
p2095
S'AP53_163'
p2096
tp2097
asS'AP53_162'
p2098
(lp2099
(I181074
I181946
g44
S'CDS'
p2100
S'AP53_162'
p2101
tp2102
asS'AP53_165'
p2103
(lp2104
(I183042
I183557
g3
S'CDS'
p2105
S'AP53_165'
p2106
tp2107
asS'AP53_164'
p2108
(lp2109
(I182704
I183021
g3
S'CDS'
p2110
S'AP53_164'
p2111
tp2112
asS'AP53_167'
p2113
(lp2114
(I184543
I184728
g44
S'CDS'
p2115
S'AP53_167'
p2116
tp2117
asS'AP53_166'
p2118
(lp2119
(I183643
I184506
g3
S'CDS'
p2120
S'AP53_166'
p2121
tp2122
asS'AP53_150'
p2123
(lp2124
(I169790
I171517
g44
S'CDS'
p2125
S'AP53_150'
p2126
tp2127
asS'AP53_151'
p2128
(lp2129
(I171648
I174290
g44
S'CDS'
p2130
S'AP53_151'
p2131
tp2132
asS'AP53_152'
p2133
(lp2134
(I174477
I174932
g44
S'CDS'
p2135
S'AP53_152'
p2136
tp2137
asS'AP53_503'
p2138
(lp2139
(I504794
I506095
g3
S'CDS'
p2140
S'AP53_503'
p2141
tp2142
asS'AP53_153'
p2143
(lp2144
(I174984
I175451
g44
S'CDS'
p2145
S'AP53_153'
p2146
tp2147
asS'AP53_299'
p2148
(lp2149
(I320056
I321390
g44
S'CDS'
p2150
S'AP53_299'
p2151
tp2152
asS'AP53_298'
p2153
(lp2154
(I319369
I319923
g44
S'CDS'
p2155
S'AP53_298'
p2156
tp2157
asS'AP53_297'
p2158
(lp2159
(I318410
I319330
g44
S'CDS'
p2160
S'AP53_297'
p2161
tp2162
asS'AP53_296'
p2163
(lp2164
(I317465
I318106
g44
S'CDS'
p2165
S'AP53_296'
p2166
tp2167
asS'AP53_295'
p2168
(lp2169
(I316900
I317463
g44
S'CDS'
p2170
S'AP53_295'
p2171
tp2172
asS'AP53_294'
p2173
(lp2174
(I316041
I316589
g44
S'CDS'
p2175
S'AP53_294'
p2176
tp2177
asS'AP53_293'
p2178
(lp2179
(I315600
I315863
g44
S'CDS'
p2180
S'AP53_293'
p2181
tp2182
asS'AP53_292'
p2183
(lp2184
(I314881
I315603
g44
S'CDS'
p2185
S'AP53_292'
p2186
tp2187
asS'AP53_291'
p2188
(lp2189
(I314208
I314759
g44
S'CDS'
p2190
S'AP53_291'
p2191
tp2192
asS'AP53_290'
p2193
(lp2194
(I313507
I314211
g44
S'CDS'
p2195
S'AP53_290'
p2196
tp2197
asS'AP53_500'
p2198
(lp2199
(I502330
I503529
g3
S'CDS'
p2200
S'AP53_500'
p2201
tp2202
asS'AP53_156'
p2203
(lp2204
(I177455
I177985
g44
S'CDS'
p2205
S'AP53_156'
p2206
tp2207
asS'AP53_769'
p2208
(lp2209
(I763513
I764148
g44
S'CDS'
p2210
S'AP53_769'
p2211
tp2212
asS'AP53_768'
p2213
(lp2214
(I762279
I763520
g44
S'CDS'
p2215
S'AP53_768'
p2216
tp2217
asS'AP53_767'
p2218
(lp2219
(I761310
I762209
g44
S'CDS'
p2220
S'AP53_767'
p2221
tp2222
asS'AP53_766'
p2223
(lp2224
(I761000
I761176
g3
S'CDS'
p2225
S'AP53_766'
p2226
tp2227
asS'AP53_765'
p2228
(lp2229
(I759974
I760882
g44
S'CDS'
p2230
S'AP53_765'
p2231
tp2232
asS'AP53_764'
p2233
(lp2234
(I759529
I759915
g44
S'CDS'
p2235
S'AP53_764'
p2236
tp2237
asS'AP53_763'
p2238
(lp2239
(I759223
I759345
g3
S'CDS'
p2240
S'AP53_763'
p2241
tp2242
asS'AP53_762'
p2243
(lp2244
(I758232
I759218
g44
S'CDS'
p2245
S'AP53_762'
p2246
tp2247
asS'AP53_761'
p2248
(lp2249
(I757729
I758031
g3
S'CDS'
p2250
S'AP53_761'
p2251
tp2252
asS'AP53_760'
p2253
(lp2254
(I755977
I757182
g44
S'CDS'
p2255
S'AP53_760'
p2256
tp2257
asS'AP53_505'
p2258
(lp2259
(I506793
I509474
g44
S'CDS'
p2260
S'AP53_505'
p2261
tp2262
asS'AP53_504'
p2263
(lp2264
(I506177
I506563
g44
S'CDS'
p2265
S'AP53_504'
p2266
tp2267
asS'AP53_907'
p2268
(lp2269
(I907370
I908065
g3
S'CDS'
p2270
S'AP53_907'
p2271
tp2272
asS'AP53_906'
p2273
(lp2274
(I906493
I907377
g3
S'CDS'
p2275
S'AP53_906'
p2276
tp2277
asS'AP53_905'
p2278
(lp2279
(I905162
I906292
g44
S'CDS'
p2280
S'AP53_905'
p2281
tp2282
asS'AP53_904'
p2283
(lp2284
(I904802
I905152
g44
S'CDS'
p2285
S'AP53_904'
p2286
tp2287
asS'AP53_903'
p2288
(lp2289
(I904488
I904802
g44
S'CDS'
p2290
S'AP53_903'
p2291
tp2292
asS'AP53_902'
p2293
(lp2294
(I903063
I904445
g44
S'CDS'
p2295
S'AP53_902'
p2296
tp2297
asS'AP53_901'
p2298
(lp2299
(I901540
I902886
g44
S'CDS'
p2300
S'AP53_901'
p2301
tp2302
asS'AP53_900'
p2303
(lp2304
(I900198
I901331
g44
S'CDS'
p2305
S'AP53_900'
p2306
tp2307
asS'AP53_909'
p2308
(lp2309
(I910006
I910329
g44
S'CDS'
p2310
S'AP53_909'
p2311
tp2312
asS'AP53_908'
p2313
(lp2314
(I908223
I909626
g3
S'CDS'
p2315
S'AP53_908'
p2316
tp2317
asS'AP53_583'
p2318
(lp2319
(I596600
I596776
g44
S'CDS'
p2320
S'AP53_583'
p2321
tp2322
asS'AP53_582'
p2323
(lp2324
(I595647
I596459
g44
S'CDS'
p2325
S'AP53_582'
p2326
tp2327
asS'AP53_581'
p2328
(lp2329
(I591839
I595507
g44
S'CDS'
p2330
S'AP53_581'
p2331
tp2332
asS'AP53_580'
p2333
(lp2334
(I588663
I591878
g44
S'CDS'
p2335
S'AP53_580'
p2336
tp2337
asS'AP53_587'
p2338
(lp2339
(I600564
I600902
g44
S'CDS'
p2340
S'AP53_587'
p2341
tp2342
asS'AP53_586'
p2343
(lp2344
(I599219
I600328
g44
S'CDS'
p2345
S'AP53_586'
p2346
tp2347
asS'AP53_585'
p2348
(lp2349
(I597423
I599210
g44
S'CDS'
p2350
S'AP53_585'
p2351
tp2352
asS'AP53_584'
p2353
(lp2354
(I596904
I597266
g3
S'CDS'
p2355
S'AP53_584'
p2356
tp2357
asS'AP53_589'
p2358
(lp2359
(I602013
I603167
g44
S'CDS'
p2360
S'AP53_589'
p2361
tp2362
asS'AP53_588'
p2363
(lp2364
(I601040
I601894
g44
S'CDS'
p2365
S'AP53_588'
p2366
tp2367
asS'AP53_341'
p2368
(lp2369
(I359665
I360138
g44
S'CDS'
p2370
S'AP53_341'
p2371
tp2372
asS'AP53_340'
p2373
(lp2374
(I358749
I359360
g3
S'CDS'
p2375
S'AP53_340'
p2376
tp2377
asS'AP53_343'
p2378
(lp2379
(I361177
I361677
g3
S'CDS'
p2380
S'AP53_343'
p2381
tp2382
asS'AP53_342'
p2383
(lp2384
(I360833
I361084
g44
S'CDS'
p2385
S'AP53_342'
p2386
tp2387
asS'AP53_345'
p2388
(lp2389
(I362256
I362954
g44
S'CDS'
p2390
S'AP53_345'
p2391
tp2392
asS'AP53_344'
p2393
(lp2394
(I362027
I362263
g44
S'CDS'
p2395
S'AP53_344'
p2396
tp2397
asS'AP53_347'
p2398
(lp2399
(I364322
I365659
g44
S'CDS'
p2400
S'AP53_347'
p2401
tp2402
asS'AP53_346'
p2403
(lp2404
(I363000
I363989
g44
S'CDS'
p2405
S'AP53_346'
p2406
tp2407
asS'AP53_349'
p2408
(lp2409
(I367246
I367800
g44
S'CDS'
p2410
S'AP53_349'
p2411
tp2412
asS'AP53_348'
p2413
(lp2414
(I365833
I367215
g44
S'CDS'
p2415
S'AP53_348'
p2416
tp2417
asS'AP53_619'
p2418
(lp2419
(I627523
I628656
g3
S'CDS'
p2420
S'AP53_619'
p2421
tp2422
asS'AP53_618'
p2423
(lp2424
(I627336
I627509
g3
S'CDS'
p2425
S'AP53_618'
p2426
tp2427
asS'AP53_839'
p2428
(lp2429
(I839618
I840118
g44
S'CDS'
p2430
S'AP53_839'
p2431
tp2432
asS'AP53_838'
p2433
(lp2434
(I839262
I839621
g44
S'CDS'
p2435
S'AP53_838'
p2436
tp2437
asS'AP53_833'
p2438
(lp2439
(I833905
I835140
g44
S'CDS'
p2440
S'AP53_833'
p2441
tp2442
asS'AP53_832'
p2443
(lp2444
(I833301
I833666
g44
S'CDS'
p2445
S'AP53_832'
p2446
tp2447
asS'AP53_831'
p2448
(lp2449
(I832736
I833236
g44
S'CDS'
p2450
S'AP53_831'
p2451
tp2452
asS'AP53_830'
p2453
(lp2454
(I831027
I832403
g3
S'CDS'
p2455
S'AP53_830'
p2456
tp2457
asS'AP53_837'
p2458
(lp2459
(I838455
I839246
g44
S'CDS'
p2460
S'AP53_837'
p2461
tp2462
asS'AP53_836'
p2463
(lp2464
(I837862
I838446
g44
S'CDS'
p2465
S'AP53_836'
p2466
tp2467
asS'AP53_835'
p2468
(lp2469
(I836550
I837827
g44
S'CDS'
p2470
S'AP53_835'
p2471
tp2472
asS'AP53_834'
p2473
(lp2474
(I835256
I836218
g3
S'CDS'
p2475
S'AP53_834'
p2476
tp2477
asS'AP53_1417'
p2478
(lp2479
(I1392599
I1393333
g3
S'CDS'
p2480
S'AP53_1417'
p2481
tp2482
asS'AP53_1416'
p2483
(lp2484
(I1390966
I1392594
g3
S'CDS'
p2485
S'AP53_1416'
p2486
tp2487
asS'AP53_1415'
p2488
(lp2489
(I1390080
I1390898
g3
S'CDS'
p2490
S'AP53_1415'
p2491
tp2492
asS'AP53_1414'
p2493
(lp2494
(I1388837
I1390087
g3
S'CDS'
p2495
S'AP53_1414'
p2496
tp2497
asS'AP53_1413'
p2498
(lp2499
(I1388647
I1388817
g3
S'CDS'
p2500
S'AP53_1413'
p2501
tp2502
asS'AP53_1412'
p2503
(lp2504
(I1387358
I1388371
g3
S'CDS'
p2505
S'AP53_1412'
p2506
tp2507
asS'AP53_1411'
p2508
(lp2509
(I1387030
I1387353
g3
S'CDS'
p2510
S'AP53_1411'
p2511
tp2512
asS'AP53_1410'
p2513
(lp2514
(I1384771
I1387026
g3
S'CDS'
p2515
S'AP53_1410'
p2516
tp2517
asS'AP53_1419'
p2518
(lp2519
(I1393827
I1395812
g3
S'CDS'
p2520
S'AP53_1419'
p2521
tp2522
asS'AP53_1418'
p2523
(lp2524
(I1393367
I1393633
g3
S'CDS'
p2525
S'AP53_1418'
p2526
tp2527
asS'AP53_1093'
p2528
(lp2529
(I1078477
I1078992
g44
S'CDS'
p2530
S'AP53_1093'
p2531
tp2532
asS'AP53_1092'
p2533
(lp2534
(I1078107
I1078235
g3
S'CDS'
p2535
S'AP53_1092'
p2536
tp2537
asS'AP53_1091'
p2538
(lp2539
(I1076737
I1078050
g3
S'CDS'
p2540
S'AP53_1091'
p2541
tp2542
asS'AP53_1090'
p2543
(lp2544
(I1076510
I1076668
g3
S'CDS'
p2545
S'AP53_1090'
p2546
tp2547
asS'AP53_1097'
p2548
(lp2549
(I1081184
I1082494
g44
S'CDS'
p2550
S'AP53_1097'
p2551
tp2552
asS'AP53_1096'
p2553
(lp2554
(I1080088
I1080960
g3
S'CDS'
p2555
S'AP53_1096'
p2556
tp2557
asS'AP53_1095'
p2558
(lp2559
(I1079336
I1079788
g44
S'CDS'
p2560
S'AP53_1095'
p2561
tp2562
asS'AP53_1094'
p2563
(lp2564
(I1079013
I1079330
g44
S'CDS'
p2565
S'AP53_1094'
p2566
tp2567
asS'AP53_1099'
p2568
(lp2569
(I1082898
I1083467
g44
S'CDS'
p2570
S'AP53_1099'
p2571
tp2572
asS'AP53_1098'
p2573
(lp2574
(I1082572
I1082865
g44
S'CDS'
p2575
S'AP53_1098'
p2576
tp2577
asS'AP53_1251'
p2578
(lp2579
(I1227217
I1227420
g3
S'CDS'
p2580
S'AP53_1251'
p2581
tp2582
asS'AP53_1250'
p2583
(lp2584
(I1226241
I1227212
g3
S'CDS'
p2585
S'AP53_1250'
p2586
tp2587
asS'AP53_1253'
p2588
(lp2589
(I1228317
I1228943
g44
S'CDS'
p2590
S'AP53_1253'
p2591
tp2592
asS'AP53_1252'
p2593
(lp2594
(I1227562
I1228089
g3
S'CDS'
p2595
S'AP53_1252'
p2596
tp2597
asS'AP53_1255'
p2598
(lp2599
(I1230108
I1230728
g3
S'CDS'
p2600
S'AP53_1255'
p2601
tp2602
asS'AP53_1254'
p2603
(lp2604
(I1229025
I1230104
g3
S'CDS'
p2605
S'AP53_1254'
p2606
tp2607
asS'AP53_1257'
p2608
(lp2609
(I1231176
I1232153
g3
S'CDS'
p2610
S'AP53_1257'
p2611
tp2612
asS'AP53_1256'
p2613
(lp2614
(I1231023
I1231142
g3
S'CDS'
p2615
S'AP53_1256'
p2616
tp2617
asS'AP53_1259'
p2618
(lp2619
(I1233582
I1234073
g3
S'CDS'
p2620
S'AP53_1259'
p2621
tp2622
asS'AP53_1258'
p2623
(lp2624
(I1232558
I1233595
g3
S'CDS'
p2625
S'AP53_1258'
p2626
tp2627
asS'AP53_1709'
p2628
(lp2629
(I1705186
I1706382
g3
S'CDS'
p2630
S'AP53_1709'
p2631
tp2632
asS'AP53_1708'
p2633
(lp2634
(I1704879
I1705097
g3
S'CDS'
p2635
S'AP53_1708'
p2636
tp2637
asS'AP53_1079'
p2638
(lp2639
(I1065096
I1067270
g44
S'CDS'
p2640
S'AP53_1079'
p2641
tp2642
asS'AP53_1078'
p2643
(lp2644
(I1062912
I1064903
g3
S'CDS'
p2645
S'AP53_1078'
p2646
tp2647
asS'AP53_1071'
p2648
(lp2649
(I1057001
I1057123
g44
S'CDS'
p2650
S'AP53_1071'
p2651
tp2652
asS'AP53_1070'
p2653
(lp2654
(I1056141
I1056674
g44
S'CDS'
p2655
S'AP53_1070'
p2656
tp2657
asS'AP53_1073'
p2658
(lp2659
(I1058202
I1059452
g3
S'CDS'
p2660
S'AP53_1073'
p2661
tp2662
asS'AP53_1072'
p2663
(lp2664
(I1057188
I1058171
g3
S'CDS'
p2665
S'AP53_1072'
p2666
tp2667
asS'AP53_1075'
p2668
(lp2669
(I1059702
I1060958
g3
S'CDS'
p2670
S'AP53_1075'
p2671
tp2672
asS'AP53_1074'
p2673
(lp2674
(I1059445
I1059684
g3
S'CDS'
p2675
S'AP53_1074'
p2676
tp2677
asS'AP53_1077'
p2678
(lp2679
(I1062505
I1062648
g3
S'CDS'
p2680
S'AP53_1077'
p2681
tp2682
asS'AP53_1076'
p2683
(lp2684
(I1060955
I1062493
g3
S'CDS'
p2685
S'AP53_1076'
p2686
tp2687
asS'AP53_657'
p2688
(lp2689
(I651559
I652254
g44
S'CDS'
p2690
S'AP53_657'
p2691
tp2692
asS'AP53_1679'
p2693
(lp2694
(I1670402
I1671670
g44
S'CDS'
p2695
S'AP53_1679'
p2696
tp2697
asS'AP53_1678'
p2698
(lp2699
(I1669803
I1670369
g44
S'CDS'
p2700
S'AP53_1678'
p2701
tp2702
asS'AP53_1673'
p2703
(lp2704
(I1663439
I1664188
g3
S'CDS'
p2705
S'AP53_1673'
p2706
tp2707
asS'AP53_1672'
p2708
(lp2709
(I1660895
I1663081
g3
S'CDS'
p2710
S'AP53_1672'
p2711
tp2712
asS'AP53_1671'
p2713
(lp2714
(I1659994
I1660812
g3
S'CDS'
p2715
S'AP53_1671'
p2716
tp2717
asS'AP53_1670'
p2718
(lp2719
(I1659750
I1659863
g3
S'CDS'
p2720
S'AP53_1670'
p2721
tp2722
asS'AP53_1677'
p2723
(lp2724
(I1668013
I1669770
g44
S'CDS'
p2725
S'AP53_1677'
p2726
tp2727
asS'AP53_655'
p2728
(lp2729
(I648271
I649467
g44
S'CDS'
p2730
S'AP53_655'
p2731
tp2732
asS'AP53_1675'
p2733
(lp2734
(I1665212
I1665682
g3
S'CDS'
p2735
S'AP53_1675'
p2736
tp2737
asS'AP53_1674'
p2738
(lp2739
(I1664188
I1665141
g3
S'CDS'
p2740
S'AP53_1674'
p2741
tp2742
asS'AP53_654'
p2743
(lp2744
(I647220
I647960
g44
S'CDS'
p2745
S'AP53_654'
p2746
tp2747
asS'AP53_1423'
p2748
(lp2749
(I1399744
I1400445
g3
S'CDS'
p2750
S'AP53_1423'
p2751
tp2752
asS'AP53_653'
p2753
(lp2754
(I646817
I647209
g44
S'CDS'
p2755
S'AP53_653'
p2756
tp2757
asS'AP53_1420'
p2758
(lp2759
(I1396030
I1396674
g3
S'CDS'
p2760
S'AP53_1420'
p2761
tp2762
asS'AP53_652'
p2763
(lp2764
(I646463
I646813
g44
S'CDS'
p2765
S'AP53_652'
p2766
tp2767
asS'AP53_1421'
p2768
(lp2769
(I1396800
I1398299
g3
S'CDS'
p2770
S'AP53_1421'
p2771
tp2772
asS'AP53_651'
p2773
(lp2774
(I645899
I646174
g3
S'CDS'
p2775
S'AP53_651'
p2776
tp2777
asS'AP53_1426'
p2778
(lp2779
(I1403899
I1404042
g3
S'CDS'
p2780
S'AP53_1426'
p2781
tp2782
asS'AP53_650'
p2783
(lp2784
(I645652
I645864
g3
S'CDS'
p2785
S'AP53_650'
p2786
tp2787
asS'AP53_1427'
p2788
(lp2789
(I1404187
I1404531
g3
S'CDS'
p2790
S'AP53_1427'
p2791
tp2792
asS'AP53_1424'
p2793
(lp2794
(I1400447
I1402285
g3
S'CDS'
p2795
S'AP53_1424'
p2796
tp2797
asS'AP53_1425'
p2798
(lp2799
(I1402325
I1403827
g3
S'CDS'
p2800
S'AP53_1425'
p2801
tp2802
asS'AP53_1835'
p2803
(lp2804
(I1825975
I1827873
g3
S'CDS'
p2805
S'AP53_1835'
p2806
tp2807
asS'AP53_1834'
p2808
(lp2809
(I1823909
I1825885
g3
S'CDS'
p2810
S'AP53_1834'
p2811
tp2812
asS'AP53_1837'
p2813
(lp2814
(I1829090
I1830211
g3
S'CDS'
p2815
S'AP53_1837'
p2816
tp2817
asS'AP53_1836'
p2818
(lp2819
(I1827997
I1828314
g3
S'CDS'
p2820
S'AP53_1836'
p2821
tp2822
asS'AP53_1831'
p2823
(lp2824
(I1821774
I1822046
g3
S'CDS'
p2825
S'AP53_1831'
p2826
tp2827
asS'AP53_1830'
p2828
(lp2829
(I1820009
I1821142
g3
S'CDS'
p2830
S'AP53_1830'
p2831
tp2832
asS'AP53_118'
p2833
(lp2834
(I133673
I134692
g44
S'CDS'
p2835
S'AP53_118'
p2836
tp2837
asS'AP53_119'
p2838
(lp2839
(I135146
I135466
g44
S'CDS'
p2840
S'AP53_119'
p2841
tp2842
asS'AP53_114'
p2843
(lp2844
(I130985
I131644
g44
S'CDS'
p2845
S'AP53_114'
p2846
tp2847
asS'AP53_115'
p2848
(lp2849
(I131647
I132294
g44
S'CDS'
p2850
S'AP53_115'
p2851
tp2852
asS'AP53_116'
p2853
(lp2854
(I132417
I133097
g3
S'CDS'
p2855
S'AP53_116'
p2856
tp2857
asS'AP53_117'
p2858
(lp2859
(I133271
I133636
g44
S'CDS'
p2860
S'AP53_117'
p2861
tp2862
asS'AP53_110'
p2863
(lp2864
(I126356
I126913
g3
S'CDS'
p2865
S'AP53_110'
p2866
tp2867
asS'AP53_111'
p2868
(lp2869
(I127281
I128687
g44
S'CDS'
p2870
S'AP53_111'
p2871
tp2872
asS'AP53_112'
p2873
(lp2874
(I128757
I129668
g3
S'CDS'
p2875
S'AP53_112'
p2876
tp2877
asS'AP53_113'
p2878
(lp2879
(I129789
I130973
g44
S'CDS'
p2880
S'AP53_113'
p2881
tp2882
asS'AP53_752'
p2883
(lp2884
(I745982
I746632
g44
S'CDS'
p2885
S'AP53_752'
p2886
tp2887
asS'AP53_753'
p2888
(lp2889
(I746762
I747415
g44
S'CDS'
p2890
S'AP53_753'
p2891
tp2892
asS'AP53_750'
p2893
(lp2894
(I743518
I744972
g44
S'CDS'
p2895
S'AP53_750'
p2896
tp2897
asS'AP53_751'
p2898
(lp2899
(I745090
I745953
g44
S'CDS'
p2900
S'AP53_751'
p2901
tp2902
asS'AP53_756'
p2903
(lp2904
(I749649
I751598
g44
S'CDS'
p2905
S'AP53_756'
p2906
tp2907
asS'AP53_757'
p2908
(lp2909
(I751689
I754148
g44
S'CDS'
p2910
S'AP53_757'
p2911
tp2912
asS'AP53_754'
p2913
(lp2914
(I747547
I748815
g44
S'CDS'
p2915
S'AP53_754'
p2916
tp2917
asS'AP53_755'
p2918
(lp2919
(I748873
I749514
g3
S'CDS'
p2920
S'AP53_755'
p2921
tp2922
asS'AP53_758'
p2923
(lp2924
(I754268
I755293
g44
S'CDS'
p2925
S'AP53_758'
p2926
tp2927
asS'AP53_759'
p2928
(lp2929
(I755357
I755587
g44
S'CDS'
p2930
S'AP53_759'
p2931
tp2932
asS'AP53_1854'
p2933
(lp2934
(I1846004
I1846867
g3
S'CDS'
p2935
S'AP53_1854'
p2936
tp2937
asS'AP53_626'
p2938
(lp2939
(I633926
I634099
g3
S'CDS'
p2940
S'AP53_626'
p2941
tp2942
asS'AP53_627'
p2943
(lp2944
(I634187
I634480
g3
S'CDS'
p2945
S'AP53_627'
p2946
tp2947
asS'AP53_336'
p2948
(lp2949
(I354651
I355403
g3
S'CDS'
p2950
S'AP53_336'
p2951
tp2952
asS'AP53_625'
p2953
(lp2954
(I633514
I633900
g3
S'CDS'
p2955
S'AP53_625'
p2956
tp2957
asS'AP53_330'
p2958
(lp2959
(I348306
I350303
g44
S'CDS'
p2960
S'AP53_330'
p2961
tp2962
asS'AP53_623'
p2963
(lp2964
(I632758
I633075
g3
S'CDS'
p2965
S'AP53_623'
p2966
tp2967
asS'AP53_620'
p2968
(lp2969
(I628673
I629479
g3
S'CDS'
p2970
S'AP53_620'
p2971
tp2972
asS'AP53_621'
p2973
(lp2974
(I629460
I630647
g3
S'CDS'
p2975
S'AP53_621'
p2976
tp2977
asS'AP53_338'
p2978
(lp2979
(I357177
I357770
g44
S'CDS'
p2980
S'AP53_338'
p2981
tp2982
asS'AP53_339'
p2983
(lp2984
(I358154
I358798
g3
S'CDS'
p2985
S'AP53_339'
p2986
tp2987
asS'AP53_628'
p2988
(lp2989
(I634634
I635209
g3
S'CDS'
p2990
S'AP53_628'
p2991
tp2992
asS'AP53_629'
p2993
(lp2994
(I635369
I635770
g3
S'CDS'
p2995
S'AP53_629'
p2996
tp2997
asS'AP53_808'
p2998
(lp2999
(I807522
I808286
g44
S'CDS'
p3000
S'AP53_808'
p3001
tp3002
asS'AP53_809'
p3003
(lp3004
(I808286
I808918
g44
S'CDS'
p3005
S'AP53_809'
p3006
tp3007
asS'AP53_806'
p3008
(lp3009
(I805630
I806760
g44
S'CDS'
p3010
S'AP53_806'
p3011
tp3012
asS'AP53_807'
p3013
(lp3014
(I806770
I807522
g44
S'CDS'
p3015
S'AP53_807'
p3016
tp3017
asS'AP53_804'
p3018
(lp3019
(I803447
I804802
g44
S'CDS'
p3020
S'AP53_804'
p3021
tp3022
asS'AP53_805'
p3023
(lp3024
(I804926
I805567
g44
S'CDS'
p3025
S'AP53_805'
p3026
tp3027
asS'AP53_802'
p3028
(lp3029
(I801589
I802440
g44
S'CDS'
p3030
S'AP53_802'
p3031
tp3032
asS'AP53_803'
p3033
(lp3034
(I802437
I803393
g44
S'CDS'
p3035
S'AP53_803'
p3036
tp3037
asS'AP53_800'
p3038
(lp3039
(I799348
I800139
g3
S'CDS'
p3040
S'AP53_800'
p3041
tp3042
asS'AP53_801'
p3043
(lp3044
(I800139
I801482
g3
S'CDS'
p3045
S'AP53_801'
p3046
tp3047
asS'AP53_157'
p3048
(lp3049
(I178005
I178187
g44
S'CDS'
p3050
S'AP53_157'
p3051
tp3052
asS'AP53_248'
p3053
(lp3054
(I272643
I272951
g44
S'CDS'
p3055
S'AP53_248'
p3056
tp3057
asS'AP53_249'
p3058
(lp3059
(I273020
I273652
g44
S'CDS'
p3060
S'AP53_249'
p3061
tp3062
asS'AP53_938'
p3063
(lp3064
(I940190
I940972
g3
S'CDS'
p3065
S'AP53_938'
p3066
tp3067
asS'AP53_939'
p3068
(lp3069
(I940995
I941327
g3
S'CDS'
p3070
S'AP53_939'
p3071
tp3072
asS'AP53_932'
p3073
(lp3074
(I932374
I933642
g44
S'CDS'
p3075
S'AP53_932'
p3076
tp3077
asS'AP53_933'
p3078
(lp3079
(I934113
I934451
g3
S'CDS'
p3080
S'AP53_933'
p3081
tp3082
asS'AP53_242'
p3083
(lp3084
(I261356
I262279
g44
S'CDS'
p3085
S'AP53_242'
p3086
tp3087
asS'AP53_243'
p3088
(lp3089
(I262427
I262606
g3
S'CDS'
p3090
S'AP53_243'
p3091
tp3092
asS'AP53_244'
p3093
(lp3094
(I268788
I269066
g44
S'CDS'
p3095
S'AP53_244'
p3096
tp3097
asS'AP53_245'
p3098
(lp3099
(I269677
I270810
g44
S'CDS'
p3100
S'AP53_245'
p3101
tp3102
asS'AP53_246'
p3103
(lp3104
(I270916
I271500
g44
S'CDS'
p3105
S'AP53_246'
p3106
tp3107
asS'AP53_247'
p3108
(lp3109
(I271500
I272618
g44
S'CDS'
p3110
S'AP53_247'
p3111
tp3112
asS'AP53_85'
p3113
(lp3114
(I104067
I104393
g44
S'CDS'
p3115
S'AP53_85'
p3116
tp3117
asS'AP53_84'
p3118
(lp3119
(I103079
I104065
g44
S'CDS'
p3120
S'AP53_84'
p3121
tp3122
asS'AP53_87'
p3123
(lp3124
(I104801
I105037
g44
S'CDS'
p3125
S'AP53_87'
p3126
tp3127
asS'AP53_86'
p3128
(lp3129
(I104449
I104796
g44
S'CDS'
p3130
S'AP53_86'
p3131
tp3132
asS'AP53_81'
p3133
(lp3134
(I97951
I101547
g44
S'CDS'
p3135
S'AP53_81'
p3136
tp3137
asS'AP53_80'
p3138
(lp3139
(I94267
I97833
g44
S'CDS'
p3140
S'AP53_80'
p3141
tp3142
asS'AP53_83'
p3143
(lp3144
(I102157
I103095
g44
S'CDS'
p3145
S'AP53_83'
p3146
tp3147
asS'AP53_82'
p3148
(lp3149
(I101699
I102064
g44
S'CDS'
p3150
S'AP53_82'
p3151
tp3152
asS'AP53_89'
p3153
(lp3154
(I105484
I105774
g44
S'CDS'
p3155
S'AP53_89'
p3156
tp3157
asS'AP53_88'
p3158
(lp3159
(I105030
I105464
g44
S'CDS'
p3160
S'AP53_88'
p3161
tp3162
asS'AP53_1084'
p3163
(lp3164
(I1070310
I1070645
g3
S'CDS'
p3165
S'AP53_1084'
p3166
tp3167
asS'AP53_1085'
p3168
(lp3169
(I1070648
I1070959
g3
S'CDS'
p3170
S'AP53_1085'
p3171
tp3172
asS'AP53_1086'
p3173
(lp3174
(I1070982
I1072976
g3
S'CDS'
p3175
S'AP53_1086'
p3176
tp3177
asS'AP53_1087'
p3178
(lp3179
(I1073082
I1074176
g3
S'CDS'
p3180
S'AP53_1087'
p3181
tp3182
asS'AP53_1080'
p3183
(lp3184
(I1067270
I1068010
g44
S'CDS'
p3185
S'AP53_1080'
p3186
tp3187
asS'AP53_1081'
p3188
(lp3189
(I1068158
I1068310
g3
S'CDS'
p3190
S'AP53_1081'
p3191
tp3192
asS'AP53_1082'
p3193
(lp3194
(I1068307
I1069686
g3
S'CDS'
p3195
S'AP53_1082'
p3196
tp3197
asS'AP53_1083'
p3198
(lp3199
(I1069864
I1070313
g3
S'CDS'
p3200
S'AP53_1083'
p3201
tp3202
asS'AP53_1088'
p3203
(lp3204
(I1074185
I1075585
g3
S'CDS'
p3205
S'AP53_1088'
p3206
tp3207
asS'AP53_1089'
p3208
(lp3209
(I1075810
I1076505
g44
S'CDS'
p3210
S'AP53_1089'
p3211
tp3212
asS'AP53_1242'
p3213
(lp3214
(I1216582
I1217901
g3
S'CDS'
p3215
S'AP53_1242'
p3216
tp3217
asS'AP53_1243'
p3218
(lp3219
(I1217925
I1219289
g3
S'CDS'
p3220
S'AP53_1243'
p3221
tp3222
asS'AP53_1240'
p3223
(lp3224
(I1215240
I1215896
g3
S'CDS'
p3225
S'AP53_1240'
p3226
tp3227
asS'AP53_1241'
p3228
(lp3229
(I1215908
I1216579
g3
S'CDS'
p3230
S'AP53_1241'
p3231
tp3232
asS'AP53_1246'
p3233
(lp3234
(I1221731
I1223089
g3
S'CDS'
p3235
S'AP53_1246'
p3236
tp3237
asS'AP53_1247'
p3238
(lp3239
(I1223445
I1223696
g3
S'CDS'
p3240
S'AP53_1247'
p3241
tp3242
asS'AP53_1244'
p3243
(lp3244
(I1219500
I1220648
g3
S'CDS'
p3245
S'AP53_1244'
p3246
tp3247
asS'AP53_1245'
p3248
(lp3249
(I1220649
I1221731
g3
S'CDS'
p3250
S'AP53_1245'
p3251
tp3252
asS'AP53_1248'
p3253
(lp3254
(I1223818
I1225659
g3
S'CDS'
p3255
S'AP53_1248'
p3256
tp3257
asS'AP53_1249'
p3258
(lp3259
(I1225842
I1226231
g3
S'CDS'
p3260
S'AP53_1249'
p3261
tp3262
asS'AP53_1718'
p3263
(lp3264
(I1712002
I1714419
g3
S'CDS'
p3265
S'AP53_1718'
p3266
tp3267
asS'AP53_1719'
p3268
(lp3269
(I1714630
I1715934
g3
S'CDS'
p3270
S'AP53_1719'
p3271
tp3272
asS'AP53_1068'
p3273
(lp3274
(I1054877
I1055713
g44
S'CDS'
p3275
S'AP53_1068'
p3276
tp3277
asS'AP53_1069'
p3278
(lp3279
(I1055894
I1056163
g44
S'CDS'
p3280
S'AP53_1069'
p3281
tp3282
asS'AP53_1062'
p3283
(lp3284
(I1045948
I1046568
g44
S'CDS'
p3285
S'AP53_1062'
p3286
tp3287
asS'AP53_1063'
p3288
(lp3289
(I1046825
I1049089
g3
S'CDS'
p3290
S'AP53_1063'
p3291
tp3292
asS'AP53_1060'
p3293
(lp3294
(I1044189
I1044377
g44
S'CDS'
p3295
S'AP53_1060'
p3296
tp3297
asS'AP53_1061'
p3298
(lp3299
(I1044497
I1045585
g44
S'CDS'
p3300
S'AP53_1061'
p3301
tp3302
asS'AP53_1066'
p3303
(lp3304
(I1051995
I1053242
g44
S'CDS'
p3305
S'AP53_1066'
p3306
tp3307
asS'AP53_1067'
p3308
(lp3309
(I1053516
I1054877
g44
S'CDS'
p3310
S'AP53_1067'
p3311
tp3312
asS'AP53_1064'
p3313
(lp3314
(I1049124
I1050617
g3
S'CDS'
p3315
S'AP53_1064'
p3316
tp3317
asS'AP53_1065'
p3318
(lp3319
(I1050732
I1051751
g3
S'CDS'
p3320
S'AP53_1065'
p3321
tp3322
asS'AP53_1408'
p3323
(lp3324
(I1382258
I1383601
g3
S'CDS'
p3325
S'AP53_1408'
p3326
tp3327
asS'AP53_1409'
p3328
(lp3329
(I1383759
I1384769
g3
S'CDS'
p3330
S'AP53_1409'
p3331
tp3332
asS'AP53_1400'
p3333
(lp3334
(I1375209
I1376033
g3
S'CDS'
p3335
S'AP53_1400'
p3336
tp3337
asS'AP53_1401'
p3338
(lp3339
(I1376030
I1377490
g3
S'CDS'
p3340
S'AP53_1401'
p3341
tp3342
asS'AP53_1402'
p3343
(lp3344
(I1377660
I1379039
g3
S'CDS'
p3345
S'AP53_1402'
p3346
tp3347
asS'AP53_1403'
p3348
(lp3349
(I1379208
I1380125
g3
S'CDS'
p3350
S'AP53_1403'
p3351
tp3352
asS'AP53_1404'
p3353
(lp3354
(I1380189
I1380413
g3
S'CDS'
p3355
S'AP53_1404'
p3356
tp3357
asS'AP53_1405'
p3358
(lp3359
(I1380517
I1381260
g3
S'CDS'
p3360
S'AP53_1405'
p3361
tp3362
asS'AP53_1406'
p3363
(lp3364
(I1381260
I1382063
g3
S'CDS'
p3365
S'AP53_1406'
p3366
tp3367
asS'AP53_1407'
p3368
(lp3369
(I1383600
I1383749
g44
S'CDS'
p3370
S'AP53_1407'
p3371
tp3372
asS'AP53_1668'
p3373
(lp3374
(I1657528
I1658739
g3
S'CDS'
p3375
S'AP53_1668'
p3376
tp3377
asS'AP53_1669'
p3378
(lp3379
(I1659119
I1659601
g44
S'CDS'
p3380
S'AP53_1669'
p3381
tp3382
asS'AP53_1664'
p3383
(lp3384
(I1651991
I1652839
g3
S'CDS'
p3385
S'AP53_1664'
p3386
tp3387
asS'AP53_1665'
p3388
(lp3389
(I1653179
I1654501
g44
S'CDS'
p3390
S'AP53_1665'
p3391
tp3392
asS'AP53_1666'
p3393
(lp3394
(I1654599
I1655042
g3
S'CDS'
p3395
S'AP53_1666'
p3396
tp3397
asS'AP53_1667'
p3398
(lp3399
(I1655057
I1657276
g3
S'CDS'
p3400
S'AP53_1667'
p3401
tp3402
asS'AP53_1660'
p3403
(lp3404
(I1644634
I1644981
g3
S'CDS'
p3405
S'AP53_1660'
p3406
tp3407
asS'AP53_1661'
p3408
(lp3409
(I1645123
I1648620
g3
S'CDS'
p3410
S'AP53_1661'
p3411
tp3412
asS'AP53_1662'
p3413
(lp3414
(I1648818
I1650431
g3
S'CDS'
p3415
S'AP53_1662'
p3416
tp3417
asS'AP53_1663'
p3418
(lp3419
(I1650560
I1651693
g3
S'CDS'
p3420
S'AP53_1663'
p3421
tp3422
asS'AP53_1858'
p3423
(lp3424
(I1850300
I1851172
g44
S'CDS'
p3425
S'AP53_1858'
p3426
tp3427
asS'AP53_109'
p3428
(lp3429
(I123889
I126090
g44
S'CDS'
p3430
S'AP53_109'
p3431
tp3432
asS'AP53_108'
p3433
(lp3434
(I122299
I123504
g3
S'CDS'
p3435
S'AP53_108'
p3436
tp3437
asS'AP53_107'
p3438
(lp3439
(I121551
I122138
g44
S'CDS'
p3440
S'AP53_107'
p3441
tp3442
asS'AP53_106'
p3443
(lp3444
(I120809
I121534
g44
S'CDS'
p3445
S'AP53_106'
p3446
tp3447
asS'AP53_105'
p3448
(lp3449
(I119765
I120793
g44
S'CDS'
p3450
S'AP53_105'
p3451
tp3452
asS'AP53_104'
p3453
(lp3454
(I119345
I119743
g44
S'CDS'
p3455
S'AP53_104'
p3456
tp3457
asS'AP53_103'
p3458
(lp3459
(I117646
I119229
g44
S'CDS'
p3460
S'AP53_103'
p3461
tp3462
asS'AP53_102'
p3463
(lp3464
(I115680
I117215
g3
S'CDS'
p3465
S'AP53_102'
p3466
tp3467
asS'AP53_101'
p3468
(lp3469
(I114682
I115554
g3
S'CDS'
p3470
S'AP53_101'
p3471
tp3472
asS'AP53_100'
p3473
(lp3474
(I113718
I114695
g3
S'CDS'
p3475
S'AP53_100'
p3476
tp3477
asS'AP53_1545'
p3478
(lp3479
(I1527408
I1527698
g3
S'CDS'
p3480
S'AP53_1545'
p3481
tp3482
asS'AP53_1544'
p3483
(lp3484
(I1526895
I1527386
g3
S'CDS'
p3485
S'AP53_1544'
p3486
tp3487
asS'AP53_1547'
p3488
(lp3489
(I1528332
I1529486
g44
S'CDS'
p3490
S'AP53_1547'
p3491
tp3492
asS'AP53_745'
p3493
(lp3494
(I739902
I740039
g44
S'CDS'
p3495
S'AP53_745'
p3496
tp3497
asS'AP53_744'
p3498
(lp3499
(I739135
I739923
g44
S'CDS'
p3500
S'AP53_744'
p3501
tp3502
asS'AP53_747'
p3503
(lp3504
(I741129
I741665
g44
S'CDS'
p3505
S'AP53_747'
p3506
tp3507
asS'AP53_746'
p3508
(lp3509
(I740002
I740907
g3
S'CDS'
p3510
S'AP53_746'
p3511
tp3512
asS'AP53_741'
p3513
(lp3514
(I736533
I736973
g44
S'CDS'
p3515
S'AP53_741'
p3516
tp3517
asS'AP53_740'
p3518
(lp3519
(I735303
I736514
g44
S'CDS'
p3520
S'AP53_740'
p3521
tp3522
asS'AP53_743'
p3523
(lp3524
(I738429
I739142
g44
S'CDS'
p3525
S'AP53_743'
p3526
tp3527
asS'AP53_742'
p3528
(lp3529
(I736957
I737766
g44
S'CDS'
p3530
S'AP53_742'
p3531
tp3532
asS'AP53_1541'
p3533
(lp3534
(I1524625
I1525569
g44
S'CDS'
p3535
S'AP53_1541'
p3536
tp3537
asS'AP53_749'
p3538
(lp3539
(I742692
I743321
g44
S'CDS'
p3540
S'AP53_749'
p3541
tp3542
asS'AP53_748'
p3543
(lp3544
(I741942
I742634
g44
S'CDS'
p3545
S'AP53_748'
p3546
tp3547
asS'AP53_1540'
p3548
(lp3549
(I1521594
I1524452
g3
S'CDS'
p3550
S'AP53_1540'
p3551
tp3552
asS'AP53_1543'
p3553
(lp3554
(I1526491
I1526730
g3
S'CDS'
p3555
S'AP53_1543'
p3556
tp3557
asS'AP53_1542'
p3558
(lp3559
(I1525702
I1526358
g44
S'CDS'
p3560
S'AP53_1542'
p3561
tp3562
asS'AP53_639'
p3563
(lp3564
(I639410
I639853
g3
S'CDS'
p3565
S'AP53_639'
p3566
tp3567
asS'AP53_638'
p3568
(lp3569
(I639243
I639413
g3
S'CDS'
p3570
S'AP53_638'
p3571
tp3572
asS'AP53_631'
p3573
(lp3574
(I636615
I636953
g3
S'CDS'
p3575
S'AP53_631'
p3576
tp3577
asS'AP53_630'
p3578
(lp3579
(I635785
I636612
g3
S'CDS'
p3580
S'AP53_630'
p3581
tp3582
asS'AP53_633'
p3583
(lp3584
(I637246
I637638
g3
S'CDS'
p3585
S'AP53_633'
p3586
tp3587
asS'AP53_632'
p3588
(lp3589
(I636950
I637231
g3
S'CDS'
p3590
S'AP53_632'
p3591
tp3592
asS'AP53_635'
p3593
(lp3594
(I637853
I638338
g3
S'CDS'
p3595
S'AP53_635'
p3596
tp3597
asS'AP53_634'
p3598
(lp3599
(I637635
I637856
g3
S'CDS'
p3600
S'AP53_634'
p3601
tp3602
asS'AP53_637'
p3603
(lp3604
(I638977
I639246
g3
S'CDS'
p3605
S'AP53_637'
p3606
tp3607
asS'AP53_636'
p3608
(lp3609
(I638343
I638975
g3
S'CDS'
p3610
S'AP53_636'
p3611
tp3612
asS'AP53_327'
p3613
(lp3614
(I346906
I347028
g3
S'CDS'
p3615
S'AP53_327'
p3616
tp3617
asS'AP53_326'
p3618
(lp3619
(I341711
I346579
g44
S'CDS'
p3620
S'AP53_326'
p3621
tp3622
asS'AP53_325'
p3623
(lp3624
(I341542
I341661
g44
S'CDS'
p3625
S'AP53_325'
p3626
tp3627
asS'AP53_324'
p3628
(lp3629
(I340187
I341368
g44
S'CDS'
p3630
S'AP53_324'
p3631
tp3632
asS'AP53_323'
p3633
(lp3634
(I339126
I339953
g3
S'CDS'
p3635
S'AP53_323'
p3636
tp3637
asS'AP53_322'
p3638
(lp3639
(I339931
I340098
g44
S'CDS'
p3640
S'AP53_322'
p3641
tp3642
asS'AP53_321'
p3643
(lp3644
(I338696
I339052
g44
S'CDS'
p3645
S'AP53_321'
p3646
tp3647
asS'AP53_320'
p3648
(lp3649
(I337769
I338398
g3
S'CDS'
p3650
S'AP53_320'
p3651
tp3652
asS'AP53_329'
p3653
(lp3654
(I347332
I348063
g44
S'CDS'
p3655
S'AP53_329'
p3656
tp3657
asS'AP53_328'
p3658
(lp3659
(I347090
I347254
g44
S'CDS'
p3660
S'AP53_328'
p3661
tp3662
asS'AP53_811'
p3663
(lp3664
(I809929
I810978
g44
S'CDS'
p3665
S'AP53_811'
p3666
tp3667
asS'AP53_810'
p3668
(lp3669
(I809218
I809742
g44
S'CDS'
p3670
S'AP53_810'
p3671
tp3672
asS'AP53_813'
p3673
(lp3674
(I811948
I812094
g44
S'CDS'
p3675
S'AP53_813'
p3676
tp3677
asS'AP53_812'
p3678
(lp3679
(I811687
I811884
g44
S'CDS'
p3680
S'AP53_812'
p3681
tp3682
asS'AP53_815'
p3683
(lp3684
(I813544
I815376
g44
S'CDS'
p3685
S'AP53_815'
p3686
tp3687
asS'AP53_814'
p3688
(lp3689
(I812242
I813375
g44
S'CDS'
p3690
S'AP53_814'
p3691
tp3692
asS'AP53_817'
p3693
(lp3694
(I817224
I817661
g44
S'CDS'
p3695
S'AP53_817'
p3696
tp3697
asS'AP53_816'
p3698
(lp3699
(I815563
I817038
g44
S'CDS'
p3700
S'AP53_816'
p3701
tp3702
asS'AP53_819'
p3703
(lp3704
(I819017
I819442
g44
S'CDS'
p3705
S'AP53_819'
p3706
tp3707
asS'AP53_818'
p3708
(lp3709
(I817791
I818810
g44
S'CDS'
p3710
S'AP53_818'
p3711
tp3712
asS'AP53_259'
p3713
(lp3714
(I282243
I283613
g3
S'CDS'
p3715
S'AP53_259'
p3716
tp3717
asS'AP53_258'
p3718
(lp3719
(I281497
I282189
g44
S'CDS'
p3720
S'AP53_258'
p3721
tp3722
asS'AP53_929'
p3723
(lp3724
(I929205
I930749
g3
S'CDS'
p3725
S'AP53_929'
p3726
tp3727
asS'AP53_928'
p3728
(lp3729
(I928034
I928840
g3
S'CDS'
p3730
S'AP53_928'
p3731
tp3732
asS'AP53_925'
p3733
(lp3734
(I924426
I925859
g3
S'CDS'
p3735
S'AP53_925'
p3736
tp3737
asS'AP53_924'
p3738
(lp3739
(I923645
I924343
g3
S'CDS'
p3740
S'AP53_924'
p3741
tp3742
asS'AP53_927'
p3743
(lp3744
(I927630
I927911
g3
S'CDS'
p3745
S'AP53_927'
p3746
tp3747
asS'AP53_926'
p3748
(lp3749
(I926026
I927588
g44
S'CDS'
p3750
S'AP53_926'
p3751
tp3752
asS'AP53_257'
p3753
(lp3754
(I280432
I281496
g44
S'CDS'
p3755
S'AP53_257'
p3756
tp3757
asS'AP53_256'
p3758
(lp3759
(I279337
I280182
g44
S'CDS'
p3760
S'AP53_256'
p3761
tp3762
asS'AP53_255'
p3763
(lp3764
(I278171
I279013
g44
S'CDS'
p3765
S'AP53_255'
p3766
tp3767
asS'AP53_254'
p3768
(lp3769
(I277252
I277968
g44
S'CDS'
p3770
S'AP53_254'
p3771
tp3772
asS'AP53_1285'
p3773
(lp3774
(I1260680
I1261432
g44
S'CDS'
p3775
S'AP53_1285'
p3776
tp3777
asS'AP53_92'
p3778
(lp3779
(I108274
I108576
g44
S'CDS'
p3780
S'AP53_92'
p3781
tp3782
asS'AP53_93'
p3783
(lp3784
(I108659
I109429
g3
S'CDS'
p3785
S'AP53_93'
p3786
tp3787
asS'AP53_90'
p3788
(lp3789
(I105872
I106825
g44
S'CDS'
p3790
S'AP53_90'
p3791
tp3792
asS'AP53_91'
p3793
(lp3794
(I106885
I108081
g44
S'CDS'
p3795
S'AP53_91'
p3796
tp3797
asS'AP53_96'
p3798
(lp3799
(I111290
I111607
g44
S'CDS'
p3800
S'AP53_96'
p3801
tp3802
asS'AP53_97'
p3803
(lp3804
(I111625
I112251
g44
S'CDS'
p3805
S'AP53_97'
p3806
tp3807
asS'AP53_94'
p3808
(lp3809
(I109477
I110544
g3
S'CDS'
p3810
S'AP53_94'
p3811
tp3812
asS'AP53_95'
p3813
(lp3814
(I111009
I111293
g44
S'CDS'
p3815
S'AP53_95'
p3816
tp3817
asS'AP53_98'
p3818
(lp3819
(I112402
I112797
g44
S'CDS'
p3820
S'AP53_98'
p3821
tp3822
asS'AP53_99'
p3823
(lp3824
(I113057
I113698
g3
S'CDS'
p3825
S'AP53_99'
p3826
tp3827
asS'AP53_1508'
p3828
(lp3829
(I1479929
I1481317
g3
S'CDS'
p3830
S'AP53_1508'
p3831
tp3832
asS'AP53_1445'
p3833
(lp3834
(I1420466
I1421914
g3
S'CDS'
p3835
S'AP53_1445'
p3836
tp3837
asS'AP53_1277'
p3838
(lp3839
(I1251719
I1252651
g3
S'CDS'
p3840
S'AP53_1277'
p3841
tp3842
asS'AP53_1276'
p3843
(lp3844
(I1250788
I1251498
g3
S'CDS'
p3845
S'AP53_1276'
p3846
tp3847
asS'AP53_1275'
p3848
(lp3849
(I1250152
I1250775
g3
S'CDS'
p3850
S'AP53_1275'
p3851
tp3852
asS'AP53_1274'
p3853
(lp3854
(I1249003
I1250109
g3
S'CDS'
p3855
S'AP53_1274'
p3856
tp3857
asS'AP53_1273'
p3858
(lp3859
(I1248175
I1248915
g3
S'CDS'
p3860
S'AP53_1273'
p3861
tp3862
asS'AP53_1272'
p3863
(lp3864
(I1246445
I1248178
g3
S'CDS'
p3865
S'AP53_1272'
p3866
tp3867
asS'AP53_1271'
p3868
(lp3869
(I1245293
I1246372
g3
S'CDS'
p3870
S'AP53_1271'
p3871
tp3872
asS'AP53_1270'
p3873
(lp3874
(I1244563
I1245279
g3
S'CDS'
p3875
S'AP53_1270'
p3876
tp3877
asS'AP53_1279'
p3878
(lp3879
(I1254712
I1255491
g44
S'CDS'
p3880
S'AP53_1279'
p3881
tp3882
asS'AP53_1278'
p3883
(lp3884
(I1252743
I1253702
g3
S'CDS'
p3885
S'AP53_1278'
p3886
tp3887
asS'AP53_1501'
p3888
(lp3889
(I1473587
I1473889
g3
S'CDS'
p3890
S'AP53_1501'
p3891
tp3892
asS'AP53_1500'
p3893
(lp3894
(I1472121
I1473587
g3
S'CDS'
p3895
S'AP53_1500'
p3896
tp3897
asS'AP53_1503'
p3898
(lp3899
(I1475446
I1475670
g3
S'CDS'
p3900
S'AP53_1503'
p3901
tp3902
asS'AP53_1502'
p3903
(lp3904
(I1474135
I1475268
g3
S'CDS'
p3905
S'AP53_1502'
p3906
tp3907
asS'AP53_1505'
p3908
(lp3909
(I1476909
I1477691
g3
S'CDS'
p3910
S'AP53_1505'
p3911
tp3912
asS'AP53_1504'
p3913
(lp3914
(I1476208
I1476762
g3
S'CDS'
p3915
S'AP53_1504'
p3916
tp3917
asS'AP53_1059'
p3918
(lp3919
(I1043274
I1044062
g44
S'CDS'
p3920
S'AP53_1059'
p3921
tp3922
asS'AP53_1058'
p3923
(lp3924
(I1042986
I1043153
g44
S'CDS'
p3925
S'AP53_1058'
p3926
tp3927
asS'AP53_1057'
p3928
(lp3929
(I1042769
I1042927
g3
S'CDS'
p3930
S'AP53_1057'
p3931
tp3932
asS'AP53_1056'
p3933
(lp3934
(I1042600
I1042734
g3
S'CDS'
p3935
S'AP53_1056'
p3936
tp3937
asS'AP53_1055'
p3938
(lp3939
(I1041959
I1042642
g44
S'CDS'
p3940
S'AP53_1055'
p3941
tp3942
asS'AP53_1054'
p3943
(lp3944
(I1041643
I1041861
g3
S'CDS'
p3945
S'AP53_1054'
p3946
tp3947
asS'AP53_1053'
p3948
(lp3949
(I1041364
I1041609
g3
S'CDS'
p3950
S'AP53_1053'
p3951
tp3952
asS'AP53_1052'
p3953
(lp3954
(I1040856
I1041197
g3
S'CDS'
p3955
S'AP53_1052'
p3956
tp3957
asS'AP53_1051'
p3958
(lp3959
(I1040677
I1040898
g44
S'CDS'
p3960
S'AP53_1051'
p3961
tp3962
asS'AP53_1050'
p3963
(lp3964
(I1040358
I1040534
g3
S'CDS'
p3965
S'AP53_1050'
p3966
tp3967
asS'AP53_1189'
p3968
(lp3969
(I1174672
I1175367
g3
S'CDS'
p3970
S'AP53_1189'
p3971
tp3972
asS'AP53_1188'
p3973
(lp3974
(I1172714
I1174675
g3
S'CDS'
p3975
S'AP53_1188'
p3976
tp3977
asS'AP53_1185'
p3978
(lp3979
(I1169369
I1169797
g3
S'CDS'
p3980
S'AP53_1185'
p3981
tp3982
asS'AP53_1184'
p3983
(lp3984
(I1168734
I1169366
g3
S'CDS'
p3985
S'AP53_1184'
p3986
tp3987
asS'AP53_1187'
p3988
(lp3989
(I1171602
I1172717
g3
S'CDS'
p3990
S'AP53_1187'
p3991
tp3992
asS'AP53_1186'
p3993
(lp3994
(I1169806
I1171587
g3
S'CDS'
p3995
S'AP53_1186'
p3996
tp3997
asS'AP53_1181'
p3998
(lp3999
(I1166890
I1168107
g3
S'CDS'
p4000
S'AP53_1181'
p4001
tp4002
asS'AP53_1180'
p4003
(lp4004
(I1166114
I1166821
g44
S'CDS'
p4005
S'AP53_1180'
p4006
tp4007
asS'AP53_1479'
p4008
(lp4009
(I1453242
I1454606
g3
S'CDS'
p4010
S'AP53_1479'
p4011
tp4012
asS'AP53_1478'
p4013
(lp4014
(I1452367
I1453233
g3
S'CDS'
p4015
S'AP53_1478'
p4016
tp4017
asS'AP53_1475'
p4018
(lp4019
(I1448563
I1449696
g44
S'CDS'
p4020
S'AP53_1475'
p4021
tp4022
asS'AP53_1474'
p4023
(lp4024
(I1448024
I1448383
g44
S'CDS'
p4025
S'AP53_1474'
p4026
tp4027
asS'AP53_1477'
p4028
(lp4029
(I1451600
I1452370
g3
S'CDS'
p4030
S'AP53_1477'
p4031
tp4032
asS'AP53_1476'
p4033
(lp4034
(I1450101
I1451378
g44
S'CDS'
p4035
S'AP53_1476'
p4036
tp4037
asS'AP53_1471'
p4038
(lp4039
(I1445092
I1446084
g44
S'CDS'
p4040
S'AP53_1471'
p4041
tp4042
asS'AP53_1470'
p4043
(lp4044
(I1443928
I1444740
g44
S'CDS'
p4045
S'AP53_1470'
p4046
tp4047
asS'AP53_1473'
p4048
(lp4049
(I1446999
I1447910
g44
S'CDS'
p4050
S'AP53_1473'
p4051
tp4052
asS'AP53_1472'
p4053
(lp4054
(I1446173
I1446982
g44
S'CDS'
p4055
S'AP53_1472'
p4056
tp4057
asS'AP53_1745'
p4058
(lp4059
(I1739361
I1741391
g44
S'CDS'
p4060
S'AP53_1745'
p4061
tp4062
asS'AP53_1691'
p4063
(lp4064
(I1683971
I1687465
g3
S'CDS'
p4065
S'AP53_1691'
p4066
tp4067
asS'AP53_1690'
p4068
(lp4069
(I1682723
I1683874
g3
S'CDS'
p4070
S'AP53_1690'
p4071
tp4072
asS'AP53_1693'
p4073
(lp4074
(I1689079
I1690362
g3
S'CDS'
p4075
S'AP53_1693'
p4076
tp4077
asS'AP53_1692'
p4078
(lp4079
(I1687800
I1688870
g3
S'CDS'
p4080
S'AP53_1692'
p4081
tp4082
asS'AP53_1697'
p4083
(lp4084
(I1694219
I1694470
g3
S'CDS'
p4085
S'AP53_1697'
p4086
tp4087
asS'AP53_1696'
p4088
(lp4089
(I1691942
I1693543
g3
S'CDS'
p4090
S'AP53_1696'
p4091
tp4092
asS'AP53_1699'
p4093
(lp4094
(I1696278
I1697666
g3
S'CDS'
p4095
S'AP53_1699'
p4096
tp4097
asS'AP53_1698'
p4098
(lp4099
(I1694548
I1696176
g3
S'CDS'
p4100
S'AP53_1698'
p4101
tp4102
asS'AP53_1741'
p4103
(lp4104
(I1734445
I1734648
g3
S'CDS'
p4105
S'AP53_1741'
p4106
tp4107
asS'AP53_132'
p4108
(lp4109
(I148313
I149356
g44
S'CDS'
p4110
S'AP53_132'
p4111
tp4112
asS'AP53_133'
p4113
(lp4114
(I149529
I150068
g44
S'CDS'
p4115
S'AP53_133'
p4116
tp4117
asS'AP53_130'
p4118
(lp4119
(I145378
I146256
g3
S'CDS'
p4120
S'AP53_130'
p4121
tp4122
asS'AP53_131'
p4123
(lp4124
(I146694
I147986
g44
S'CDS'
p4125
S'AP53_131'
p4126
tp4127
asS'AP53_136'
p4128
(lp4129
(I152333
I154057
g44
S'CDS'
p4130
S'AP53_136'
p4131
tp4132
asS'AP53_137'
p4133
(lp4134
(I154196
I154417
g3
S'CDS'
p4135
S'AP53_137'
p4136
tp4137
asS'AP53_134'
p4138
(lp4139
(I150474
I151829
g44
S'CDS'
p4140
S'AP53_134'
p4141
tp4142
asS'AP53_135'
p4143
(lp4144
(I151962
I152318
g44
S'CDS'
p4145
S'AP53_135'
p4146
tp4147
asS'AP53_1740'
p4148
(lp4149
(I1734369
I1734482
g3
S'CDS'
p4150
S'AP53_1740'
p4151
tp4152
asS'AP53_138'
p4153
(lp4154
(I154823
I154990
g3
S'CDS'
p4155
S'AP53_138'
p4156
tp4157
asS'AP53_139'
p4158
(lp4159
(I155651
I157039
g44
S'CDS'
p4160
S'AP53_139'
p4161
tp4162
asS'AP53_1527'
p4163
(lp4164
(I1504365
I1506884
g3
S'CDS'
p4165
S'AP53_1527'
p4166
tp4167
asS'AP53_1526'
p4168
(lp4169
(I1503893
I1504249
g3
S'CDS'
p4170
S'AP53_1526'
p4171
tp4172
asS'AP53_1525'
p4173
(lp4174
(I1502796
I1503896
g3
S'CDS'
p4175
S'AP53_1525'
p4176
tp4177
asS'AP53_1524'
p4178
(lp4179
(I1501198
I1502679
g3
S'CDS'
p4180
S'AP53_1524'
p4181
tp4182
asS'AP53_1523'
p4183
(lp4184
(I1501030
I1501146
g44
S'CDS'
p4185
S'AP53_1523'
p4186
tp4187
asS'AP53_1522'
p4188
(lp4189
(I1496882
I1500709
g3
S'CDS'
p4190
S'AP53_1522'
p4191
tp4192
asS'AP53_1521'
p4193
(lp4194
(I1495810
I1496637
g3
S'CDS'
p4195
S'AP53_1521'
p4196
tp4197
asS'AP53_1520'
p4198
(lp4199
(I1494942
I1495826
g3
S'CDS'
p4200
S'AP53_1520'
p4201
tp4202
asS'AP53_1716'
p4203
(lp4204
(I1710176
I1711264
g3
S'CDS'
p4205
S'AP53_1716'
p4206
tp4207
asS'AP53_798'
p4208
(lp4209
(I795600
I798017
g3
S'CDS'
p4210
S'AP53_798'
p4211
tp4212
asS'AP53_799'
p4213
(lp4214
(I798250
I799239
g44
S'CDS'
p4215
S'AP53_799'
p4216
tp4217
asS'AP53_796'
p4218
(lp4219
(I791427
I792836
g44
S'CDS'
p4220
S'AP53_796'
p4221
tp4222
asS'AP53_797'
p4223
(lp4224
(I793163
I794926
g44
S'CDS'
p4225
S'AP53_797'
p4226
tp4227
asS'AP53_794'
p4228
(lp4229
(I789217
I790185
g44
S'CDS'
p4230
S'AP53_794'
p4231
tp4232
asS'AP53_795'
p4233
(lp4234
(I790241
I791242
g44
S'CDS'
p4235
S'AP53_795'
p4236
tp4237
asS'AP53_792'
p4238
(lp4239
(I786653
I786979
g44
S'CDS'
p4240
S'AP53_792'
p4241
tp4242
asS'AP53_793'
p4243
(lp4244
(I787025
I788932
g44
S'CDS'
p4245
S'AP53_793'
p4246
tp4247
asS'AP53_790'
p4248
(lp4249
(I784044
I785705
g44
S'CDS'
p4250
S'AP53_790'
p4251
tp4252
asS'AP53_791'
p4253
(lp4254
(I785838
I786623
g44
S'CDS'
p4255
S'AP53_791'
p4256
tp4257
asS'AP53_318'
p4258
(lp4259
(I336440
I337303
g44
S'CDS'
p4260
S'AP53_318'
p4261
tp4262
asS'AP53_319'
p4263
(lp4264
(I337330
I337722
g44
S'CDS'
p4265
S'AP53_319'
p4266
tp4267
asS'AP53_648'
p4268
(lp4269
(I644053
I644772
g3
S'CDS'
p4270
S'AP53_648'
p4271
tp4272
asS'AP53_649'
p4273
(lp4274
(I645444
I645578
g3
S'CDS'
p4275
S'AP53_649'
p4276
tp4277
asS'AP53_644'
p4278
(lp4279
(I641802
I643142
g3
S'CDS'
p4280
S'AP53_644'
p4281
tp4282
asS'AP53_645'
p4283
(lp4284
(I643250
I643411
g3
S'CDS'
p4285
S'AP53_645'
p4286
tp4287
asS'AP53_646'
p4288
(lp4289
(I643438
I643629
g3
S'CDS'
p4290
S'AP53_646'
p4291
tp4292
asS'AP53_647'
p4293
(lp4294
(I643722
I643979
g3
S'CDS'
p4295
S'AP53_647'
p4296
tp4297
asS'AP53_640'
p4298
(lp4299
(I639870
I640019
g3
S'CDS'
p4300
S'AP53_640'
p4301
tp4302
asS'AP53_641'
p4303
(lp4304
(I640009
I640236
g3
S'CDS'
p4305
S'AP53_641'
p4306
tp4307
asS'AP53_642'
p4308
(lp4309
(I640236
I641048
g3
S'CDS'
p4310
S'AP53_642'
p4311
tp4312
asS'AP53_643'
p4313
(lp4314
(I641048
I641809
g3
S'CDS'
p4315
S'AP53_643'
p4316
tp4317
asS'AP53_488'
p4318
(lp4319
(I489673
I490521
g3
S'CDS'
p4320
S'AP53_488'
p4321
tp4322
asS'AP53_489'
p4323
(lp4324
(I490846
I491349
g44
S'CDS'
p4325
S'AP53_489'
p4326
tp4327
asS'AP53_482'
p4328
(lp4329
(I484355
I484495
g3
S'CDS'
p4330
S'AP53_482'
p4331
tp4332
asS'AP53_483'
p4333
(lp4334
(I484631
I486124
g3
S'CDS'
p4335
S'AP53_483'
p4336
tp4337
asS'AP53_480'
p4338
(lp4339
(I483849
I483977
g3
S'CDS'
p4340
S'AP53_480'
p4341
tp4342
asS'AP53_481'
p4343
(lp4344
(I484046
I484258
g44
S'CDS'
p4345
S'AP53_481'
p4346
tp4347
asS'AP53_486'
p4348
(lp4349
(I488272
I488751
g3
S'CDS'
p4350
S'AP53_486'
p4351
tp4352
asS'AP53_487'
p4353
(lp4354
(I488841
I489404
g3
S'CDS'
p4355
S'AP53_487'
p4356
tp4357
asS'AP53_484'
p4358
(lp4359
(I486298
I487200
g44
S'CDS'
p4360
S'AP53_484'
p4361
tp4362
asS'AP53_485'
p4363
(lp4364
(I487308
I487931
g3
S'CDS'
p4365
S'AP53_485'
p4366
tp4367
asS'AP53_864'
p4368
(lp4369
(I863346
I864182
g44
S'CDS'
p4370
S'AP53_864'
p4371
tp4372
asS'AP53_865'
p4373
(lp4374
(I864179
I865084
g44
S'CDS'
p4375
S'AP53_865'
p4376
tp4377
asS'AP53_866'
p4378
(lp4379
(I865088
I866083
g44
S'CDS'
p4380
S'AP53_866'
p4381
tp4382
asS'AP53_867'
p4383
(lp4384
(I866211
I866966
g44
S'CDS'
p4385
S'AP53_867'
p4386
tp4387
asS'AP53_860'
p4388
(lp4389
(I859790
I860917
g3
S'CDS'
p4390
S'AP53_860'
p4391
tp4392
asS'AP53_861'
p4393
(lp4394
(I860914
I861894
g3
S'CDS'
p4395
S'AP53_861'
p4396
tp4397
asS'AP53_862'
p4398
(lp4399
(I862034
I862612
g3
S'CDS'
p4400
S'AP53_862'
p4401
tp4402
asS'AP53_863'
p4403
(lp4404
(I862700
I863371
g44
S'CDS'
p4405
S'AP53_863'
p4406
tp4407
asS'AP53_868'
p4408
(lp4409
(I867159
I867848
g3
S'CDS'
p4410
S'AP53_868'
p4411
tp4412
asS'AP53_869'
p4413
(lp4414
(I868271
I868999
g44
S'CDS'
p4415
S'AP53_869'
p4416
tp4417
asS'AP53_269'
p4418
(lp4419
(I293065
I293559
g44
S'CDS'
p4420
S'AP53_269'
p4421
tp4422
asS'AP53_266'
p4423
(lp4424
(I289857
I290390
g44
S'CDS'
p4425
S'AP53_266'
p4426
tp4427
asS'AP53_267'
p4428
(lp4429
(I290657
I291343
g44
S'CDS'
p4430
S'AP53_267'
p4431
tp4432
asS'AP53_264'
p4433
(lp4434
(I288123
I288680
g44
S'CDS'
p4435
S'AP53_264'
p4436
tp4437
asS'AP53_265'
p4438
(lp4439
(I288727
I289623
g44
S'CDS'
p4440
S'AP53_265'
p4441
tp4442
asS'AP53_262'
p4443
(lp4444
(I285800
I287191
g3
S'CDS'
p4445
S'AP53_262'
p4446
tp4447
asS'AP53_263'
p4448
(lp4449
(I287260
I287973
g3
S'CDS'
p4450
S'AP53_263'
p4451
tp4452
asS'AP53_260'
p4453
(lp4454
(I283847
I285061
g44
S'CDS'
p4455
S'AP53_260'
p4456
tp4457
asS'AP53_261'
p4458
(lp4459
(I285116
I285790
g3
S'CDS'
p4460
S'AP53_261'
p4461
tp4462
asS'AP53_69'
p4463
(lp4464
(I77805
I78743
g44
S'CDS'
p4465
S'AP53_69'
p4466
tp4467
asS'AP53_68'
p4468
(lp4469
(I77376
I77759
g44
S'CDS'
p4470
S'AP53_68'
p4471
tp4472
asS'AP53_67'
p4473
(lp4474
(I76993
I77358
g44
S'CDS'
p4475
S'AP53_67'
p4476
tp4477
asS'AP53_66'
p4478
(lp4479
(I76859
I76975
g44
S'CDS'
p4480
S'AP53_66'
p4481
tp4482
asS'AP53_65'
p4483
(lp4484
(I76615
I76833
g44
S'CDS'
p4485
S'AP53_65'
p4486
tp4487
asS'AP53_64'
p4488
(lp4489
(I75859
I76497
g44
S'CDS'
p4490
S'AP53_64'
p4491
tp4492
asS'AP53_63'
p4493
(lp4494
(I74405
I75709
g44
S'CDS'
p4495
S'AP53_63'
p4496
tp4497
asS'AP53_62'
p4498
(lp4499
(I73948
I74388
g44
S'CDS'
p4500
S'AP53_62'
p4501
tp4502
asS'AP53_61'
p4503
(lp4504
(I73551
I73733
g44
S'CDS'
p4505
S'AP53_61'
p4506
tp4507
asS'AP53_60'
p4508
(lp4509
(I73042
I73536
g44
S'CDS'
p4510
S'AP53_60'
p4511
tp4512
asS'AP53_1268'
p4513
(lp4514
(I1243101
I1243781
g3
S'CDS'
p4515
S'AP53_1268'
p4516
tp4517
asS'AP53_1269'
p4518
(lp4519
(I1243923
I1244396
g44
S'CDS'
p4520
S'AP53_1269'
p4521
tp4522
asS'AP53_1452'
p4523
(lp4524
(I1426973
I1427959
g44
S'CDS'
p4525
S'AP53_1452'
p4526
tp4527
asS'AP53_1260'
p4528
(lp4529
(I1234063
I1234500
g3
S'CDS'
p4530
S'AP53_1260'
p4531
tp4532
asS'AP53_1261'
p4533
(lp4534
(I1234725
I1235717
g3
S'CDS'
p4535
S'AP53_1261'
p4536
tp4537
asS'AP53_1262'
p4538
(lp4539
(I1236030
I1236980
g3
S'CDS'
p4540
S'AP53_1262'
p4541
tp4542
asS'AP53_1263'
p4543
(lp4544
(I1237000
I1238331
g3
S'CDS'
p4545
S'AP53_1263'
p4546
tp4547
asS'AP53_1264'
p4548
(lp4549
(I1238348
I1239841
g3
S'CDS'
p4550
S'AP53_1264'
p4551
tp4552
asS'AP53_1265'
p4553
(lp4554
(I1240011
I1241024
g3
S'CDS'
p4555
S'AP53_1265'
p4556
tp4557
asS'AP53_1266'
p4558
(lp4559
(I1241151
I1241492
g3
S'CDS'
p4560
S'AP53_1266'
p4561
tp4562
asS'AP53_1267'
p4563
(lp4564
(I1241592
I1242827
g3
S'CDS'
p4565
S'AP53_1267'
p4566
tp4567
asS'AP53_1450'
p4568
(lp4569
(I1424142
I1426373
g3
S'CDS'
p4570
S'AP53_1450'
p4571
tp4572
asS'AP53_1457'
p4573
(lp4574
(I1432139
I1433296
g3
S'CDS'
p4575
S'AP53_1457'
p4576
tp4577
asS'AP53_1453'
p4578
(lp4579
(I1428095
I1428445
g3
S'CDS'
p4580
S'AP53_1453'
p4581
tp4582
asS'AP53_1456'
p4583
(lp4584
(I1431827
I1432123
g3
S'CDS'
p4585
S'AP53_1456'
p4586
tp4587
asS'AP53_1040'
p4588
(lp4589
(I1036019
I1036555
g3
S'CDS'
p4590
S'AP53_1040'
p4591
tp4592
asS'AP53_1041'
p4593
(lp4594
(I1036575
I1037345
g3
S'CDS'
p4595
S'AP53_1041'
p4596
tp4597
asS'AP53_1042'
p4598
(lp4599
(I1037346
I1038542
g3
S'CDS'
p4600
S'AP53_1042'
p4601
tp4602
asS'AP53_1043'
p4603
(lp4604
(I1038502
I1038969
g3
S'CDS'
p4605
S'AP53_1043'
p4606
tp4607
asS'AP53_1044'
p4608
(lp4609
(I1038966
I1039250
g3
S'CDS'
p4610
S'AP53_1044'
p4611
tp4612
asS'AP53_1045'
p4613
(lp4614
(I1039247
I1039441
g3
S'CDS'
p4615
S'AP53_1045'
p4616
tp4617
asS'AP53_1046'
p4618
(lp4619
(I1039441
I1039770
g3
S'CDS'
p4620
S'AP53_1046'
p4621
tp4622
asS'AP53_1047'
p4623
(lp4624
(I1039754
I1039867
g3
S'CDS'
p4625
S'AP53_1047'
p4626
tp4627
asS'AP53_1048'
p4628
(lp4629
(I1039851
I1039988
g3
S'CDS'
p4630
S'AP53_1048'
p4631
tp4632
asS'AP53_1049'
p4633
(lp4634
(I1039985
I1040281
g3
S'CDS'
p4635
S'AP53_1049'
p4636
tp4637
asS'AP53_1518'
p4638
(lp4639
(I1493085
I1493921
g3
S'CDS'
p4640
S'AP53_1518'
p4641
tp4642
asS'AP53_1454'
p4643
(lp4644
(I1428651
I1431512
g3
S'CDS'
p4645
S'AP53_1454'
p4646
tp4647
asS'AP53_1862'
p4648
(lp4649
(I1857775
I1858254
g3
S'CDS'
p4650
S'AP53_1862'
p4651
tp4652
asS'AP53_1863'
p4653
(lp4654
(I1858465
I1859688
g44
S'CDS'
p4655
S'AP53_1863'
p4656
tp4657
asS'AP53_1860'
p4658
(lp4659
(I1852953
I1855529
g44
S'CDS'
p4660
S'AP53_1860'
p4661
tp4662
asS'AP53_1861'
p4663
(lp4664
(I1856400
I1857386
g3
S'CDS'
p4665
S'AP53_1861'
p4666
tp4667
asS'AP53_1866'
p4668
(lp4669
(I609615
I609794
g3
S'CDS'
p4670
S'AP53_1866'
p4671
tp4672
asS'AP53_1864'
p4673
(lp4674
(I1859777
I1860553
g44
S'CDS'
p4675
S'AP53_1864'
p4676
tp4677
asS'AP53_1865'
p4678
(lp4679
(I555538
I555699
g44
S'CDS'
p4680
S'AP53_1865'
p4681
tp4682
asS'AP53_1198'
p4683
(lp4684
(I1180304
I1180816
g3
S'CDS'
p4685
S'AP53_1198'
p4686
tp4687
asS'AP53_1199'
p4688
(lp4689
(I1180813
I1181145
g3
S'CDS'
p4690
S'AP53_1199'
p4691
tp4692
asS'AP53_1196'
p4693
(lp4694
(I1179799
I1179954
g3
S'CDS'
p4695
S'AP53_1196'
p4696
tp4697
asS'AP53_1197'
p4698
(lp4699
(I1179951
I1180268
g3
S'CDS'
p4700
S'AP53_1197'
p4701
tp4702
asS'AP53_1194'
p4703
(lp4704
(I1178971
I1179306
g3
S'CDS'
p4705
S'AP53_1194'
p4706
tp4707
asS'AP53_1195'
p4708
(lp4709
(I1179551
I1179802
g3
S'CDS'
p4710
S'AP53_1195'
p4711
tp4712
asS'AP53_1192'
p4713
(lp4714
(I1178107
I1178370
g3
S'CDS'
p4715
S'AP53_1192'
p4716
tp4717
asS'AP53_1193'
p4718
(lp4719
(I1178381
I1178959
g3
S'CDS'
p4720
S'AP53_1193'
p4721
tp4722
asS'AP53_1190'
p4723
(lp4724
(I1175364
I1177721
g3
S'CDS'
p4725
S'AP53_1190'
p4726
tp4727
asS'AP53_1191'
p4728
(lp4729
(I1177721
I1178092
g3
S'CDS'
p4730
S'AP53_1191'
p4731
tp4732
asS'AP53_1468'
p4733
(lp4734
(I1441589
I1442050
g3
S'CDS'
p4735
S'AP53_1468'
p4736
tp4737
asS'AP53_1451'
p4738
(lp4739
(I1426373
I1426828
g3
S'CDS'
p4740
S'AP53_1451'
p4741
tp4742
asS'AP53_1466'
p4743
(lp4744
(I1439798
I1441081
g3
S'CDS'
p4745
S'AP53_1466'
p4746
tp4747
asS'AP53_1467'
p4748
(lp4749
(I1441090
I1441614
g3
S'CDS'
p4750
S'AP53_1467'
p4751
tp4752
asS'AP53_1464'
p4753
(lp4754
(I1438915
I1439334
g44
S'CDS'
p4755
S'AP53_1464'
p4756
tp4757
asS'AP53_1465'
p4758
(lp4759
(I1439331
I1439687
g44
S'CDS'
p4760
S'AP53_1465'
p4761
tp4762
asS'AP53_1462'
p4763
(lp4764
(I1437081
I1438115
g3
S'CDS'
p4765
S'AP53_1462'
p4766
tp4767
asS'AP53_1463'
p4768
(lp4769
(I1438118
I1438843
g3
S'CDS'
p4770
S'AP53_1463'
p4771
tp4772
asS'AP53_1460'
p4773
(lp4774
(I1435591
I1436226
g3
S'CDS'
p4775
S'AP53_1460'
p4776
tp4777
asS'AP53_1461'
p4778
(lp4779
(I1436226
I1437017
g3
S'CDS'
p4780
S'AP53_1461'
p4781
tp4782
asS'AP53_554'
p4783
(lp4784
(I563939
I564157
g3
S'CDS'
p4785
S'AP53_554'
p4786
tp4787
asS'AP53_555'
p4788
(lp4789
(I564399
I567131
g44
S'CDS'
p4790
S'AP53_555'
p4791
tp4792
asS'AP53_884'
p4793
(lp4794
(I881732
I883456
g44
S'CDS'
p4795
S'AP53_884'
p4796
tp4797
asS'AP53_8'
p4798
(lp4799
(I8902
I9174
g44
S'CDS'
p4800
S'AP53_8'
p4801
tp4802
asS'AP53_9'
p4803
(lp4804
(I9161
I9532
g44
S'CDS'
p4805
S'AP53_9'
p4806
tp4807
asS'AP53_1680'
p4808
(lp4809
(I1672515
I1672943
g44
S'CDS'
p4810
S'AP53_1680'
p4811
tp4812
asS'AP53_885'
p4813
(lp4814
(I883453
I885180
g44
S'CDS'
p4815
S'AP53_885'
p4816
tp4817
asS'AP53_1686'
p4818
(lp4819
(I1678714
I1678914
g3
S'CDS'
p4820
S'AP53_1686'
p4821
tp4822
asS'AP53_1687'
p4823
(lp4824
(I1679083
I1681554
g3
S'CDS'
p4825
S'AP53_1687'
p4826
tp4827
asS'AP53_1684'
p4828
(lp4829
(I1677219
I1678022
g44
S'CDS'
p4830
S'AP53_1684'
p4831
tp4832
asS'AP53_1685'
p4833
(lp4834
(I1678006
I1678632
g44
S'CDS'
p4835
S'AP53_1685'
p4836
tp4837
asS'AP53_1'
p4838
(lp4839
(I232
I1587
g44
S'CDS'
p4840
S'AP53_1'
p4841
tp4842
asS'AP53_2'
p4843
(lp4844
(I1742
I2878
g44
S'CDS'
p4845
S'AP53_2'
p4846
tp4847
asS'AP53_3'
p4848
(lp4849
(I2953
I3150
g44
S'CDS'
p4850
S'AP53_3'
p4851
tp4852
asS'AP53_4'
p4853
(lp4854
(I3296
I3415
g3
S'CDS'
p4855
S'AP53_4'
p4856
tp4857
asS'AP53_5'
p4858
(lp4859
(I3480
I4595
g44
S'CDS'
p4860
S'AP53_5'
p4861
tp4862
asS'AP53_6'
p4863
(lp4864
(I4665
I5234
g44
S'CDS'
p4865
S'AP53_6'
p4866
tp4867
asS'AP53_7'
p4868
(lp4869
(I5237
I8740
g44
S'CDS'
p4870
S'AP53_7'
p4871
tp4872
asS'AP53_1142'
p4873
(lp4874
(I1125592
I1128210
g3
S'CDS'
p4875
S'AP53_1142'
p4876
tp4877
asS'AP53_552'
p4878
(lp4879
(I561585
I562712
g44
S'CDS'
p4880
S'AP53_552'
p4881
tp4882
asS'AP53_881'
p4883
(lp4884
(I878882
I880138
g44
S'CDS'
p4885
S'AP53_881'
p4886
tp4887
asS'AP53_253'
p4888
(lp4889
(I275664
I276770
g44
S'CDS'
p4890
S'AP53_253'
p4891
tp4892
asS'AP53_252'
p4893
(lp4894
(I274667
I275410
g44
S'CDS'
p4895
S'AP53_252'
p4896
tp4897
asS'AP53_251'
p4898
(lp4899
(I274242
I274619
g44
S'CDS'
p4900
S'AP53_251'
p4901
tp4902
asS'AP53_250'
p4903
(lp4904
(I273649
I274242
g44
S'CDS'
p4905
S'AP53_250'
p4906
tp4907
asS'AP53_921'
p4908
(lp4909
(I920805
I921503
g44
S'CDS'
p4910
S'AP53_921'
p4911
tp4912
asS'AP53_920'
p4913
(lp4914
(I919265
I920335
g3
S'CDS'
p4915
S'AP53_920'
p4916
tp4917
asS'AP53_923'
p4918
(lp4919
(I923215
I923556
g3
S'CDS'
p4920
S'AP53_923'
p4921
tp4922
asS'AP53_922'
p4923
(lp4924
(I921638
I923200
g3
S'CDS'
p4925
S'AP53_922'
p4926
tp4927
asS'AP53_125'
p4928
(lp4929
(I139915
I140028
g3
S'CDS'
p4930
S'AP53_125'
p4931
tp4932
asS'AP53_124'
p4933
(lp4934
(I139600
I139920
g44
S'CDS'
p4935
S'AP53_124'
p4936
tp4937
asS'AP53_127'
p4938
(lp4939
(I141897
I143312
g44
S'CDS'
p4940
S'AP53_127'
p4941
tp4942
asS'AP53_126'
p4943
(lp4944
(I140121
I141896
g44
S'CDS'
p4945
S'AP53_126'
p4946
tp4947
asS'AP53_121'
p4948
(lp4949
(I137458
I137937
g44
S'CDS'
p4950
S'AP53_121'
p4951
tp4952
asS'AP53_120'
p4953
(lp4954
(I135456
I137456
g44
S'CDS'
p4955
S'AP53_120'
p4956
tp4957
asS'AP53_123'
p4958
(lp4959
(I138605
I139603
g44
S'CDS'
p4960
S'AP53_123'
p4961
tp4962
asS'AP53_122'
p4963
(lp4964
(I138005
I138589
g44
S'CDS'
p4965
S'AP53_122'
p4966
tp4967
asS'AP53_129'
p4968
(lp4969
(I144103
I145365
g3
S'CDS'
p4970
S'AP53_129'
p4971
tp4972
asS'AP53_128'
p4973
(lp4974
(I143357
I143983
g44
S'CDS'
p4975
S'AP53_128'
p4976
tp4977
asS'AP53_1509'
p4978
(lp4979
(I1481389
I1482354
g44
S'CDS'
p4980
S'AP53_1509'
p4981
tp4982
asS'AP53_781'
p4983
(lp4984
(I774595
I775635
g44
S'CDS'
p4985
S'AP53_781'
p4986
tp4987
asS'AP53_780'
p4988
(lp4989
(I773758
I774351
g44
S'CDS'
p4990
S'AP53_780'
p4991
tp4992
asS'AP53_783'
p4993
(lp4994
(I776390
I777571
g44
S'CDS'
p4995
S'AP53_783'
p4996
tp4997
asS'AP53_782'
p4998
(lp4999
(I775856
I776332
g44
S'CDS'
p5000
S'AP53_782'
p5001
tp5002
asS'AP53_785'
p5003
(lp5004
(I778867
I780519
g3
S'CDS'
p5005
S'AP53_785'
p5006
tp5007
asS'AP53_784'
p5008
(lp5009
(I777561
I778808
g44
S'CDS'
p5010
S'AP53_784'
p5011
tp5012
asS'AP53_787'
p5013
(lp5014
(I780873
I781871
g44
S'CDS'
p5015
S'AP53_787'
p5016
tp5017
asS'AP53_786'
p5018
(lp5019
(I780578
I780691
g44
S'CDS'
p5020
S'AP53_786'
p5021
tp5022
asS'AP53_789'
p5023
(lp5024
(I783082
I783840
g44
S'CDS'
p5025
S'AP53_789'
p5026
tp5027
asS'AP53_788'
p5028
(lp5029
(I782216
I783085
g44
S'CDS'
p5030
S'AP53_788'
p5031
tp5032
asS'AP53_309'
p5033
(lp5034
(I331460
I332089
g44
S'CDS'
p5035
S'AP53_309'
p5036
tp5037
asS'AP53_308'
p5038
(lp5039
(I329658
I331292
g44
S'CDS'
p5040
S'AP53_308'
p5041
tp5042
asS'AP53_659'
p5043
(lp5044
(I652590
I653876
g44
S'CDS'
p5045
S'AP53_659'
p5046
tp5047
asS'AP53_658'
p5048
(lp5049
(I652256
I652597
g44
S'CDS'
p5050
S'AP53_658'
p5051
tp5052
asS'AP53_305'
p5053
(lp5054
(I326139
I327071
g3
S'CDS'
p5055
S'AP53_305'
p5056
tp5057
asS'AP53_304'
p5058
(lp5059
(I325097
I326056
g3
S'CDS'
p5060
S'AP53_304'
p5061
tp5062
asS'AP53_307'
p5063
(lp5064
(I328125
I329570
g3
S'CDS'
p5065
S'AP53_307'
p5066
tp5067
asS'AP53_306'
p5068
(lp5069
(I327097
I327879
g3
S'CDS'
p5070
S'AP53_306'
p5071
tp5072
asS'AP53_301'
p5073
(lp5074
(I322384
I323325
g44
S'CDS'
p5075
S'AP53_301'
p5076
tp5077
asS'AP53_300'
p5078
(lp5079
(I321396
I322259
g44
S'CDS'
p5080
S'AP53_300'
p5081
tp5082
asS'AP53_303'
p5083
(lp5084
(I324099
I325037
g3
S'CDS'
p5085
S'AP53_303'
p5086
tp5087
asS'AP53_302'
p5088
(lp5089
(I323401
I324054
g44
S'CDS'
p5090
S'AP53_302'
p5091
tp5092
asS'AP53_499'
p5093
(lp5094
(I501082
I502317
g3
S'CDS'
p5095
S'AP53_499'
p5096
tp5097
asS'AP53_498'
p5098
(lp5099
(I500940
I501053
g44
S'CDS'
p5100
S'AP53_498'
p5101
tp5102
asS'AP53_495'
p5103
(lp5104
(I498451
I498591
g3
S'CDS'
p5105
S'AP53_495'
p5106
tp5107
asS'AP53_494'
p5108
(lp5109
(I497160
I498434
g44
S'CDS'
p5110
S'AP53_494'
p5111
tp5112
asS'AP53_497'
p5113
(lp5114
(I500225
I500983
g44
S'CDS'
p5115
S'AP53_497'
p5116
tp5117
asS'AP53_496'
p5118
(lp5119
(I498737
I499984
g44
S'CDS'
p5120
S'AP53_496'
p5121
tp5122
asS'AP53_491'
p5123
(lp5124
(I491762
I492241
g3
S'CDS'
p5125
S'AP53_491'
p5126
tp5127
asS'AP53_490'
p5128
(lp5129
(I491333
I491716
g44
S'CDS'
p5130
S'AP53_490'
p5131
tp5132
asS'AP53_493'
p5133
(lp5134
(I494192
I496990
g44
S'CDS'
p5135
S'AP53_493'
p5136
tp5137
asS'AP53_492'
p5138
(lp5139
(I492234
I494033
g3
S'CDS'
p5140
S'AP53_492'
p5141
tp5142
asS'AP53_877'
p5143
(lp5144
(I875930
I877009
g44
S'CDS'
p5145
S'AP53_877'
p5146
tp5147
asS'AP53_876'
p5148
(lp5149
(I875326
I875895
g44
S'CDS'
p5150
S'AP53_876'
p5151
tp5152
asS'AP53_875'
p5153
(lp5154
(I875003
I875188
g3
S'CDS'
p5155
S'AP53_875'
p5156
tp5157
asS'AP53_874'
p5158
(lp5159
(I874012
I874950
g3
S'CDS'
p5160
S'AP53_874'
p5161
tp5162
asS'AP53_873'
p5163
(lp5164
(I872665
I873948
g44
S'CDS'
p5165
S'AP53_873'
p5166
tp5167
asS'AP53_872'
p5168
(lp5169
(I872084
I872665
g44
S'CDS'
p5170
S'AP53_872'
p5171
tp5172
asS'AP53_871'
p5173
(lp5174
(I870796
I871779
g44
S'CDS'
p5175
S'AP53_871'
p5176
tp5177
asS'AP53_870'
p5178
(lp5179
(I868992
I870518
g44
S'CDS'
p5180
S'AP53_870'
p5181
tp5182
asS'AP53_879'
p5183
(lp5184
(I877832
I878422
g44
S'CDS'
p5185
S'AP53_879'
p5186
tp5187
asS'AP53_878'
p5188
(lp5189
(I877009
I877848
g44
S'CDS'
p5190
S'AP53_878'
p5191
tp5192
asS'AP53_271'
p5193
(lp5194
(I294719
I295621
g44
S'CDS'
p5195
S'AP53_271'
p5196
tp5197
asS'AP53_270'
p5198
(lp5199
(I293618
I294718
g44
S'CDS'
p5200
S'AP53_270'
p5201
tp5202
asS'AP53_273'
p5203
(lp5204
(I297201
I300299
g44
S'CDS'
p5205
S'AP53_273'
p5206
tp5207
asS'AP53_272'
p5208
(lp5209
(I295684
I296994
g44
S'CDS'
p5210
S'AP53_272'
p5211
tp5212
asS'AP53_275'
p5213
(lp5214
(I301185
I302513
g44
S'CDS'
p5215
S'AP53_275'
p5216
tp5217
asS'AP53_274'
p5218
(lp5219
(I300543
I301145
g44
S'CDS'
p5220
S'AP53_274'
p5221
tp5222
asS'AP53_277'
p5223
(lp5224
(I303159
I304727
g44
S'CDS'
p5225
S'AP53_277'
p5226
tp5227
asS'AP53_276'
p5228
(lp5229
(I302559
I303041
g44
S'CDS'
p5230
S'AP53_276'
p5231
tp5232
asS'AP53_279'
p5233
(lp5234
(I305907
I306830
g3
S'CDS'
p5235
S'AP53_279'
p5236
tp5237
asS'AP53_278'
p5238
(lp5239
(I304800
I305282
g44
S'CDS'
p5240
S'AP53_278'
p5241
tp5242
asS'AP53_78'
p5243
(lp5244
(I90343
I91599
g3
S'CDS'
p5245
S'AP53_78'
p5246
tp5247
asS'AP53_79'
p5248
(lp5249
(I91703
I94003
g44
S'CDS'
p5250
S'AP53_79'
p5251
tp5252
asS'AP53_74'
p5253
(lp5254
(I87895
I88338
g44
S'CDS'
p5255
S'AP53_74'
p5256
tp5257
asS'AP53_75'
p5258
(lp5259
(I88357
I89061
g44
S'CDS'
p5260
S'AP53_75'
p5261
tp5262
asS'AP53_76'
p5263
(lp5264
(I89054
I89869
g44
S'CDS'
p5265
S'AP53_76'
p5266
tp5267
asS'AP53_77'
p5268
(lp5269
(I89909
I90292
g3
S'CDS'
p5270
S'AP53_77'
p5271
tp5272
asS'AP53_70'
p5273
(lp5274
(I78758
I79144
g44
S'CDS'
p5275
S'AP53_70'
p5276
tp5277
asS'AP53_71'
p5278
(lp5279
(I86444
I86572
g44
S'CDS'
p5280
S'AP53_71'
p5281
tp5282
asS'AP53_1219'
p5283
(lp5284
(I1192612
I1193463
g3
S'CDS'
p5285
S'AP53_1219'
p5286
tp5287
asS'AP53_1218'
p5288
(lp5289
(I1191777
I1192619
g3
S'CDS'
p5290
S'AP53_1218'
p5291
tp5292
asS'AP53_1215'
p5293
(lp5294
(I1189607
I1190749
g44
S'CDS'
p5295
S'AP53_1215'
p5296
tp5297
asS'AP53_1214'
p5298
(lp5299
(I1188965
I1189483
g44
S'CDS'
p5300
S'AP53_1214'
p5301
tp5302
asS'AP53_1217'
p5303
(lp5304
(I1191212
I1191799
g3
S'CDS'
p5305
S'AP53_1217'
p5306
tp5307
asS'AP53_1216'
p5308
(lp5309
(I1190838
I1191113
g3
S'CDS'
p5310
S'AP53_1216'
p5311
tp5312
asS'AP53_1211'
p5313
(lp5314
(I1187203
I1187514
g3
S'CDS'
p5315
S'AP53_1211'
p5316
tp5317
asS'AP53_1210'
p5318
(lp5319
(I1187016
I1187201
g3
S'CDS'
p5320
S'AP53_1210'
p5321
tp5322
asS'AP53_1213'
p5323
(lp5324
(I1188198
I1188953
g44
S'CDS'
p5325
S'AP53_1213'
p5326
tp5327
asS'AP53_1212'
p5328
(lp5329
(I1187784
I1187996
g3
S'CDS'
p5330
S'AP53_1212'
p5331
tp5332
asS'AP53_1035'
p5333
(lp5334
(I1032175
I1032588
g3
S'CDS'
p5335
S'AP53_1035'
p5336
tp5337
asS'AP53_1034'
p5338
(lp5339
(I1031405
I1031890
g3
S'CDS'
p5340
S'AP53_1034'
p5341
tp5342
asS'AP53_1037'
p5343
(lp5344
(I1033111
I1033467
g3
S'CDS'
p5345
S'AP53_1037'
p5346
tp5347
asS'AP53_1036'
p5348
(lp5349
(I1032585
I1032869
g3
S'CDS'
p5350
S'AP53_1036'
p5351
tp5352
asS'AP53_1031'
p5353
(lp5354
(I1030294
I1030728
g3
S'CDS'
p5355
S'AP53_1031'
p5356
tp5357
asS'AP53_1030'
p5358
(lp5359
(I1029649
I1029990
g3
S'CDS'
p5360
S'AP53_1030'
p5361
tp5362
asS'AP53_1033'
p5363
(lp5364
(I1031174
I1031401
g3
S'CDS'
p5365
S'AP53_1033'
p5366
tp5367
asS'AP53_1032'
p5368
(lp5369
(I1030964
I1031149
g3
S'CDS'
p5370
S'AP53_1032'
p5371
tp5372
asS'AP53_1039'
p5373
(lp5374
(I1035205
I1035993
g3
S'CDS'
p5375
S'AP53_1039'
p5376
tp5377
asS'AP53_1038'
p5378
(lp5379
(I1033838
I1035208
g3
S'CDS'
p5380
S'AP53_1038'
p5381
tp5382
asS'AP53_1529'
p5383
(lp5384
(I1508344
I1509297
g3
S'CDS'
p5385
S'AP53_1529'
p5386
tp5387
asS'AP53_1528'
p5388
(lp5389
(I1507050
I1508183
g3
S'CDS'
p5390
S'AP53_1528'
p5391
tp5392
asS'AP53_1857'
p5393
(lp5394
(I1849973
I1850098
g3
S'CDS'
p5395
S'AP53_1857'
p5396
tp5397
asS'AP53_1856'
p5398
(lp5399
(I1848859
I1849881
g3
S'CDS'
p5400
S'AP53_1856'
p5401
tp5402
asS'AP53_1855'
p5403
(lp5404
(I1847070
I1848551
g3
S'CDS'
p5405
S'AP53_1855'
p5406
tp5407
asS'AP53_1807'
p5408
(lp5409
(I1798531
I1800222
g44
S'CDS'
p5410
S'AP53_1807'
p5411
tp5412
asS'AP53_1853'
p5413
(lp5414
(I1844841
I1845947
g44
S'CDS'
p5415
S'AP53_1853'
p5416
tp5417
asS'AP53_1852'
p5418
(lp5419
(I1844426
I1844839
g44
S'CDS'
p5420
S'AP53_1852'
p5421
tp5422
asS'AP53_1851'
p5423
(lp5424
(I1843204
I1844118
g44
S'CDS'
p5425
S'AP53_1851'
p5426
tp5427
asS'AP53_1850'
p5428
(lp5429
(I1843009
I1843134
g44
S'CDS'
p5430
S'AP53_1850'
p5431
tp5432
asS'AP53_1800'
p5433
(lp5434
(I1791937
I1792425
g44
S'CDS'
p5435
S'AP53_1800'
p5436
tp5437
asS'AP53_1859'
p5438
(lp5439
(I1851251
I1852870
g44
S'CDS'
p5440
S'AP53_1859'
p5441
tp5442
asS'AP53_1777'
p5443
(lp5444
(I1774197
I1775468
g3
S'CDS'
p5445
S'AP53_1777'
p5446
tp5447
asS'AP53_446'
p5448
(lp5449
(I454240
I455397
g44
S'CDS'
p5450
S'AP53_446'
p5451
tp5452
asS'AP53_1802'
p5453
(lp5454
(I1793166
I1793549
g44
S'CDS'
p5455
S'AP53_1802'
p5456
tp5457
asS'AP53_447'
p5458
(lp5459
(I455482
I456690
g44
S'CDS'
p5460
S'AP53_447'
p5461
tp5462
asS'AP53_1803'
p5463
(lp5464
(I1793750
I1794298
g44
S'CDS'
p5465
S'AP53_1803'
p5466
tp5467
asS'AP53_444'
p5468
(lp5469
(I451545
I452504
g44
S'CDS'
p5470
S'AP53_444'
p5471
tp5472
asS'AP53_1321'
p5473
(lp5474
(I1305765
I1306346
g3
S'CDS'
p5475
S'AP53_1321'
p5476
tp5477
asS'AP53_1320'
p5478
(lp5479
(I1302515
I1305775
g3
S'CDS'
p5480
S'AP53_1320'
p5481
tp5482
asS'AP53_1323'
p5483
(lp5484
(I1306828
I1307289
g3
S'CDS'
p5485
S'AP53_1323'
p5486
tp5487
asS'AP53_1322'
p5488
(lp5489
(I1306350
I1306784
g3
S'CDS'
p5490
S'AP53_1322'
p5491
tp5492
asS'AP53_1325'
p5493
(lp5494
(I1307684
I1308040
g3
S'CDS'
p5495
S'AP53_1325'
p5496
tp5497
asS'AP53_1324'
p5498
(lp5499
(I1307289
I1307687
g3
S'CDS'
p5500
S'AP53_1324'
p5501
tp5502
asS'AP53_1327'
p5503
(lp5504
(I1308362
I1308778
g3
S'CDS'
p5505
S'AP53_1327'
p5506
tp5507
asS'AP53_1326'
p5508
(lp5509
(I1308040
I1308372
g3
S'CDS'
p5510
S'AP53_1326'
p5511
tp5512
asS'AP53_1329'
p5513
(lp5514
(I1309654
I1310262
g3
S'CDS'
p5515
S'AP53_1329'
p5516
tp5517
asS'AP53_442'
p5518
(lp5519
(I449357
I450343
g44
S'CDS'
p5520
S'AP53_442'
p5521
tp5522
asS'AP53_1459'
p5523
(lp5524
(I1434195
I1435328
g3
S'CDS'
p5525
S'AP53_1459'
p5526
tp5527
asS'AP53_1458'
p5528
(lp5529
(I1433471
I1433854
g3
S'CDS'
p5530
S'AP53_1458'
p5531
tp5532
asS'AP53_443'
p5533
(lp5534
(I450353
I451552
g44
S'CDS'
p5535
S'AP53_443'
p5536
tp5537
asS'AP53_1149'
p5538
(lp5539
(I1135970
I1136674
g3
S'CDS'
p5540
S'AP53_1149'
p5541
tp5542
asS'AP53_1148'
p5543
(lp5544
(I1135135
I1135851
g3
S'CDS'
p5545
S'AP53_1148'
p5546
tp5547
asS'AP53_1779'
p5548
(lp5549
(I1776107
I1776703
g3
S'CDS'
p5550
S'AP53_1779'
p5551
tp5552
asS'AP53_440'
p5553
(lp5554
(I447894
I448628
g44
S'CDS'
p5555
S'AP53_440'
p5556
tp5557
asS'AP53_1141'
p5558
(lp5559
(I1125272
I1125406
g3
S'CDS'
p5560
S'AP53_1141'
p5561
tp5562
asS'AP53_1140'
p5563
(lp5564
(I1125016
I1125231
g3
S'CDS'
p5565
S'AP53_1140'
p5566
tp5567
asS'AP53_1143'
p5568
(lp5569
(I1128597
I1129652
g3
S'CDS'
p5570
S'AP53_1143'
p5571
tp5572
asS'AP53_441'
p5573
(lp5574
(I448630
I449364
g44
S'CDS'
p5575
S'AP53_441'
p5576
tp5577
asS'AP53_1145'
p5578
(lp5579
(I1130488
I1131684
g3
S'CDS'
p5580
S'AP53_1145'
p5581
tp5582
asS'AP53_1144'
p5583
(lp5584
(I1129715
I1130386
g3
S'CDS'
p5585
S'AP53_1144'
p5586
tp5587
asS'AP53_1147'
p5588
(lp5589
(I1133878
I1134840
g3
S'CDS'
p5590
S'AP53_1147'
p5591
tp5592
asS'AP53_1146'
p5593
(lp5594
(I1132060
I1133865
g3
S'CDS'
p5595
S'AP53_1146'
p5596
tp5597
asS'AP53_337'
p5598
(lp5599
(I355666
I356799
g3
S'CDS'
p5600
S'AP53_337'
p5601
tp5602
asS'AP53_662'
p5603
(lp5604
(I656711
I657199
g44
S'CDS'
p5605
S'AP53_662'
p5606
tp5607
asS'AP53_663'
p5608
(lp5609
(I657186
I657383
g3
S'CDS'
p5610
S'AP53_663'
p5611
tp5612
asS'AP53_660'
p5613
(lp5614
(I653857
I655353
g44
S'CDS'
p5615
S'AP53_660'
p5616
tp5617
asS'AP53_661'
p5618
(lp5619
(I655447
I656670
g44
S'CDS'
p5620
S'AP53_661'
p5621
tp5622
asS'AP53_666'
p5623
(lp5624
(I658765
I659295
g44
S'CDS'
p5625
S'AP53_666'
p5626
tp5627
asS'AP53_667'
p5628
(lp5629
(I659337
I659534
g44
S'CDS'
p5630
S'AP53_667'
p5631
tp5632
asS'AP53_664'
p5633
(lp5634
(I657432
I657908
g44
S'CDS'
p5635
S'AP53_664'
p5636
tp5637
asS'AP53_665'
p5638
(lp5639
(I657923
I658603
g44
S'CDS'
p5640
S'AP53_665'
p5641
tp5642
asS'AP53_668'
p5643
(lp5644
(I659593
I659952
g44
S'CDS'
p5645
S'AP53_668'
p5646
tp5647
asS'AP53_669'
p5648
(lp5649
(I660243
I662090
g3
S'CDS'
p5650
S'AP53_669'
p5651
tp5652
asS'AP53_460'
p5653
(lp5654
(I463639
I464436
g44
S'CDS'
p5655
S'AP53_460'
p5656
tp5657
asS'AP53_461'
p5658
(lp5659
(I464440
I465264
g44
S'CDS'
p5660
S'AP53_461'
p5661
tp5662
asS'AP53_462'
p5663
(lp5664
(I465264
I466814
g44
S'CDS'
p5665
S'AP53_462'
p5666
tp5667
asS'AP53_463'
p5668
(lp5669
(I466868
I468235
g3
S'CDS'
p5670
S'AP53_463'
p5671
tp5672
asS'AP53_464'
p5673
(lp5674
(I468563
I469405
g44
S'CDS'
p5675
S'AP53_464'
p5676
tp5677
asS'AP53_465'
p5678
(lp5679
(I469407
I471269
g44
S'CDS'
p5680
S'AP53_465'
p5681
tp5682
asS'AP53_466'
p5683
(lp5684
(I471288
I472712
g44
S'CDS'
p5685
S'AP53_466'
p5686
tp5687
asS'AP53_223'
p5688
(lp5689
(I239704
I239820
g3
S'CDS'
p5690
S'AP53_223'
p5691
tp5692
asS'AP53_468'
p5693
(lp5694
(I473626
I474528
g3
S'CDS'
p5695
S'AP53_468'
p5696
tp5697
asS'AP53_469'
p5698
(lp5699
(I474676
I474831
g3
S'CDS'
p5700
S'AP53_469'
p5701
tp5702
asS'AP53_220'
p5703
(lp5704
(I235096
I235566
g44
S'CDS'
p5705
S'AP53_220'
p5706
tp5707
asS'AP53_688'
p5708
(lp5709
(I679398
I680384
g44
S'CDS'
p5710
S'AP53_688'
p5711
tp5712
asS'AP53_689'
p5713
(lp5714
(I680428
I681510
g44
S'CDS'
p5715
S'AP53_689'
p5716
tp5717
asS'AP53_997'
p5718
(lp5719
(I1001329
I1002027
g44
S'CDS'
p5720
S'AP53_997'
p5721
tp5722
asS'AP53_680'
p5723
(lp5724
(I673616
I673930
g44
S'CDS'
p5725
S'AP53_680'
p5726
tp5727
asS'AP53_990'
p5728
(lp5729
(I991709
I992044
g3
S'CDS'
p5730
S'AP53_990'
p5731
tp5732
asS'AP53_682'
p5733
(lp5734
(I674296
I674589
g44
S'CDS'
p5735
S'AP53_682'
p5736
tp5737
asS'AP53_683'
p5738
(lp5739
(I674947
I675861
g44
S'CDS'
p5740
S'AP53_683'
p5741
tp5742
asS'AP53_684'
p5743
(lp5744
(I675858
I676316
g44
S'CDS'
p5745
S'AP53_684'
p5746
tp5747
asS'AP53_685'
p5748
(lp5749
(I676306
I677196
g44
S'CDS'
p5750
S'AP53_685'
p5751
tp5752
asS'AP53_686'
p5753
(lp5754
(I677592
I678113
g44
S'CDS'
p5755
S'AP53_686'
p5756
tp5757
asS'AP53_991'
p5758
(lp5759
(I992240
I994054
g3
S'CDS'
p5760
S'AP53_991'
p5761
tp5762
asS'AP53_331'
p5763
(lp5764
(I350666
I350797
g44
S'CDS'
p5765
S'AP53_331'
p5766
tp5767
asS'AP53_992'
p5768
(lp5769
(I994230
I994787
g3
S'CDS'
p5770
S'AP53_992'
p5771
tp5772
asS'AP53_1712'
p5773
(lp5774
(I1707323
I1708165
g44
S'CDS'
p5775
S'AP53_1712'
p5776
tp5777
asS'AP53_225'
p5778
(lp5779
(I240695
I242170
g3
S'CDS'
p5780
S'AP53_225'
p5781
tp5782
asS'AP53_613'
p5783
(lp5784
(I625304
I625888
g3
S'CDS'
p5785
S'AP53_613'
p5786
tp5787
asS'AP53_1507'
p5788
(lp5789
(I1479354
I1479806
g44
S'CDS'
p5790
S'AP53_1507'
p5791
tp5792
asS'AP53_612'
p5793
(lp5794
(I624909
I625211
g3
S'CDS'
p5795
S'AP53_612'
p5796
tp5797
asS'AP53_1506'
p5798
(lp5799
(I1477909
I1479123
g3
S'CDS'
p5800
S'AP53_1506'
p5801
tp5802
asS'AP53_611'
p5803
(lp5804
(I624727
I624843
g3
S'CDS'
p5805
S'AP53_611'
p5806
tp5807
asS'AP53_204'
p5808
(lp5809
(I218841
I219671
g44
S'CDS'
p5810
S'AP53_204'
p5811
tp5812
asS'AP53_205'
p5813
(lp5814
(I219828
I220490
g44
S'CDS'
p5815
S'AP53_205'
p5816
tp5817
asS'AP53_206'
p5818
(lp5819
(I220502
I221416
g44
S'CDS'
p5820
S'AP53_206'
p5821
tp5822
asS'AP53_610'
p5823
(lp5824
(I620583
I624683
g3
S'CDS'
p5825
S'AP53_610'
p5826
tp5827
asS'AP53_200'
p5828
(lp5829
(I215358
I215492
g44
S'CDS'
p5830
S'AP53_200'
p5831
tp5832
asS'AP53_201'
p5833
(lp5834
(I215766
I216470
g44
S'CDS'
p5835
S'AP53_201'
p5836
tp5837
asS'AP53_202'
p5838
(lp5839
(I216519
I217838
g44
S'CDS'
p5840
S'AP53_202'
p5841
tp5842
asS'AP53_203'
p5843
(lp5844
(I217866
I218828
g44
S'CDS'
p5845
S'AP53_203'
p5846
tp5847
asS'AP53_617'
p5848
(lp5849
(I627028
I627336
g3
S'CDS'
p5850
S'AP53_617'
p5851
tp5852
asS'AP53_208'
p5853
(lp5854
(I222487
I223317
g3
S'CDS'
p5855
S'AP53_208'
p5856
tp5857
asS'AP53_209'
p5858
(lp5859
(I223602
I224393
g44
S'CDS'
p5860
S'AP53_209'
p5861
tp5862
asS'AP53_616'
p5863
(lp5864
(I626673
I627035
g3
S'CDS'
p5865
S'AP53_616'
p5866
tp5867
asS'AP53_615'
p5868
(lp5869
(I626273
I626671
g3
S'CDS'
p5870
S'AP53_615'
p5871
tp5872
asS'AP53_614'
p5873
(lp5874
(I625900
I626280
g3
S'CDS'
p5875
S'AP53_614'
p5876
tp5877
asS'AP53_333'
p5878
(lp5879
(I350794
I351807
g44
S'CDS'
p5880
S'AP53_333'
p5881
tp5882
asS'AP53_518'
p5883
(lp5884
(I521426
I522601
g44
S'CDS'
p5885
S'AP53_518'
p5886
tp5887
asS'AP53_519'
p5888
(lp5889
(I522755
I523768
g44
S'CDS'
p5890
S'AP53_519'
p5891
tp5892
asS'AP53_848'
p5893
(lp5894
(I848737
I849903
g44
S'CDS'
p5895
S'AP53_848'
p5896
tp5897
asS'AP53_849'
p5898
(lp5899
(I849985
I851034
g3
S'CDS'
p5900
S'AP53_849'
p5901
tp5902
asS'AP53_842'
p5903
(lp5904
(I842339
I843133
g44
S'CDS'
p5905
S'AP53_842'
p5906
tp5907
asS'AP53_843'
p5908
(lp5909
(I843130
I843906
g44
S'CDS'
p5910
S'AP53_843'
p5911
tp5912
asS'AP53_840'
p5913
(lp5914
(I840268
I841155
g44
S'CDS'
p5915
S'AP53_840'
p5916
tp5917
asS'AP53_841'
p5918
(lp5919
(I841201
I842355
g44
S'CDS'
p5920
S'AP53_841'
p5921
tp5922
asS'AP53_846'
p5923
(lp5924
(I845673
I847214
g3
S'CDS'
p5925
S'AP53_846'
p5926
tp5927
asS'AP53_847'
p5928
(lp5929
(I847375
I848706
g44
S'CDS'
p5930
S'AP53_847'
p5931
tp5932
asS'AP53_516'
p5933
(lp5934
(I519199
I519834
g44
S'CDS'
p5935
S'AP53_516'
p5936
tp5937
asS'AP53_845'
p5938
(lp5939
(I845027
I845692
g3
S'CDS'
p5940
S'AP53_845'
p5941
tp5942
asS'AP53_49'
p5943
(lp5944
(I68158
I68811
g44
S'CDS'
p5945
S'AP53_49'
p5946
tp5947
asS'AP53_48'
p5948
(lp5949
(I67801
I68145
g44
S'CDS'
p5950
S'AP53_48'
p5951
tp5952
asS'AP53_41'
p5953
(lp5954
(I62904
I64193
g44
S'CDS'
p5955
S'AP53_41'
p5956
tp5957
asS'AP53_40'
p5958
(lp5959
(I61500
I62516
g44
S'CDS'
p5960
S'AP53_40'
p5961
tp5962
asS'AP53_43'
p5963
(lp5964
(I64948
I65574
g44
S'CDS'
p5965
S'AP53_43'
p5966
tp5967
asS'AP53_42'
p5968
(lp5969
(I64392
I64700
g44
S'CDS'
p5970
S'AP53_42'
p5971
tp5972
asS'AP53_45'
p5973
(lp5974
(I66221
I66517
g44
S'CDS'
p5975
S'AP53_45'
p5976
tp5977
asS'AP53_44'
p5978
(lp5979
(I65598
I66221
g44
S'CDS'
p5980
S'AP53_44'
p5981
tp5982
asS'AP53_47'
p5983
(lp5984
(I67507
I67785
g44
S'CDS'
p5985
S'AP53_47'
p5986
tp5987
asS'AP53_46'
p5988
(lp5989
(I66535
I67368
g44
S'CDS'
p5990
S'AP53_46'
p5991
tp5992
asS'AP53_1208'
p5993
(lp5994
(I1185912
I1186145
g3
S'CDS'
p5995
S'AP53_1208'
p5996
tp5997
asS'AP53_1209'
p5998
(lp5999
(I1186126
I1186512
g3
S'CDS'
p6000
S'AP53_1209'
p6001
tp6002
asS'AP53_1206'
p6003
(lp6004
(I1185560
I1185766
g3
S'CDS'
p6005
S'AP53_1206'
p6006
tp6007
asS'AP53_1207'
p6008
(lp6009
(I1185775
I1185915
g3
S'CDS'
p6010
S'AP53_1207'
p6011
tp6012
asS'AP53_1204'
p6013
(lp6014
(I1184246
I1185172
g3
S'CDS'
p6015
S'AP53_1204'
p6016
tp6017
asS'AP53_1205'
p6018
(lp6019
(I1185175
I1185504
g3
S'CDS'
p6020
S'AP53_1205'
p6021
tp6022
asS'AP53_1202'
p6023
(lp6024
(I1183259
I1184056
g3
S'CDS'
p6025
S'AP53_1202'
p6026
tp6027
asS'AP53_1203'
p6028
(lp6029
(I1184049
I1184249
g3
S'CDS'
p6030
S'AP53_1203'
p6031
tp6032
asS'AP53_1200'
p6033
(lp6034
(I1181156
I1182502
g3
S'CDS'
p6035
S'AP53_1200'
p6036
tp6037
asS'AP53_1201'
p6038
(lp6039
(I1182499
I1182894
g3
S'CDS'
p6040
S'AP53_1201'
p6041
tp6042
asS'AP53_1026'
p6043
(lp6044
(I1026857
I1027081
g3
S'CDS'
p6045
S'AP53_1026'
p6046
tp6047
asS'AP53_1027'
p6048
(lp6049
(I1027074
I1027244
g3
S'CDS'
p6050
S'AP53_1027'
p6051
tp6052
asS'AP53_1024'
p6053
(lp6054
(I1024960
I1025625
g3
S'CDS'
p6055
S'AP53_1024'
p6056
tp6057
asS'AP53_1025'
p6058
(lp6059
(I1025603
I1026823
g3
S'CDS'
p6060
S'AP53_1025'
p6061
tp6062
asS'AP53_1022'
p6063
(lp6064
(I1023608
I1023736
g3
S'CDS'
p6065
S'AP53_1022'
p6066
tp6067
asS'AP53_1023'
p6068
(lp6069
(I1023750
I1024934
g3
S'CDS'
p6070
S'AP53_1023'
p6071
tp6072
asS'AP53_1020'
p6073
(lp6074
(I1022959
I1023306
g3
S'CDS'
p6075
S'AP53_1020'
p6076
tp6077
asS'AP53_1021'
p6078
(lp6079
(I1023303
I1023605
g3
S'CDS'
p6080
S'AP53_1021'
p6081
tp6082
asS'AP53_1840'
p6083
(lp6084
(I1832478
I1833092
g3
S'CDS'
p6085
S'AP53_1840'
p6086
tp6087
asS'AP53_1841'
p6088
(lp6089
(I1833463
I1834263
g3
S'CDS'
p6090
S'AP53_1841'
p6091
tp6092
asS'AP53_1842'
p6093
(lp6094
(I1834256
I1835098
g3
S'CDS'
p6095
S'AP53_1842'
p6096
tp6097
asS'AP53_1843'
p6098
(lp6099
(I1835074
I1835913
g3
S'CDS'
p6100
S'AP53_1843'
p6101
tp6102
asS'AP53_1844'
p6103
(lp6104
(I1835915
I1836457
g3
S'CDS'
p6105
S'AP53_1844'
p6106
tp6107
asS'AP53_1845'
p6108
(lp6109
(I1836471
I1837496
g3
S'CDS'
p6110
S'AP53_1845'
p6111
tp6112
asS'AP53_1028'
p6113
(lp6114
(I1027241
I1028995
g3
S'CDS'
p6115
S'AP53_1028'
p6116
tp6117
asS'AP53_1029'
p6118
(lp6119
(I1029010
I1029477
g3
S'CDS'
p6120
S'AP53_1029'
p6121
tp6122
asS'AP53_1332'
p6123
(lp6124
(I1310974
I1312467
g3
S'CDS'
p6125
S'AP53_1332'
p6126
tp6127
asS'AP53_1333'
p6128
(lp6129
(I1312472
I1313974
g3
S'CDS'
p6130
S'AP53_1333'
p6131
tp6132
asS'AP53_1330'
p6133
(lp6134
(I1310394
I1310660
g3
S'CDS'
p6135
S'AP53_1330'
p6136
tp6137
asS'AP53_1331'
p6138
(lp6139
(I1310747
I1310974
g3
S'CDS'
p6140
S'AP53_1331'
p6141
tp6142
asS'AP53_1440'
p6143
(lp6144
(I1417589
I1417708
g3
S'CDS'
p6145
S'AP53_1440'
p6146
tp6147
asS'AP53_1441'
p6148
(lp6149
(I1417767
I1418744
g3
S'CDS'
p6150
S'AP53_1441'
p6151
tp6152
asS'AP53_1334'
p6153
(lp6154
(I1313988
I1315199
g3
S'CDS'
p6155
S'AP53_1334'
p6156
tp6157
asS'AP53_1335'
p6158
(lp6159
(I1315282
I1315758
g3
S'CDS'
p6160
S'AP53_1335'
p6161
tp6162
asS'AP53_1338'
p6163
(lp6164
(I1317901
I1318335
g3
S'CDS'
p6165
S'AP53_1338'
p6166
tp6167
asS'AP53_1339'
p6168
(lp6169
(I1318377
I1318502
g3
S'CDS'
p6170
S'AP53_1339'
p6171
tp6172
asS'AP53_1448'
p6173
(lp6174
(I1422951
I1423721
g44
S'CDS'
p6175
S'AP53_1448'
p6176
tp6177
asS'AP53_1449'
p6178
(lp6179
(I1423925
I1424128
g3
S'CDS'
p6180
S'AP53_1449'
p6181
tp6182
asS'AP53_1158'
p6183
(lp6184
(I1144497
I1145159
g3
S'CDS'
p6185
S'AP53_1158'
p6186
tp6187
asS'AP53_1159'
p6188
(lp6189
(I1145359
I1146099
g3
S'CDS'
p6190
S'AP53_1159'
p6191
tp6192
asS'AP53_1152'
p6193
(lp6194
(I1139245
I1139835
g3
S'CDS'
p6195
S'AP53_1152'
p6196
tp6197
asS'AP53_1153'
p6198
(lp6199
(I1139832
I1140023
g3
S'CDS'
p6200
S'AP53_1153'
p6201
tp6202
asS'AP53_1150'
p6203
(lp6204
(I1136876
I1137904
g44
S'CDS'
p6205
S'AP53_1150'
p6206
tp6207
asS'AP53_1151'
p6208
(lp6209
(I1137911
I1139131
g44
S'CDS'
p6210
S'AP53_1151'
p6211
tp6212
asS'AP53_1156'
p6213
(lp6214
(I1141162
I1142202
g3
S'CDS'
p6215
S'AP53_1156'
p6216
tp6217
asS'AP53_1157'
p6218
(lp6219
(I1142273
I1144516
g3
S'CDS'
p6220
S'AP53_1157'
p6221
tp6222
asS'AP53_1154'
p6223
(lp6224
(I1140060
I1140293
g3
S'CDS'
p6225
S'AP53_1154'
p6226
tp6227
asS'AP53_1155'
p6228
(lp6229
(I1140460
I1141065
g3
S'CDS'
p6230
S'AP53_1155'
p6231
tp6232
asS'AP53_1546'
p6233
(lp6234
(I1527871
I1528029
g3
S'CDS'
p6235
S'AP53_1546'
p6236
tp6237
asS'AP53_1538'
p6238
(lp6239
(I1519909
I1520370
g3
S'CDS'
p6240
S'AP53_1538'
p6241
tp6242
asS'AP53_1539'
p6243
(lp6244
(I1520405
I1521478
g3
S'CDS'
p6245
S'AP53_1539'
p6246
tp6247
asS'AP53_1530'
p6248
(lp6249
(I1509392
I1510276
g3
S'CDS'
p6250
S'AP53_1530'
p6251
tp6252
asS'AP53_1531'
p6253
(lp6254
(I1510540
I1513470
g3
S'CDS'
p6255
S'AP53_1531'
p6256
tp6257
asS'AP53_1532'
p6258
(lp6259
(I1513701
I1515584
g3
S'CDS'
p6260
S'AP53_1532'
p6261
tp6262
asS'AP53_1533'
p6263
(lp6264
(I1515826
I1517265
g44
S'CDS'
p6265
S'AP53_1533'
p6266
tp6267
asS'AP53_1534'
p6268
(lp6269
(I1517270
I1518235
g44
S'CDS'
p6270
S'AP53_1534'
p6271
tp6272
asS'AP53_1535'
p6273
(lp6274
(I1518376
I1518828
g3
S'CDS'
p6275
S'AP53_1535'
p6276
tp6277
asS'AP53_1536'
p6278
(lp6279
(I1518821
I1519210
g3
S'CDS'
p6280
S'AP53_1536'
p6281
tp6282
asS'AP53_1537'
p6283
(lp6284
(I1519256
I1519813
g3
S'CDS'
p6285
S'AP53_1537'
p6286
tp6287
asS'AP53_415'
p6288
(lp6289
(I419841
I420767
g3
S'CDS'
p6290
S'AP53_415'
p6291
tp6292
asS'AP53_414'
p6293
(lp6294
(I419144
I419791
g3
S'CDS'
p6295
S'AP53_414'
p6296
tp6297
asS'AP53_417'
p6298
(lp6299
(I421661
I422587
g3
S'CDS'
p6300
S'AP53_417'
p6301
tp6302
asS'AP53_140'
p6303
(lp6304
(I157250
I159751
g44
S'CDS'
p6305
S'AP53_140'
p6306
tp6307
asS'AP53_411'
p6308
(lp6309
(I415517
I417832
g44
S'CDS'
p6310
S'AP53_411'
p6311
tp6312
asS'AP53_410'
p6313
(lp6314
(I415169
I415405
g44
S'CDS'
p6315
S'AP53_410'
p6316
tp6317
asS'AP53_413'
p6318
(lp6319
(I418317
I419027
g44
S'CDS'
p6320
S'AP53_413'
p6321
tp6322
asS'AP53_412'
p6323
(lp6324
(I417835
I418302
g44
S'CDS'
p6325
S'AP53_412'
p6326
tp6327
asS'AP53_675'
p6328
(lp6329
(I667722
I668999
g3
S'CDS'
p6330
S'AP53_675'
p6331
tp6332
asS'AP53_674'
p6333
(lp6334
(I666290
I667642
g44
S'CDS'
p6335
S'AP53_674'
p6336
tp6337
asS'AP53_677'
p6338
(lp6339
(I669704
I670846
g44
S'CDS'
p6340
S'AP53_677'
p6341
tp6342
asS'AP53_676'
p6343
(lp6344
(I669029
I669469
g3
S'CDS'
p6345
S'AP53_676'
p6346
tp6347
asS'AP53_671'
p6348
(lp6349
(I663721
I664407
g44
S'CDS'
p6350
S'AP53_671'
p6351
tp6352
asS'AP53_670'
p6353
(lp6354
(I662561
I663724
g44
S'CDS'
p6355
S'AP53_670'
p6356
tp6357
asS'AP53_673'
p6358
(lp6359
(I665728
I666069
g44
S'CDS'
p6360
S'AP53_673'
p6361
tp6362
asS'AP53_672'
p6363
(lp6364
(I664501
I665667
g44
S'CDS'
p6365
S'AP53_672'
p6366
tp6367
asS'AP53_679'
p6368
(lp6369
(I672110
I673402
g44
S'CDS'
p6370
S'AP53_679'
p6371
tp6372
asS'AP53_678'
p6373
(lp6374
(I670858
I672072
g44
S'CDS'
p6375
S'AP53_678'
p6376
tp6377
asS'AP53_473'
p6378
(lp6379
(I478322
I479254
g44
S'CDS'
p6380
S'AP53_473'
p6381
tp6382
asS'AP53_472'
p6383
(lp6384
(I477685
I477957
g44
S'CDS'
p6385
S'AP53_472'
p6386
tp6387
asS'AP53_471'
p6388
(lp6389
(I477184
I477621
g44
S'CDS'
p6390
S'AP53_471'
p6391
tp6392
asS'AP53_470'
p6393
(lp6394
(I475065
I477197
g44
S'CDS'
p6395
S'AP53_470'
p6396
tp6397
asS'AP53_477'
p6398
(lp6399
(I481039
I481323
g3
S'CDS'
p6400
S'AP53_477'
p6401
tp6402
asS'AP53_476'
p6403
(lp6404
(I480452
I480880
g44
S'CDS'
p6405
S'AP53_476'
p6406
tp6407
asS'AP53_475'
p6408
(lp6409
(I480052
I480459
g44
S'CDS'
p6410
S'AP53_475'
p6411
tp6412
asS'AP53_474'
p6413
(lp6414
(I479251
I480030
g44
S'CDS'
p6415
S'AP53_474'
p6416
tp6417
asS'AP53_479'
p6418
(lp6419
(I482550
I483836
g44
S'CDS'
p6420
S'AP53_479'
p6421
tp6422
asS'AP53_478'
p6423
(lp6424
(I481522
I482448
g44
S'CDS'
p6425
S'AP53_478'
p6426
tp6427
asS'AP53_699'
p6428
(lp6429
(I695562
I696437
g3
S'CDS'
p6430
S'AP53_699'
p6431
tp6432
asS'AP53_698'
p6433
(lp6434
(I694981
I695382
g44
S'CDS'
p6435
S'AP53_698'
p6436
tp6437
asS'AP53_693'
p6438
(lp6439
(I687131
I688351
g44
S'CDS'
p6440
S'AP53_693'
p6441
tp6442
asS'AP53_692'
p6443
(lp6444
(I686409
I687119
g44
S'CDS'
p6445
S'AP53_692'
p6446
tp6447
asS'AP53_691'
p6448
(lp6449
(I685138
I686409
g44
S'CDS'
p6450
S'AP53_691'
p6451
tp6452
asS'AP53_690'
p6453
(lp6454
(I681756
I684932
g44
S'CDS'
p6455
S'AP53_690'
p6456
tp6457
asS'AP53_697'
p6458
(lp6459
(I691920
I694961
g44
S'CDS'
p6460
S'AP53_697'
p6461
tp6462
asS'AP53_696'
p6463
(lp6464
(I690747
I690986
g44
S'CDS'
p6465
S'AP53_696'
p6466
tp6467
asS'AP53_695'
p6468
(lp6469
(I690465
I690737
g44
S'CDS'
p6470
S'AP53_695'
p6471
tp6472
asS'AP53_694'
p6473
(lp6474
(I688605
I690338
g44
S'CDS'
p6475
S'AP53_694'
p6476
tp6477
asS'AP53_217'
p6478
(lp6479
(I231003
I231842
g44
S'CDS'
p6480
S'AP53_217'
p6481
tp6482
asS'AP53_216'
p6483
(lp6484
(I229798
I230736
g44
S'CDS'
p6485
S'AP53_216'
p6486
tp6487
asS'AP53_215'
p6488
(lp6489
(I228537
I229808
g44
S'CDS'
p6490
S'AP53_215'
p6491
tp6492
asS'AP53_214'
p6493
(lp6494
(I227903
I228535
g44
S'CDS'
p6495
S'AP53_214'
p6496
tp6497
asS'AP53_213'
p6498
(lp6499
(I227248
I227910
g44
S'CDS'
p6500
S'AP53_213'
p6501
tp6502
asS'AP53_212'
p6503
(lp6504
(I226366
I227238
g44
S'CDS'
p6505
S'AP53_212'
p6506
tp6507
asS'AP53_211'
p6508
(lp6509
(I225069
I225941
g44
S'CDS'
p6510
S'AP53_211'
p6511
tp6512
asS'AP53_210'
p6513
(lp6514
(I224386
I224955
g44
S'CDS'
p6515
S'AP53_210'
p6516
tp6517
asS'AP53_219'
p6518
(lp6519
(I234662
I235075
g44
S'CDS'
p6520
S'AP53_219'
p6521
tp6522
asS'AP53_218'
p6523
(lp6524
(I231833
I234454
g44
S'CDS'
p6525
S'AP53_218'
p6526
tp6527
asS'AP53_509'
p6528
(lp6529
(I513418
I514200
g3
S'CDS'
p6530
S'AP53_509'
p6531
tp6532
asS'AP53_508'
p6533
(lp6534
(I512610
I513431
g3
S'CDS'
p6535
S'AP53_508'
p6536
tp6537
asS'AP53_859'
p6538
(lp6539
(I859453
I859800
g3
S'CDS'
p6540
S'AP53_859'
p6541
tp6542
asS'AP53_858'
p6543
(lp6544
(I858557
I859201
g3
S'CDS'
p6545
S'AP53_858'
p6546
tp6547
asS'AP53_855'
p6548
(lp6549
(I855994
I857121
g44
S'CDS'
p6550
S'AP53_855'
p6551
tp6552
asS'AP53_854'
p6553
(lp6554
(I855860
I855973
g44
S'CDS'
p6555
S'AP53_854'
p6556
tp6557
asS'AP53_857'
p6558
(lp6559
(I857852
I858547
g3
S'CDS'
p6560
S'AP53_857'
p6561
tp6562
asS'AP53_856'
p6563
(lp6564
(I857170
I857850
g44
S'CDS'
p6565
S'AP53_856'
p6566
tp6567
asS'AP53_851'
p6568
(lp6569
(I852734
I853327
g44
S'CDS'
p6570
S'AP53_851'
p6571
tp6572
asS'AP53_850'
p6573
(lp6574
(I851306
I852439
g44
S'CDS'
p6575
S'AP53_850'
p6576
tp6577
asS'AP53_853'
p6578
(lp6579
(I855200
I855814
g44
S'CDS'
p6580
S'AP53_853'
p6581
tp6582
asS'AP53_852'
p6583
(lp6584
(I853505
I855037
g44
S'CDS'
p6585
S'AP53_852'
p6586
tp6587
asS'AP53_56'
p6588
(lp6589
(I71089
I71274
g44
S'CDS'
p6590
S'AP53_56'
p6591
tp6592
asS'AP53_57'
p6593
(lp6594
(I71425
I71823
g44
S'CDS'
p6595
S'AP53_57'
p6596
tp6597
asS'AP53_54'
p6598
(lp6599
(I70202
I70507
g44
S'CDS'
p6600
S'AP53_54'
p6601
tp6602
asS'AP53_55'
p6603
(lp6604
(I70531
I71073
g44
S'CDS'
p6605
S'AP53_55'
p6606
tp6607
asS'AP53_52'
p6608
(lp6609
(I69470
I69730
g44
S'CDS'
p6610
S'AP53_52'
p6611
tp6612
asS'AP53_53'
p6613
(lp6614
(I69755
I70123
g44
S'CDS'
p6615
S'AP53_53'
p6616
tp6617
asS'AP53_50'
p6618
(lp6619
(I68815
I69228
g44
S'CDS'
p6620
S'AP53_50'
p6621
tp6622
asS'AP53_51'
p6623
(lp6624
(I69238
I69444
g44
S'CDS'
p6625
S'AP53_51'
p6626
tp6627
asS'AP53_406'
p6628
(lp6629
(I410556
I411383
g44
S'CDS'
p6630
S'AP53_406'
p6631
tp6632
asS'AP53_58'
p6633
(lp6634
(I72026
I72562
g44
S'CDS'
p6635
S'AP53_58'
p6636
tp6637
asS'AP53_59'
p6638
(lp6639
(I72667
I73023
g44
S'CDS'
p6640
S'AP53_59'
p6641
tp6642
asS'AP53_1233'
p6643
(lp6644
(I1206865
I1209147
g44
S'CDS'
p6645
S'AP53_1233'
p6646
tp6647
asS'AP53_1232'
p6648
(lp6649
(I1206337
I1206567
g3
S'CDS'
p6650
S'AP53_1232'
p6651
tp6652
asS'AP53_1231'
p6653
(lp6654
(I1205524
I1206210
g3
S'CDS'
p6655
S'AP53_1231'
p6656
tp6657
asS'AP53_1230'
p6658
(lp6659
(I1204790
I1205524
g3
S'CDS'
p6660
S'AP53_1230'
p6661
tp6662
asS'AP53_1237'
p6663
(lp6664
(I1213422
I1214180
g3
S'CDS'
p6665
S'AP53_1237'
p6666
tp6667
asS'AP53_1236'
p6668
(lp6669
(I1210348
I1213149
g3
S'CDS'
p6670
S'AP53_1236'
p6671
tp6672
asS'AP53_1235'
p6673
(lp6674
(I1209781
I1210083
g44
S'CDS'
p6675
S'AP53_1235'
p6676
tp6677
asS'AP53_1234'
p6678
(lp6679
(I1209275
I1209730
g44
S'CDS'
p6680
S'AP53_1234'
p6681
tp6682
asS'AP53_1239'
p6683
(lp6684
(I1214981
I1215235
g3
S'CDS'
p6685
S'AP53_1239'
p6686
tp6687
asS'AP53_1238'
p6688
(lp6689
(I1214190
I1214981
g3
S'CDS'
p6690
S'AP53_1238'
p6691
tp6692
asS'AP53_1789'
p6693
(lp6694
(I1785515
I1786648
g3
S'CDS'
p6695
S'AP53_1789'
p6696
tp6697
asS'AP53_1788'
p6698
(lp6699
(I1785015
I1785257
g44
S'CDS'
p6700
S'AP53_1788'
p6701
tp6702
asS'AP53_1839'
p6703
(lp6704
(I1831192
I1832064
g44
S'CDS'
p6705
S'AP53_1839'
p6706
tp6707
asS'AP53_1838'
p6708
(lp6709
(I1830509
I1831180
g44
S'CDS'
p6710
S'AP53_1838'
p6711
tp6712
asS'AP53_1783'
p6713
(lp6714
(I1781413
I1781556
g44
S'CDS'
p6715
S'AP53_1783'
p6716
tp6717
asS'AP53_1782'
p6718
(lp6719
(I1780013
I1781164
g3
S'CDS'
p6720
S'AP53_1782'
p6721
tp6722
asS'AP53_1781'
p6723
(lp6724
(I1777936
I1779918
g3
S'CDS'
p6725
S'AP53_1781'
p6726
tp6727
asS'AP53_1780'
p6728
(lp6729
(I1776705
I1777925
g3
S'CDS'
p6730
S'AP53_1780'
p6731
tp6732
asS'AP53_1787'
p6733
(lp6734
(I1784365
I1784988
g44
S'CDS'
p6735
S'AP53_1787'
p6736
tp6737
asS'AP53_1786'
p6738
(lp6739
(I1783774
I1784355
g44
S'CDS'
p6740
S'AP53_1786'
p6741
tp6742
asS'AP53_1785'
p6743
(lp6744
(I1783348
I1783554
g44
S'CDS'
p6745
S'AP53_1785'
p6746
tp6747
asS'AP53_1784'
p6748
(lp6749
(I1782427
I1783194
g3
S'CDS'
p6750
S'AP53_1784'
p6751
tp6752
asS'AP53_1307'
p6753
(lp6754
(I1290401
I1290583
g3
S'CDS'
p6755
S'AP53_1307'
p6756
tp6757
asS'AP53_1306'
p6758
(lp6759
(I1288855
I1290210
g3
S'CDS'
p6760
S'AP53_1306'
p6761
tp6762
asS'AP53_1305'
p6763
(lp6764
(I1286835
I1288190
g3
S'CDS'
p6765
S'AP53_1305'
p6766
tp6767
asS'AP53_1304'
p6768
(lp6769
(I1284029
I1286734
g44
S'CDS'
p6770
S'AP53_1304'
p6771
tp6772
asS'AP53_1303'
p6773
(lp6774
(I1282728
I1284014
g44
S'CDS'
p6775
S'AP53_1303'
p6776
tp6777
asS'AP53_1302'
p6778
(lp6779
(I1281555
I1282595
g3
S'CDS'
p6780
S'AP53_1302'
p6781
tp6782
asS'AP53_1301'
p6783
(lp6784
(I1279810
I1281504
g3
S'CDS'
p6785
S'AP53_1301'
p6786
tp6787
asS'AP53_1300'
p6788
(lp6789
(I1278343
I1279785
g3
S'CDS'
p6790
S'AP53_1300'
p6791
tp6792
asS'AP53_1309'
p6793
(lp6794
(I1291893
I1292327
g44
S'CDS'
p6795
S'AP53_1309'
p6796
tp6797
asS'AP53_1308'
p6798
(lp6799
(I1290821
I1291621
g44
S'CDS'
p6800
S'AP53_1308'
p6801
tp6802
asS'AP53_1169'
p6803
(lp6804
(I1158027
I1158806
g3
S'CDS'
p6805
S'AP53_1169'
p6806
tp6807
asS'AP53_1168'
p6808
(lp6809
(I1156642
I1157238
g3
S'CDS'
p6810
S'AP53_1168'
p6811
tp6812
asS'AP53_1167'
p6813
(lp6814
(I1155495
I1156541
g3
S'CDS'
p6815
S'AP53_1167'
p6816
tp6817
asS'AP53_1166'
p6818
(lp6819
(I1153929
I1155296
g3
S'CDS'
p6820
S'AP53_1166'
p6821
tp6822
asS'AP53_1165'
p6823
(lp6824
(I1153130
I1153825
g3
S'CDS'
p6825
S'AP53_1165'
p6826
tp6827
asS'AP53_1164'
p6828
(lp6829
(I1151338
I1152882
g3
S'CDS'
p6830
S'AP53_1164'
p6831
tp6832
asS'AP53_1163'
p6833
(lp6834
(I1149412
I1151031
g3
S'CDS'
p6835
S'AP53_1163'
p6836
tp6837
asS'AP53_1162'
p6838
(lp6839
(I1147285
I1149285
g3
S'CDS'
p6840
S'AP53_1162'
p6841
tp6842
asS'AP53_1161'
p6843
(lp6844
(I1146983
I1147261
g44
S'CDS'
p6845
S'AP53_1161'
p6846
tp6847
asS'AP53_1160'
p6848
(lp6849
(I1146217
I1146993
g44
S'CDS'
p6850
S'AP53_1160'
p6851
tp6852
asS'AP53_1499'
p6853
(lp6854
(I1470682
I1472121
g3
S'CDS'
p6855
S'AP53_1499'
p6856
tp6857
asS'AP53_1498'
p6858
(lp6859
(I1470470
I1470598
g3
S'CDS'
p6860
S'AP53_1498'
p6861
tp6862
asS'AP53_1497'
p6863
(lp6864
(I1470012
I1470251
g3
S'CDS'
p6865
S'AP53_1497'
p6866
tp6867
asS'AP53_1496'
p6868
(lp6869
(I1468913
I1469620
g3
S'CDS'
p6870
S'AP53_1496'
p6871
tp6872
asS'AP53_1495'
p6873
(lp6874
(I1468180
I1468923
g3
S'CDS'
p6875
S'AP53_1495'
p6876
tp6877
asS'AP53_1494'
p6878
(lp6879
(I1467614
I1468183
g3
S'CDS'
p6880
S'AP53_1494'
p6881
tp6882
asS'AP53_1493'
p6883
(lp6884
(I1466445
I1467479
g3
S'CDS'
p6885
S'AP53_1493'
p6886
tp6887
asS'AP53_1492'
p6888
(lp6889
(I1465870
I1466403
g3
S'CDS'
p6890
S'AP53_1492'
p6891
tp6892
asS'AP53_1491'
p6893
(lp6894
(I1463864
I1465690
g3
S'CDS'
p6895
S'AP53_1491'
p6896
tp6897
asS'AP53_1490'
p6898
(lp6899
(I1462447
I1463583
g3
S'CDS'
p6900
S'AP53_1490'
p6901
tp6902
asS'AP53_1019'
p6903
(lp6904
(I1022585
I1022962
g3
S'CDS'
p6905
S'AP53_1019'
p6906
tp6907
asS'AP53_1018'
p6908
(lp6909
(I1022163
I1022588
g3
S'CDS'
p6910
S'AP53_1018'
p6911
tp6912
asS'AP53_1549'
p6913
(lp6914
(I1530201
I1530515
g3
S'CDS'
p6915
S'AP53_1549'
p6916
tp6917
asS'AP53_1548'
p6918
(lp6919
(I1529562
I1530149
g44
S'CDS'
p6920
S'AP53_1548'
p6921
tp6922
asS'AP53_1013'
p6923
(lp6924
(I1016319
I1017026
g3
S'CDS'
p6925
S'AP53_1013'
p6926
tp6927
asS'AP53_1012'
p6928
(lp6929
(I1014178
I1016322
g3
S'CDS'
p6930
S'AP53_1012'
p6931
tp6932
asS'AP53_1011'
p6933
(lp6934
(I1013174
I1014181
g3
S'CDS'
p6935
S'AP53_1011'
p6936
tp6937
asS'AP53_1010'
p6938
(lp6939
(I1011257
I1013164
g3
S'CDS'
p6940
S'AP53_1010'
p6941
tp6942
asS'AP53_1017'
p6943
(lp6944
(I1021538
I1022146
g3
S'CDS'
p6945
S'AP53_1017'
p6946
tp6947
asS'AP53_1016'
p6948
(lp6949
(I1021159
I1021485
g3
S'CDS'
p6950
S'AP53_1016'
p6951
tp6952
asS'AP53_1015'
p6953
(lp6954
(I1020962
I1021129
g3
S'CDS'
p6955
S'AP53_1015'
p6956
tp6957
asS'AP53_1014'
p6958
(lp6959
(I1017026
I1020949
g3
S'CDS'
p6960
S'AP53_1014'
p6961
tp6962
asS'AP53_502'
p6963
(lp6964
(I504489
I504656
g3
S'CDS'
p6965
S'AP53_502'
p6966
tp6967
asS'AP53_1826'
p6968
(lp6969
(I1814818
I1815897
g44
S'CDS'
p6970
S'AP53_1826'
p6971
tp6972
asS'AP53_1827'
p6973
(lp6974
(I1816013
I1818286
g3
S'CDS'
p6975
S'AP53_1827'
p6976
tp6977
asS'AP53_1824'
p6978
(lp6979
(I1813921
I1814247
g44
S'CDS'
p6980
S'AP53_1824'
p6981
tp6982
asS'AP53_1825'
p6983
(lp6984
(I1814234
I1814821
g44
S'CDS'
p6985
S'AP53_1825'
p6986
tp6987
asS'AP53_1822'
p6988
(lp6989
(I1812184
I1813026
g44
S'CDS'
p6990
S'AP53_1822'
p6991
tp6992
asS'AP53_467'
p6993
(lp6994
(I472811
I473626
g3
S'CDS'
p6995
S'AP53_467'
p6996
tp6997
asS'AP53_1823'
p6998
(lp6999
(I1813073
I1813714
g3
S'CDS'
p7000
S'AP53_1823'
p7001
tp7002
asS'AP53_1820'
p7003
(lp7004
(I1810371
I1810973
g44
S'CDS'
p7005
S'AP53_1820'
p7006
tp7007
asS'AP53_1821'
p7008
(lp7009
(I1811449
I1811613
g3
S'CDS'
p7010
S'AP53_1821'
p7011
tp7012
asS'AP53_501'
p7013
(lp7014
(I503529
I504338
g3
S'CDS'
p7015
S'AP53_501'
p7016
tp7017
asS'AP53_681'
p7018
(lp7019
(I673942
I674268
g44
S'CDS'
p7020
S'AP53_681'
p7021
tp7022
asS'AP53_687'
p7023
(lp7024
(I678129
I679388
g44
S'CDS'
p7025
S'AP53_687'
p7026
tp7027
asS'AP53_194'
p7028
(lp7029
(I210398
I211681
g44
S'CDS'
p7030
S'AP53_194'
p7031
tp7032
asS'AP53_195'
p7033
(lp7034
(I211685
I212425
g44
S'CDS'
p7035
S'AP53_195'
p7036
tp7037
asS'AP53_196'
p7038
(lp7039
(I212965
I213324
g44
S'CDS'
p7040
S'AP53_196'
p7041
tp7042
asS'AP53_197'
p7043
(lp7044
(I213359
I214117
g44
S'CDS'
p7045
S'AP53_197'
p7046
tp7047
asS'AP53_190'
p7048
(lp7049
(I205695
I206192
g44
S'CDS'
p7050
S'AP53_190'
p7051
tp7052
asS'AP53_191'
p7053
(lp7054
(I206323
I207033
g44
S'CDS'
p7055
S'AP53_191'
p7056
tp7057
asS'AP53_192'
p7058
(lp7059
(I207215
I208660
g44
S'CDS'
p7060
S'AP53_192'
p7061
tp7062
asS'AP53_193'
p7063
(lp7064
(I209055
I210401
g44
S'CDS'
p7065
S'AP53_193'
p7066
tp7067
asS'AP53_994'
p7068
(lp7069
(I996570
I997583
g3
S'CDS'
p7070
S'AP53_994'
p7071
tp7072
asS'AP53_198'
p7073
(lp7074
(I214129
I215043
g44
S'CDS'
p7075
S'AP53_198'
p7076
tp7077
asS'AP53_199'
p7078
(lp7079
(I215128
I215250
g44
S'CDS'
p7080
S'AP53_199'
p7081
tp7082
asS'AP53_448'
p7083
(lp7084
(I456793
I457002
g3
S'CDS'
p7085
S'AP53_448'
p7086
tp7087
asS'AP53_449'
p7088
(lp7089
(I456992
I457150
g3
S'CDS'
p7090
S'AP53_449'
p7091
tp7092
asS'AP53_1747'
p7093
(lp7094
(I1742389
I1743015
g44
S'CDS'
p7095
S'AP53_1747'
p7096
tp7097
asS'AP53_1703'
p7098
(lp7099
(I1700301
I1701569
g3
S'CDS'
p7100
S'AP53_1703'
p7101
tp7102
asS'AP53_228'
p7103
(lp7104
(I245437
I246198
g44
S'CDS'
p7105
S'AP53_228'
p7106
tp7107
asS'AP53_229'
p7108
(lp7109
(I246256
I247374
g44
S'CDS'
p7110
S'AP53_229'
p7111
tp7112
asS'AP53_998'
p7113
(lp7114
(I1002037
I1002822
g44
S'CDS'
p7115
S'AP53_998'
p7116
tp7117
asS'AP53_999'
p7118
(lp7119
(I1002953
I1003567
g3
S'CDS'
p7120
S'AP53_999'
p7121
tp7122
asS'AP53_1702'
p7123
(lp7124
(I1699640
I1700314
g3
S'CDS'
p7125
S'AP53_1702'
p7126
tp7127
asS'AP53_222'
p7128
(lp7129
(I238468
I239478
g44
S'CDS'
p7130
S'AP53_222'
p7131
tp7132
asS'AP53_995'
p7133
(lp7134
(I997663
I1000773
g3
S'CDS'
p7135
S'AP53_995'
p7136
tp7137
asS'AP53_996'
p7138
(lp7139
(I1000958
I1001329
g44
S'CDS'
p7140
S'AP53_996'
p7141
tp7142
asS'AP53_221'
p7143
(lp7144
(I236050
I238128
g44
S'CDS'
p7145
S'AP53_221'
p7146
tp7147
asS'AP53_226'
p7148
(lp7149
(I242461
I244386
g44
S'CDS'
p7150
S'AP53_226'
p7151
tp7152
asS'AP53_227'
p7153
(lp7154
(I244452
I245291
g44
S'CDS'
p7155
S'AP53_227'
p7156
tp7157
asS'AP53_224'
p7158
(lp7159
(I239962
I240702
g3
S'CDS'
p7160
S'AP53_224'
p7161
tp7162
asS'AP53_993'
p7163
(lp7164
(I995005
I996507
g3
S'CDS'
p7165
S'AP53_993'
p7166
tp7167
asS'AP53_1700'
p7168
(lp7169
(I1697663
I1698316
g3
S'CDS'
p7170
S'AP53_1700'
p7171
tp7172
asS'AP53_1707'
p7173
(lp7174
(I1703470
I1704423
g3
S'CDS'
p7175
S'AP53_1707'
p7176
tp7177
asS'AP53_1706'
p7178
(lp7179
(I1702963
I1703199
g44
S'CDS'
p7180
S'AP53_1706'
p7181
tp7182
asS'AP53_1705'
p7183
(lp7184
(I1702423
I1702719
g3
S'CDS'
p7185
S'AP53_1705'
p7186
tp7187
asS'AP53_1704'
p7188
(lp7189
(I1701992
I1702396
g3
S'CDS'
p7190
S'AP53_1704'
p7191
tp7192
asS'AP53_538'
p7193
(lp7194
(I545108
I545392
g44
S'CDS'
p7195
S'AP53_538'
p7196
tp7197
asS'AP53_539'
p7198
(lp7199
(I545385
I546647
g44
S'CDS'
p7200
S'AP53_539'
p7201
tp7202
asS'AP53_536'
p7203
(lp7204
(I543149
I544090
g3
S'CDS'
p7205
S'AP53_536'
p7206
tp7207
asS'AP53_537'
p7208
(lp7209
(I544484
I544933
g44
S'CDS'
p7210
S'AP53_537'
p7211
tp7212
asS'AP53_534'
p7213
(lp7214
(I541478
I542677
g44
S'CDS'
p7215
S'AP53_534'
p7216
tp7217
asS'AP53_535'
p7218
(lp7219
(I542774
I543034
g3
S'CDS'
p7220
S'AP53_535'
p7221
tp7222
asS'AP53_532'
p7223
(lp7224
(I539041
I540588
g44
S'CDS'
p7225
S'AP53_532'
p7226
tp7227
asS'AP53_533'
p7228
(lp7229
(I540736
I541458
g44
S'CDS'
p7230
S'AP53_533'
p7231
tp7232
asS'AP53_530'
p7233
(lp7234
(I536448
I537359
g44
S'CDS'
p7235
S'AP53_530'
p7236
tp7237
asS'AP53_531'
p7238
(lp7239
(I537492
I538889
g44
S'CDS'
p7240
S'AP53_531'
p7241
tp7242
asS'AP53_23'
p7243
(lp7244
(I40755
I42209
g44
S'CDS'
p7245
S'AP53_23'
p7246
tp7247
asS'AP53_22'
p7248
(lp7249
(I36869
I40594
g44
S'CDS'
p7250
S'AP53_22'
p7251
tp7252
asS'AP53_21'
p7253
(lp7254
(I36011
I36745
g44
S'CDS'
p7255
S'AP53_21'
p7256
tp7257
asS'AP53_20'
p7258
(lp7259
(I35647
I35889
g44
S'CDS'
p7260
S'AP53_20'
p7261
tp7262
asS'AP53_27'
p7263
(lp7264
(I45771
I46895
g3
S'CDS'
p7265
S'AP53_27'
p7266
tp7267
asS'AP53_26'
p7268
(lp7269
(I44165
I45712
g44
S'CDS'
p7270
S'AP53_26'
p7271
tp7272
asS'AP53_25'
p7273
(lp7274
(I43427
I43981
g44
S'CDS'
p7275
S'AP53_25'
p7276
tp7277
asS'AP53_24'
p7278
(lp7279
(I42237
I43259
g44
S'CDS'
p7280
S'AP53_24'
p7281
tp7282
asS'AP53_29'
p7283
(lp7284
(I48691
I49182
g44
S'CDS'
p7285
S'AP53_29'
p7286
tp7287
asS'AP53_28'
p7288
(lp7289
(I47148
I48413
g44
S'CDS'
p7290
S'AP53_28'
p7291
tp7292
asS'AP53_1224'
p7293
(lp7294
(I1197740
I1198612
g3
S'CDS'
p7295
S'AP53_1224'
p7296
tp7297
asS'AP53_1225'
p7298
(lp7299
(I1198612
I1198827
g3
S'CDS'
p7300
S'AP53_1225'
p7301
tp7302
asS'AP53_1226'
p7303
(lp7304
(I1198805
I1200145
g3
S'CDS'
p7305
S'AP53_1226'
p7306
tp7307
asS'AP53_1227'
p7308
(lp7309
(I1200298
I1201152
g3
S'CDS'
p7310
S'AP53_1227'
p7311
tp7312
asS'AP53_1220'
p7313
(lp7314
(I1193679
I1194608
g3
S'CDS'
p7315
S'AP53_1220'
p7316
tp7317
asS'AP53_1221'
p7318
(lp7319
(I1194780
I1196441
g3
S'CDS'
p7320
S'AP53_1221'
p7321
tp7322
asS'AP53_1222'
p7323
(lp7324
(I1196463
I1196933
g3
S'CDS'
p7325
S'AP53_1222'
p7326
tp7327
asS'AP53_1223'
p7328
(lp7329
(I1196920
I1197747
g3
S'CDS'
p7330
S'AP53_1223'
p7331
tp7332
asS'AP53_1228'
p7333
(lp7334
(I1201360
I1203054
g3
S'CDS'
p7335
S'AP53_1228'
p7336
tp7337
asS'AP53_1229'
p7338
(lp7339
(I1203232
I1204641
g3
S'CDS'
p7340
S'AP53_1229'
p7341
tp7342
asS'AP53_207'
p7343
(lp7344
(I221438
I222376
g44
S'CDS'
p7345
S'AP53_207'
p7346
tp7347
asS'AP53_1798'
p7348
(lp7349
(I1791179
I1791352
g44
S'CDS'
p7350
S'AP53_1798'
p7351
tp7352
asS'AP53_1799'
p7353
(lp7354
(I1791354
I1791863
g44
S'CDS'
p7355
S'AP53_1799'
p7356
tp7357
asS'AP53_1828'
p7358
(lp7359
(I1818421
I1818954
g44
S'CDS'
p7360
S'AP53_1828'
p7361
tp7362
asS'AP53_1829'
p7363
(lp7364
(I1819108
I1819719
g3
S'CDS'
p7365
S'AP53_1829'
p7366
tp7367
asS'AP53_1794'
p7368
(lp7369
(I1787926
I1788198
g44
S'CDS'
p7370
S'AP53_1794'
p7371
tp7372
asS'AP53_1795'
p7373
(lp7374
(I1788199
I1789056
g44
S'CDS'
p7375
S'AP53_1795'
p7376
tp7377
asS'AP53_1796'
p7378
(lp7379
(I1789025
I1790713
g44
S'CDS'
p7380
S'AP53_1796'
p7381
tp7382
asS'AP53_1797'
p7383
(lp7384
(I1791000
I1791173
g44
S'CDS'
p7385
S'AP53_1797'
p7386
tp7387
asS'AP53_1790'
p7388
(lp7389
(I1786839
I1787180
g44
S'CDS'
p7390
S'AP53_1790'
p7391
tp7392
asS'AP53_1791'
p7393
(lp7394
(I1787167
I1787388
g44
S'CDS'
p7395
S'AP53_1791'
p7396
tp7397
asS'AP53_1792'
p7398
(lp7399
(I1787391
I1787582
g44
S'CDS'
p7400
S'AP53_1792'
p7401
tp7402
asS'AP53_1793'
p7403
(lp7404
(I1787594
I1787923
g44
S'CDS'
p7405
S'AP53_1793'
p7406
tp7407
asS'AP53_1318'
p7408
(lp7409
(I1299661
I1301805
g3
S'CDS'
p7410
S'AP53_1318'
p7411
tp7412
asS'AP53_1319'
p7413
(lp7414
(I1301802
I1302518
g3
S'CDS'
p7415
S'AP53_1319'
p7416
tp7417
asS'AP53_1310'
p7418
(lp7419
(I1292377
I1293243
g3
S'CDS'
p7420
S'AP53_1310'
p7421
tp7422
asS'AP53_1311'
p7423
(lp7424
(I1293231
I1293755
g3
S'CDS'
p7425
S'AP53_1311'
p7426
tp7427
asS'AP53_1312'
p7428
(lp7429
(I1293895
I1295100
g3
S'CDS'
p7430
S'AP53_1312'
p7431
tp7432
asS'AP53_1313'
p7433
(lp7434
(I1295212
I1295667
g3
S'CDS'
p7435
S'AP53_1313'
p7436
tp7437
asS'AP53_1314'
p7438
(lp7439
(I1295677
I1296309
g3
S'CDS'
p7440
S'AP53_1314'
p7441
tp7442
asS'AP53_1315'
p7443
(lp7444
(I1296312
I1296743
g3
S'CDS'
p7445
S'AP53_1315'
p7446
tp7447
asS'AP53_1316'
p7448
(lp7449
(I1296755
I1298641
g3
S'CDS'
p7450
S'AP53_1316'
p7451
tp7452
asS'AP53_1317'
p7453
(lp7454
(I1298654
I1299625
g3
S'CDS'
p7455
S'AP53_1317'
p7456
tp7457
asS'AP53_1170'
p7458
(lp7459
(I1158930
I1159472
g3
S'CDS'
p7460
S'AP53_1170'
p7461
tp7462
asS'AP53_1171'
p7463
(lp7464
(I1159501
I1159620
g3
S'CDS'
p7465
S'AP53_1171'
p7466
tp7467
asS'AP53_1172'
p7468
(lp7469
(I1159633
I1160154
g3
S'CDS'
p7470
S'AP53_1172'
p7471
tp7472
asS'AP53_1173'
p7473
(lp7474
(I1160261
I1160956
g3
S'CDS'
p7475
S'AP53_1173'
p7476
tp7477
asS'AP53_1174'
p7478
(lp7479
(I1160985
I1161101
g44
S'CDS'
p7480
S'AP53_1174'
p7481
tp7482
asS'AP53_1175'
p7483
(lp7484
(I1161195
I1162130
g44
S'CDS'
p7485
S'AP53_1175'
p7486
tp7487
asS'AP53_1176'
p7488
(lp7489
(I1162185
I1162358
g3
S'CDS'
p7490
S'AP53_1176'
p7491
tp7492
asS'AP53_1177'
p7493
(lp7494
(I1162430
I1164292
g3
S'CDS'
p7495
S'AP53_1177'
p7496
tp7497
asS'AP53_1178'
p7498
(lp7499
(I1164823
I1165005
g3
S'CDS'
p7500
S'AP53_1178'
p7501
tp7502
asS'AP53_1179'
p7503
(lp7504
(I1165245
I1166003
g44
S'CDS'
p7505
S'AP53_1179'
p7506
tp7507
asS'AP53_1480'
p7508
(lp7509
(I1454638
I1455060
g3
S'CDS'
p7510
S'AP53_1480'
p7511
tp7512
asS'AP53_1481'
p7513
(lp7514
(I1455057
I1455557
g3
S'CDS'
p7515
S'AP53_1481'
p7516
tp7517
asS'AP53_1482'
p7518
(lp7519
(I1455559
I1456791
g3
S'CDS'
p7520
S'AP53_1482'
p7521
tp7522
asS'AP53_1483'
p7523
(lp7524
(I1456806
I1457540
g3
S'CDS'
p7525
S'AP53_1483'
p7526
tp7527
asS'AP53_1484'
p7528
(lp7529
(I1457530
I1458468
g3
S'CDS'
p7530
S'AP53_1484'
p7531
tp7532
asS'AP53_1485'
p7533
(lp7534
(I1458493
I1459464
g3
S'CDS'
p7535
S'AP53_1485'
p7536
tp7537
asS'AP53_1486'
p7538
(lp7539
(I1459665
I1459889
g3
S'CDS'
p7540
S'AP53_1486'
p7541
tp7542
asS'AP53_1487'
p7543
(lp7544
(I1459950
I1460924
g3
S'CDS'
p7545
S'AP53_1487'
p7546
tp7547
asS'AP53_1488'
p7548
(lp7549
(I1460925
I1461359
g3
S'CDS'
p7550
S'AP53_1488'
p7551
tp7552
asS'AP53_1489'
p7553
(lp7554
(I1461436
I1462227
g3
S'CDS'
p7555
S'AP53_1489'
p7556
tp7557
asS'AP53_1008'
p7558
(lp7559
(I1010209
I1010814
g3
S'CDS'
p7560
S'AP53_1008'
p7561
tp7562
asS'AP53_1009'
p7563
(lp7564
(I1010817
I1011245
g3
S'CDS'
p7565
S'AP53_1009'
p7566
tp7567
asS'AP53_1558'
p7568
(lp7569
(I1539284
I1540378
g3
S'CDS'
p7570
S'AP53_1558'
p7571
tp7572
asS'AP53_1559'
p7573
(lp7574
(I1540588
I1542915
g44
S'CDS'
p7575
S'AP53_1559'
p7576
tp7577
asS'AP53_1004'
p7578
(lp7579
(I1007390
I1008034
g3
S'CDS'
p7580
S'AP53_1004'
p7581
tp7582
asS'AP53_1005'
p7583
(lp7584
(I1008144
I1008836
g3
S'CDS'
p7585
S'AP53_1005'
p7586
tp7587
asS'AP53_1006'
p7588
(lp7589
(I1009069
I1009626
g3
S'CDS'
p7590
S'AP53_1006'
p7591
tp7592
asS'AP53_1007'
p7593
(lp7594
(I1009738
I1010193
g3
S'CDS'
p7595
S'AP53_1007'
p7596
tp7597
asS'AP53_1000'
p7598
(lp7599
(I1004126
I1004347
g3
S'CDS'
p7600
S'AP53_1000'
p7601
tp7602
asS'AP53_1001'
p7603
(lp7604
(I1004412
I1004624
g3
S'CDS'
p7605
S'AP53_1001'
p7606
tp7607
asS'AP53_1002'
p7608
(lp7609
(I1004693
I1005268
g3
S'CDS'
p7610
S'AP53_1002'
p7611
tp7612
asS'AP53_1003'
p7613
(lp7614
(I1005744
I1006523
g3
S'CDS'
p7615
S'AP53_1003'
p7616
tp7617
asS'AP53_507'
p7618
(lp7619
(I510617
I512524
g3
S'CDS'
p7620
S'AP53_507'
p7621
tp7622
asS'AP53_506'
p7623
(lp7624
(I509558
I510553
g3
S'CDS'
p7625
S'AP53_506'
p7626
tp7627
asS'AP53_1701'
p7628
(lp7629
(I1698410
I1699627
g3
S'CDS'
p7630
S'AP53_1701'
p7631
tp7632
asS'AP53_1556'
p7633
(lp7634
(I1536165
I1538618
g44
S'CDS'
p7635
S'AP53_1556'
p7636
tp7637
asS'AP53_1557'
p7638
(lp7639
(I1538709
I1539191
g44
S'CDS'
p7640
S'AP53_1557'
p7641
tp7642
asS'AP53_1554'
p7643
(lp7644
(I1534601
I1535503
g44
S'CDS'
p7645
S'AP53_1554'
p7646
tp7647
asS'AP53_1555'
p7648
(lp7649
(I1535514
I1536107
g44
S'CDS'
p7650
S'AP53_1555'
p7651
tp7652
asS'AP53_1552'
p7653
(lp7654
(I1533588
I1534133
g3
S'CDS'
p7655
S'AP53_1552'
p7656
tp7657
asS'AP53_1553'
p7658
(lp7659
(I1534136
I1534444
g3
S'CDS'
p7660
S'AP53_1553'
p7661
tp7662
asS'AP53_1550'
p7663
(lp7664
(I1530596
I1531096
g3
S'CDS'
p7665
S'AP53_1550'
p7666
tp7667
asS'AP53_1551'
p7668
(lp7669
(I1531100
I1533448
g3
S'CDS'
p7670
S'AP53_1551'
p7671
tp7672
asS'AP53_459'
p7673
(lp7674
(I463059
I463379
g3
S'CDS'
p7675
S'AP53_459'
p7676
tp7677
asS'AP53_458'
p7678
(lp7679
(I462208
I463011
g3
S'CDS'
p7680
S'AP53_458'
p7681
tp7682
asS'AP53_451'
p7683
(lp7684
(I458641
I458865
g3
S'CDS'
p7685
S'AP53_451'
p7686
tp7687
asS'AP53_450'
p7688
(lp7689
(I457478
I458650
g3
S'CDS'
p7690
S'AP53_450'
p7691
tp7692
asS'AP53_453'
p7693
(lp7694
(I459774
I459950
g44
S'CDS'
p7695
S'AP53_453'
p7696
tp7697
asS'AP53_452'
p7698
(lp7699
(I458865
I459749
g3
S'CDS'
p7700
S'AP53_452'
p7701
tp7702
asS'AP53_455'
p7703
(lp7704
(I460307
I460612
g44
S'CDS'
p7705
S'AP53_455'
p7706
tp7707
asS'AP53_454'
p7708
(lp7709
(I460005
I460307
g44
S'CDS'
p7710
S'AP53_454'
p7711
tp7712
asS'AP53_457'
p7713
(lp7714
(I461067
I461837
g44
S'CDS'
p7715
S'AP53_457'
p7716
tp7717
asS'AP53_456'
p7718
(lp7719
(I460631
I460762
g44
S'CDS'
p7720
S'AP53_456'
p7721
tp7722
asS'AP53_187'
p7723
(lp7724
(I202771
I203508
g44
S'CDS'
p7725
S'AP53_187'
p7726
tp7727
asS'AP53_186'
p7728
(lp7729
(I200839
I202623
g44
S'CDS'
p7730
S'AP53_186'
p7731
tp7732
asS'AP53_185'
p7733
(lp7734
(I199130
I200836
g44
S'CDS'
p7735
S'AP53_185'
p7736
tp7737
asS'AP53_184'
p7738
(lp7739
(I198688
I199137
g44
S'CDS'
p7740
S'AP53_184'
p7741
tp7742
asS'AP53_183'
p7743
(lp7744
(I197376
I198392
g3
S'CDS'
p7745
S'AP53_183'
p7746
tp7747
asS'AP53_182'
p7748
(lp7749
(I196444
I197343
g3
S'CDS'
p7750
S'AP53_182'
p7751
tp7752
asS'AP53_181'
p7753
(lp7754
(I195674
I196345
g44
S'CDS'
p7755
S'AP53_181'
p7756
tp7757
asS'AP53_180'
p7758
(lp7759
(I195407
I195526
g44
S'CDS'
p7760
S'AP53_180'
p7761
tp7762
asS'AP53_189'
p7763
(lp7764
(I204145
I205506
g44
S'CDS'
p7765
S'AP53_189'
p7766
tp7767
asS'AP53_188'
p7768
(lp7769
(I203618
I204064
g44
S'CDS'
p7770
S'AP53_188'
p7771
tp7772
asS'AP53_510'
p7773
(lp7774
(I514219
I514707
g3
S'CDS'
p7775
S'AP53_510'
p7776
tp7777
asS'AP53_511'
p7778
(lp7779
(I514743
I515942
g3
S'CDS'
p7780
S'AP53_511'
p7781
tp7782
asS'AP53_512'
p7783
(lp7784
(I515942
I516379
g3
S'CDS'
p7785
S'AP53_512'
p7786
tp7787
asS'AP53_513'
p7788
(lp7789
(I516704
I517498
g44
S'CDS'
p7790
S'AP53_513'
p7791
tp7792
asS'AP53_239'
p7793
(lp7794
(I257856
I259358
g44
S'CDS'
p7795
S'AP53_239'
p7796
tp7797
asS'AP53_238'
p7798
(lp7799
(I255821
I257791
g44
S'CDS'
p7800
S'AP53_238'
p7801
tp7802
asS'AP53_989'
p7803
(lp7804
(I990961
I991602
g3
S'CDS'
p7805
S'AP53_989'
p7806
tp7807
asS'AP53_988'
p7808
(lp7809
(I990322
I990951
g3
S'CDS'
p7810
S'AP53_988'
p7811
tp7812
asS'AP53_235'
p7813
(lp7814
(I251339
I252757
g44
S'CDS'
p7815
S'AP53_235'
p7816
tp7817
asS'AP53_986'
p7818
(lp7819
(I988327
I989100
g3
S'CDS'
p7820
S'AP53_986'
p7821
tp7822
asS'AP53_985'
p7823
(lp7824
(I986722
I987957
g44
S'CDS'
p7825
S'AP53_985'
p7826
tp7827
asS'AP53_984'
p7828
(lp7829
(I985280
I986602
g44
S'CDS'
p7830
S'AP53_984'
p7831
tp7832
asS'AP53_231'
p7833
(lp7834
(I247496
I248266
g44
S'CDS'
p7835
S'AP53_231'
p7836
tp7837
asS'AP53_982'
p7838
(lp7839
(I981821
I982069
g3
S'CDS'
p7840
S'AP53_982'
p7841
tp7842
asS'AP53_981'
p7843
(lp7844
(I981173
I981631
g3
S'CDS'
p7845
S'AP53_981'
p7846
tp7847
asS'AP53_980'
p7848
(lp7849
(I980974
I981162
g3
S'CDS'
p7850
S'AP53_980'
p7851
tp7852
asS'AP53_844'
p7853
(lp7854
(I843899
I844972
g44
S'CDS'
p7855
S'AP53_844'
p7856
tp7857
asS'AP53_517'
p7858
(lp7859
(I520131
I520781
g44
S'CDS'
p7860
S'AP53_517'
p7861
tp7862
asS'AP53_521'
p7863
(lp7864
(I524472
I525401
g44
S'CDS'
p7865
S'AP53_521'
p7866
tp7867
asS'AP53_520'
p7868
(lp7869
(I523787
I524479
g44
S'CDS'
p7870
S'AP53_520'
p7871
tp7872
asS'AP53_523'
p7873
(lp7874
(I526577
I527341
g44
S'CDS'
p7875
S'AP53_523'
p7876
tp7877
asS'AP53_522'
p7878
(lp7879
(I525711
I526346
g3
S'CDS'
p7880
S'AP53_522'
p7881
tp7882
asS'AP53_525'
p7883
(lp7884
(I528817
I531276
g44
S'CDS'
p7885
S'AP53_525'
p7886
tp7887
asS'AP53_524'
p7888
(lp7889
(I527538
I528671
g44
S'CDS'
p7890
S'AP53_524'
p7891
tp7892
asS'AP53_527'
p7893
(lp7894
(I532825
I534171
g44
S'CDS'
p7895
S'AP53_527'
p7896
tp7897
asS'AP53_526'
p7898
(lp7899
(I531611
I532804
g44
S'CDS'
p7900
S'AP53_526'
p7901
tp7902
asS'AP53_529'
p7903
(lp7904
(I535474
I536451
g44
S'CDS'
p7905
S'AP53_529'
p7906
tp7907
asS'AP53_528'
p7908
(lp7909
(I534587
I535477
g44
S'CDS'
p7910
S'AP53_528'
p7911
tp7912
asS'AP53_30'
p7913
(lp7914
(I49169
I50242
g44
S'CDS'
p7915
S'AP53_30'
p7916
tp7917
asS'AP53_31'
p7918
(lp7919
(I50263
I51603
g44
S'CDS'
p7920
S'AP53_31'
p7921
tp7922
asS'AP53_32'
p7923
(lp7924
(I51584
I51697
g44
S'CDS'
p7925
S'AP53_32'
p7926
tp7927
asS'AP53_33'
p7928
(lp7929
(I51973
I53265
g44
S'CDS'
p7930
S'AP53_33'
p7931
tp7932
asS'AP53_34'
p7933
(lp7934
(I53396
I54307
g44
S'CDS'
p7935
S'AP53_34'
p7936
tp7937
asS'AP53_35'
p7938
(lp7939
(I54527
I55525
g44
S'CDS'
p7940
S'AP53_35'
p7941
tp7942
asS'AP53_36'
p7943
(lp7944
(I55663
I56100
g44
S'CDS'
p7945
S'AP53_36'
p7946
tp7947
asS'AP53_37'
p7948
(lp7949
(I56189
I56524
g44
S'CDS'
p7950
S'AP53_37'
p7951
tp7952
asS'AP53_38'
p7953
(lp7954
(I56521
I58296
g44
S'CDS'
p7955
S'AP53_38'
p7956
tp7957
asS'AP53_39'
p7958
(lp7959
(I58605
I61247
g44
S'CDS'
p7960
S'AP53_39'
p7961
tp7962
asS'AP53_1761'
p7963
(lp7964
(I1761970
I1762098
g3
S'CDS'
p7965
S'AP53_1761'
p7966
tp7967
asS'AP53_1760'
p7968
(lp7969
(I1761838
I1761969
g3
S'CDS'
p7970
S'AP53_1760'
p7971
tp7972
asS'AP53_1763'
p7973
(lp7974
(I1762671
I1763435
g44
S'CDS'
p7975
S'AP53_1763'
p7976
tp7977
asS'AP53_1762'
p7978
(lp7979
(I1762154
I1762393
g3
S'CDS'
p7980
S'AP53_1762'
p7981
tp7982
asS'AP53_1765'
p7983
(lp7984
(I1764475
I1765089
g3
S'CDS'
p7985
S'AP53_1765'
p7986
tp7987
asS'AP53_1764'
p7988
(lp7989
(I1763570
I1764301
g44
S'CDS'
p7990
S'AP53_1764'
p7991
tp7992
asS'AP53_1767'
p7993
(lp7994
(I1765607
I1766542
g3
S'CDS'
p7995
S'AP53_1767'
p7996
tp7997
asS'AP53_1766'
p7998
(lp7999
(I1765104
I1765598
g3
S'CDS'
p8000
S'AP53_1766'
p8001
tp8002
asS'AP53_1769'
p8003
(lp8004
(I1766899
I1769097
g3
S'CDS'
p8005
S'AP53_1769'
p8006
tp8007
asS'AP53_1768'
p8008
(lp8009
(I1766571
I1766717
g3
S'CDS'
p8010
S'AP53_1768'
p8011
tp8012
asS'AP53_1819'
p8013
(lp8014
(I1809622
I1810374
g44
S'CDS'
p8015
S'AP53_1819'
p8016
tp8017
asS'AP53_1818'
p8018
(lp8019
(I1808633
I1809556
g44
S'CDS'
p8020
S'AP53_1818'
p8021
tp8022
asS'AP53_550'
p8023
(lp8024
(I559947
I560630
g44
S'CDS'
p8025
S'AP53_550'
p8026
tp8027
asS'AP53_1369'
p8028
(lp8029
(I1342186
I1343511
g3
S'CDS'
p8030
S'AP53_1369'
p8031
tp8032
asS'AP53_1368'
p8033
(lp8034
(I1341549
I1342214
g3
S'CDS'
p8035
S'AP53_1368'
p8036
tp8037
asS'AP53_1365'
p8038
(lp8039
(I1331761
I1332537
g44
S'CDS'
p8040
S'AP53_1365'
p8041
tp8042
asS'AP53_1364'
p8043
(lp8044
(I1330390
I1331613
g44
S'CDS'
p8045
S'AP53_1364'
p8046
tp8047
asS'AP53_1367'
p8048
(lp8049
(I1340921
I1341469
g3
S'CDS'
p8050
S'AP53_1367'
p8051
tp8052
asS'AP53_1366'
p8053
(lp8054
(I1332617
I1333150
g44
S'CDS'
p8055
S'AP53_1366'
p8056
tp8057
asS'AP53_1361'
p8058
(lp8059
(I1328118
I1328459
g44
S'CDS'
p8060
S'AP53_1361'
p8061
tp8062
asS'AP53_1360'
p8063
(lp8064
(I1327708
I1327920
g3
S'CDS'
p8065
S'AP53_1360'
p8066
tp8067
asS'AP53_1363'
p8068
(lp8069
(I1328844
I1330265
g44
S'CDS'
p8070
S'AP53_1363'
p8071
tp8072
asS'AP53_1362'
p8073
(lp8074
(I1328506
I1328829
g44
S'CDS'
p8075
S'AP53_1362'
p8076
tp8077
asS'AP53_1105'
p8078
(lp8079
(I1088151
I1088552
g3
S'CDS'
p8080
S'AP53_1105'
p8081
tp8082
asS'AP53_1104'
p8083
(lp8084
(I1086562
I1088046
g44
S'CDS'
p8085
S'AP53_1104'
p8086
tp8087
asS'AP53_1107'
p8088
(lp8089
(I1089567
I1090925
g3
S'CDS'
p8090
S'AP53_1107'
p8091
tp8092
asS'AP53_1106'
p8093
(lp8094
(I1088637
I1089149
g3
S'CDS'
p8095
S'AP53_1106'
p8096
tp8097
asS'AP53_1101'
p8098
(lp8099
(I1083637
I1084368
g3
S'CDS'
p8100
S'AP53_1101'
p8101
tp8102
asS'AP53_1100'
p8103
(lp8104
(I1083507
I1083620
g44
S'CDS'
p8105
S'AP53_1100'
p8106
tp8107
asS'AP53_1103'
p8108
(lp8109
(I1084968
I1086188
g3
S'CDS'
p8110
S'AP53_1103'
p8111
tp8112
asS'AP53_1102'
p8113
(lp8114
(I1084483
I1084848
g44
S'CDS'
p8115
S'AP53_1102'
p8116
tp8117
asS'AP53_1109'
p8118
(lp8119
(I1092666
I1093157
g3
S'CDS'
p8120
S'AP53_1109'
p8121
tp8122
asS'AP53_1108'
p8123
(lp8124
(I1091007
I1092458
g3
S'CDS'
p8125
S'AP53_1108'
p8126
tp8127
asS'AP53_1676'
p8128
(lp8129
(I1665855
I1667828
g44
S'CDS'
p8130
S'AP53_1676'
p8131
tp8132
asS'AP53_1563'
p8133
(lp8134
(I1545131
I1545976
g44
S'CDS'
p8135
S'AP53_1563'
p8136
tp8137
asS'AP53_1562'
p8138
(lp8139
(I1544030
I1544782
g3
S'CDS'
p8140
S'AP53_1562'
p8141
tp8142
asS'AP53_1561'
p8143
(lp8144
(I1543095
I1544045
g3
S'CDS'
p8145
S'AP53_1561'
p8146
tp8147
asS'AP53_1560'
p8148
(lp8149
(I1542978
I1543091
g44
S'CDS'
p8150
S'AP53_1560'
p8151
tp8152
asS'AP53_1567'
p8153
(lp8154
(I1549705
I1551987
g44
S'CDS'
p8155
S'AP53_1567'
p8156
tp8157
asS'AP53_1566'
p8158
(lp8159
(I1549024
I1549683
g44
S'CDS'
p8160
S'AP53_1566'
p8161
tp8162
asS'AP53_1565'
p8163
(lp8164
(I1547662
I1548858
g3
S'CDS'
p8165
S'AP53_1565'
p8166
tp8167
asS'AP53_1564'
p8168
(lp8169
(I1546312
I1547160
g3
S'CDS'
p8170
S'AP53_1564'
p8171
tp8172
asS'AP53_1569'
p8173
(lp8174
(I1552458
I1552832
g44
S'CDS'
p8175
S'AP53_1569'
p8176
tp8177
asS'AP53_1568'
p8178
(lp8179
(I1552067
I1552288
g3
S'CDS'
p8180
S'AP53_1568'
p8181
tp8182
asS'AP53_1619'
p8183
(lp8184
(I1608056
I1608373
g3
S'CDS'
p8185
S'AP53_1619'
p8186
tp8187
asS'AP53_1618'
p8188
(lp8189
(I1606359
I1608056
g3
S'CDS'
p8190
S'AP53_1618'
p8191
tp8192
asS'AP53_1611'
p8193
(lp8194
(I1598975
I1599580
g3
S'CDS'
p8195
S'AP53_1611'
p8196
tp8197
asS'AP53_1610'
p8198
(lp8199
(I1596843
I1598423
g44
S'CDS'
p8200
S'AP53_1610'
p8201
tp8202
asS'AP53_1613'
p8203
(lp8204
(I1600672
I1601313
g3
S'CDS'
p8205
S'AP53_1613'
p8206
tp8207
asS'AP53_1612'
p8208
(lp8209
(I1599561
I1600658
g3
S'CDS'
p8210
S'AP53_1612'
p8211
tp8212
asS'AP53_1617'
p8213
(lp8214
(I1604865
I1606271
g3
S'CDS'
p8215
S'AP53_1617'
p8216
tp8217
asS'AP53_1616'
p8218
(lp8219
(I1604207
I1604353
g3
S'CDS'
p8220
S'AP53_1616'
p8221
tp8222
asS'AP53_1589'
p8223
(lp8224
(I1569862
I1570716
g3
S'CDS'
p8225
S'AP53_1589'
p8226
tp8227
asS'AP53_1588'
p8228
(lp8229
(I1568473
I1569669
g3
S'CDS'
p8230
S'AP53_1588'
p8231
tp8232
asS'AP53_1581'
p8233
(lp8234
(I1562286
I1562711
g3
S'CDS'
p8235
S'AP53_1581'
p8236
tp8237
asS'AP53_1580'
p8238
(lp8239
(I1561268
I1562296
g3
S'CDS'
p8240
S'AP53_1580'
p8241
tp8242
asS'AP53_1583'
p8243
(lp8244
(I1563695
I1563925
g44
S'CDS'
p8245
S'AP53_1583'
p8246
tp8247
asS'AP53_1582'
p8248
(lp8249
(I1562713
I1563411
g3
S'CDS'
p8250
S'AP53_1582'
p8251
tp8252
asS'AP53_1585'
p8253
(lp8254
(I1565837
I1567183
g3
S'CDS'
p8255
S'AP53_1585'
p8256
tp8257
asS'AP53_1584'
p8258
(lp8259
(I1563927
I1565609
g44
S'CDS'
p8260
S'AP53_1584'
p8261
tp8262
asS'AP53_1587'
p8263
(lp8264
(I1567659
I1568210
g3
S'CDS'
p8265
S'AP53_1587'
p8266
tp8267
asS'AP53_1586'
p8268
(lp8269
(I1567221
I1567592
g3
S'CDS'
p8270
S'AP53_1586'
p8271
tp8272
asS'AP53_514'
p8273
(lp8274
(I517523
I518164
g44
S'CDS'
p8275
S'AP53_514'
p8276
tp8277
asS'AP53_515'
p8278
(lp8279
(I518193
I519194
g44
S'CDS'
p8280
S'AP53_515'
p8281
tp8282
asS'AP53_312'
p8283
(lp8284
(I333398
I333673
g44
S'CDS'
p8285
S'AP53_312'
p8286
tp8287
asS'AP53_1804'
p8288
(lp8289
(I1794912
I1797467
g3
S'CDS'
p8290
S'AP53_1804'
p8291
tp8292
asS'AP53_313'
p8293
(lp8294
(I333921
I334556
g44
S'CDS'
p8295
S'AP53_313'
p8296
tp8297
asS'AP53_310'
p8298
(lp8299
(I332076
I332192
g44
S'CDS'
p8300
S'AP53_310'
p8301
tp8302
asS'AP53_1848'
p8303
(lp8304
(I1840519
I1841778
g44
S'CDS'
p8305
S'AP53_1848'
p8306
tp8307
asS'AP53_311'
p8308
(lp8309
(I332313
I332903
g44
S'CDS'
p8310
S'AP53_311'
p8311
tp8312
asS'AP53_1849'
p8313
(lp8314
(I1841814
I1843022
g44
S'CDS'
p8315
S'AP53_1849'
p8316
tp8317
asS'AP53_316'
p8318
(lp8319
(I335827
I335958
g44
S'CDS'
p8320
S'AP53_316'
p8321
tp8322
asS'AP53_317'
p8323
(lp8324
(I336112
I336435
g44
S'CDS'
p8325
S'AP53_317'
p8326
tp8327
asS'AP53_1805'
p8328
(lp8329
(I1797454
I1797660
g3
S'CDS'
p8330
S'AP53_1805'
p8331
tp8332
asS'AP53_314'
p8333
(lp8334
(I334574
I335449
g44
S'CDS'
p8335
S'AP53_314'
p8336
tp8337
asS'AP53_315'
p8338
(lp8339
(I335574
I335708
g44
S'CDS'
p8340
S'AP53_315'
p8341
tp8342
asS'AP53_1436'
p8343
(lp8344
(I1414399
I1415241
g3
S'CDS'
p8345
S'AP53_1436'
p8346
tp8347
asS'AP53_1806'
p8348
(lp8349
(I1797803
I1798240
g3
S'CDS'
p8350
S'AP53_1806'
p8351
tp8352
asS'AP53_1439'
p8353
(lp8354
(I1416953
I1417570
g3
S'CDS'
p8355
S'AP53_1439'
p8356
tp8357
asS'AP53_1438'
p8358
(lp8359
(I1416127
I1416951
g3
S'CDS'
p8360
S'AP53_1438'
p8361
tp8362
asS'AP53_1846'
p8363
(lp8364
(I1837546
I1838835
g3
S'CDS'
p8365
S'AP53_1846'
p8366
tp8367
asS'AP53_1847'
p8368
(lp8369
(I1838837
I1840081
g3
S'CDS'
p8370
S'AP53_1847'
p8371
tp8372
asS'AP53_428'
p8373
(lp8374
(I432879
I433664
g44
S'CDS'
p8375
S'AP53_428'
p8376
tp8377
asS'AP53_429'
p8378
(lp8379
(I433865
I434014
g44
S'CDS'
p8380
S'AP53_429'
p8381
tp8382
asS'AP53_424'
p8383
(lp8384
(I428731
I428847
g44
S'CDS'
p8385
S'AP53_424'
p8386
tp8387
asS'AP53_425'
p8388
(lp8389
(I428981
I430924
g44
S'CDS'
p8390
S'AP53_425'
p8391
tp8392
asS'AP53_426'
p8393
(lp8394
(I431065
I432057
g44
S'CDS'
p8395
S'AP53_426'
p8396
tp8397
asS'AP53_427'
p8398
(lp8399
(I432161
I432877
g44
S'CDS'
p8400
S'AP53_427'
p8401
tp8402
asS'AP53_420'
p8403
(lp8404
(I423834
I424919
g3
S'CDS'
p8405
S'AP53_420'
p8406
tp8407
asS'AP53_421'
p8408
(lp8409
(I425093
I426094
g44
S'CDS'
p8410
S'AP53_421'
p8411
tp8412
asS'AP53_422'
p8413
(lp8414
(I426225
I427223
g44
S'CDS'
p8415
S'AP53_422'
p8416
tp8417
asS'AP53_423'
p8418
(lp8419
(I427225
I428559
g44
S'CDS'
p8420
S'AP53_423'
p8421
tp8422
asS'AP53_1801'
p8423
(lp8424
(I1792829
I1793191
g44
S'CDS'
p8425
S'AP53_1801'
p8426
tp8427
asS'AP53_730'
p8428
(lp8429
(I724895
I726172
g3
S'CDS'
p8430
S'AP53_730'
p8431
tp8432
asS'AP53_731'
p8433
(lp8434
(I726159
I727334
g3
S'CDS'
p8435
S'AP53_731'
p8436
tp8437
asS'AP53_732'
p8438
(lp8439
(I727543
I728382
g44
S'CDS'
p8440
S'AP53_732'
p8441
tp8442
asS'AP53_733'
p8443
(lp8444
(I728462
I728959
g44
S'CDS'
p8445
S'AP53_733'
p8446
tp8447
asS'AP53_734'
p8448
(lp8449
(I728979
I729149
g44
S'CDS'
p8450
S'AP53_734'
p8451
tp8452
asS'AP53_735'
p8453
(lp8454
(I729279
I730508
g44
S'CDS'
p8455
S'AP53_735'
p8456
tp8457
asS'AP53_736'
p8458
(lp8459
(I730518
I731117
g44
S'CDS'
p8460
S'AP53_736'
p8461
tp8462
asS'AP53_737'
p8463
(lp8464
(I731265
I732008
g44
S'CDS'
p8465
S'AP53_737'
p8466
tp8467
asS'AP53_738'
p8468
(lp8469
(I732066
I734165
g3
S'CDS'
p8470
S'AP53_738'
p8471
tp8472
asS'AP53_739'
p8473
(lp8474
(I734543
I735226
g44
S'CDS'
p8475
S'AP53_739'
p8476
tp8477
asS'AP53_958'
p8478
(lp8479
(I961704
I962357
g3
S'CDS'
p8480
S'AP53_958'
p8481
tp8482
asS'AP53_959'
p8483
(lp8484
(I962425
I963183
g3
S'CDS'
p8485
S'AP53_959'
p8486
tp8487
asS'AP53_950'
p8488
(lp8489
(I952244
I953296
g3
S'CDS'
p8490
S'AP53_950'
p8491
tp8492
asS'AP53_951'
p8493
(lp8494
(I953390
I953779
g3
S'CDS'
p8495
S'AP53_951'
p8496
tp8497
asS'AP53_952'
p8498
(lp8499
(I954430
I955023
g3
S'CDS'
p8500
S'AP53_952'
p8501
tp8502
asS'AP53_953'
p8503
(lp8504
(I955291
I956211
g44
S'CDS'
p8505
S'AP53_953'
p8506
tp8507
asS'AP53_954'
p8508
(lp8509
(I956280
I956513
g44
S'CDS'
p8510
S'AP53_954'
p8511
tp8512
asS'AP53_955'
p8513
(lp8514
(I956638
I957948
g3
S'CDS'
p8515
S'AP53_955'
p8516
tp8517
asS'AP53_956'
p8518
(lp8519
(I957941
I958615
g3
S'CDS'
p8520
S'AP53_956'
p8521
tp8522
asS'AP53_957'
p8523
(lp8524
(I958962
I961499
g3
S'CDS'
p8525
S'AP53_957'
p8526
tp8527
asS'AP53_886'
p8528
(lp8529
(I885421
I886791
g44
S'CDS'
p8530
S'AP53_886'
p8531
tp8532
asS'AP53_887'
p8533
(lp8534
(I886950
I887933
g3
S'CDS'
p8535
S'AP53_887'
p8536
tp8537
asS'AP53_556'
p8538
(lp8539
(I567409
I567909
g44
S'CDS'
p8540
S'AP53_556'
p8541
tp8542
asS'AP53_557'
p8543
(lp8544
(I568103
I570061
g44
S'CDS'
p8545
S'AP53_557'
p8546
tp8547
asS'AP53_882'
p8548
(lp8549
(I880145
I881122
g44
S'CDS'
p8550
S'AP53_882'
p8551
tp8552
asS'AP53_551'
p8553
(lp8554
(I560653
I561576
g44
S'CDS'
p8555
S'AP53_551'
p8556
tp8557
asS'AP53_880'
p8558
(lp8559
(I878440
I878892
g44
S'CDS'
p8560
S'AP53_880'
p8561
tp8562
asS'AP53_553'
p8563
(lp8564
(I562709
I563827
g44
S'CDS'
p8565
S'AP53_553'
p8566
tp8567
asS'AP53_558'
p8568
(lp8569
(I570075
I571097
g44
S'CDS'
p8570
S'AP53_558'
p8571
tp8572
asS'AP53_559'
p8573
(lp8574
(I571490
I571687
g44
S'CDS'
p8575
S'AP53_559'
p8576
tp8577
asS'AP53_888'
p8578
(lp8579
(I888124
I890610
g44
S'CDS'
p8580
S'AP53_888'
p8581
tp8582
asS'AP53_889'
p8583
(lp8584
(I890630
I891379
g44
S'CDS'
p8585
S'AP53_889'
p8586
tp8587
asS'AP53_1444'
p8588
(lp8589
(I1419784
I1420209
g3
S'CDS'
p8590
S'AP53_1444'
p8591
tp8592
asS'AP53_883'
p8593
(lp8594
(I881123
I881722
g44
S'CDS'
p8595
S'AP53_883'
p8596
tp8597
asS'AP53_1446'
p8598
(lp8599
(I1421943
I1422248
g3
S'CDS'
p8600
S'AP53_1446'
p8601
tp8602
asS'AP53_1447'
p8603
(lp8604
(I1422241
I1422714
g3
S'CDS'
p8605
S'AP53_1447'
p8606
tp8607
asS'AP53_1772'
p8608
(lp8609
(I1771166
I1771471
g3
S'CDS'
p8610
S'AP53_1772'
p8611
tp8612
asS'AP53_1773'
p8613
(lp8614
(I1771483
I1771893
g3
S'CDS'
p8615
S'AP53_1773'
p8616
tp8617
asS'AP53_1770'
p8618
(lp8619
(I1769194
I1770753
g3
S'CDS'
p8620
S'AP53_1770'
p8621
tp8622
asS'AP53_1771'
p8623
(lp8624
(I1770972
I1771088
g3
S'CDS'
p8625
S'AP53_1771'
p8626
tp8627
asS'AP53_1776'
p8628
(lp8629
(I1772972
I1774108
g3
S'CDS'
p8630
S'AP53_1776'
p8631
tp8632
asS'AP53_1442'
p8633
(lp8634
(I1418894
I1419244
g3
S'CDS'
p8635
S'AP53_1442'
p8636
tp8637
asS'AP53_1774'
p8638
(lp8639
(I1771899
I1772168
g3
S'CDS'
p8640
S'AP53_1774'
p8641
tp8642
asS'AP53_1775'
p8643
(lp8644
(I1772283
I1772681
g3
S'CDS'
p8645
S'AP53_1775'
p8646
tp8647
asS'AP53_1778'
p8648
(lp8649
(I1775537
I1776097
g3
S'CDS'
p8650
S'AP53_1778'
p8651
tp8652
asS'AP53_1443'
p8653
(lp8654
(I1419254
I1419769
g3
S'CDS'
p8655
S'AP53_1443'
p8656
tp8657
asS'AP53_1808'
p8658
(lp8659
(I1800310
I1800618
g44
S'CDS'
p8660
S'AP53_1808'
p8661
tp8662
asS'AP53_1809'
p8663
(lp8664
(I1800645
I1801517
g3
S'CDS'
p8665
S'AP53_1809'
p8666
tp8667
asS'AP53_1378'
p8668
(lp8669
(I1351444
I1352184
g3
S'CDS'
p8670
S'AP53_1378'
p8671
tp8672
asS'AP53_1379'
p8673
(lp8674
(I1352222
I1353544
g3
S'CDS'
p8675
S'AP53_1379'
p8676
tp8677
asS'AP53_1376'
p8678
(lp8679
(I1348734
I1349426
g3
S'CDS'
p8680
S'AP53_1376'
p8681
tp8682
asS'AP53_1377'
p8683
(lp8684
(I1349549
I1351447
g3
S'CDS'
p8685
S'AP53_1377'
p8686
tp8687
asS'AP53_1374'
p8688
(lp8689
(I1347099
I1347740
g3
S'CDS'
p8690
S'AP53_1374'
p8691
tp8692
asS'AP53_1375'
p8693
(lp8694
(I1347733
I1348737
g3
S'CDS'
p8695
S'AP53_1375'
p8696
tp8697
asS'AP53_1372'
p8698
(lp8699
(I1345285
I1345662
g3
S'CDS'
p8700
S'AP53_1372'
p8701
tp8702
asS'AP53_1373'
p8703
(lp8704
(I1345662
I1347062
g3
S'CDS'
p8705
S'AP53_1373'
p8706
tp8707
asS'AP53_1370'
p8708
(lp8709
(I1343566
I1344198
g44
S'CDS'
p8710
S'AP53_1370'
p8711
tp8712
asS'AP53_1371'
p8713
(lp8714
(I1344326
I1345267
g44
S'CDS'
p8715
S'AP53_1371'
p8716
tp8717
asS'AP53_1116'
p8718
(lp8719
(I1099470
I1100729
g3
S'CDS'
p8720
S'AP53_1116'
p8721
tp8722
asS'AP53_1117'
p8723
(lp8724
(I1100903
I1102099
g3
S'CDS'
p8725
S'AP53_1117'
p8726
tp8727
asS'AP53_1114'
p8728
(lp8729
(I1097679
I1098221
g3
S'CDS'
p8730
S'AP53_1114'
p8731
tp8732
asS'AP53_1115'
p8733
(lp8734
(I1098459
I1099112
g3
S'CDS'
p8735
S'AP53_1115'
p8736
tp8737
asS'AP53_1112'
p8738
(lp8739
(I1095511
I1096371
g3
S'CDS'
p8740
S'AP53_1112'
p8741
tp8742
asS'AP53_1113'
p8743
(lp8744
(I1096387
I1097670
g3
S'CDS'
p8745
S'AP53_1113'
p8746
tp8747
asS'AP53_1110'
p8748
(lp8749
(I1093150
I1094433
g3
S'CDS'
p8750
S'AP53_1110'
p8751
tp8752
asS'AP53_1111'
p8753
(lp8754
(I1094544
I1095509
g3
S'CDS'
p8755
S'AP53_1111'
p8756
tp8757
asS'AP53_1118'
p8758
(lp8759
(I1102636
I1104993
g3
S'CDS'
p8760
S'AP53_1118'
p8761
tp8762
asS'AP53_1119'
p8763
(lp8764
(I1105197
I1106138
g44
S'CDS'
p8765
S'AP53_1119'
p8766
tp8767
asS'AP53_1574'
p8768
(lp8769
(I1555641
I1556810
g44
S'CDS'
p8770
S'AP53_1574'
p8771
tp8772
asS'AP53_1575'
p8773
(lp8774
(I1556907
I1557578
g3
S'CDS'
p8775
S'AP53_1575'
p8776
tp8777
asS'AP53_1576'
p8778
(lp8779
(I1557608
I1558810
g3
S'CDS'
p8780
S'AP53_1576'
p8781
tp8782
asS'AP53_1577'
p8783
(lp8784
(I1558831
I1559610
g3
S'CDS'
p8785
S'AP53_1577'
p8786
tp8787
asS'AP53_1570'
p8788
(lp8789
(I1553025
I1553324
g44
S'CDS'
p8790
S'AP53_1570'
p8791
tp8792
asS'AP53_1571'
p8793
(lp8794
(I1553380
I1554117
g3
S'CDS'
p8795
S'AP53_1571'
p8796
tp8797
asS'AP53_1572'
p8798
(lp8799
(I1554270
I1554857
g3
S'CDS'
p8800
S'AP53_1572'
p8801
tp8802
asS'AP53_1573'
p8803
(lp8804
(I1554906
I1555436
g3
S'CDS'
p8805
S'AP53_1573'
p8806
tp8807
asS'AP53_1578'
p8808
(lp8809
(I1559850
I1560608
g44
S'CDS'
p8810
S'AP53_1578'
p8811
tp8812
asS'AP53_1579'
p8813
(lp8814
(I1560828
I1561097
g44
S'CDS'
p8815
S'AP53_1579'
p8816
tp8817
asS'AP53_1608'
p8818
(lp8819
(I1592646
I1595624
g44
S'CDS'
p8820
S'AP53_1608'
p8821
tp8822
asS'AP53_1609'
p8823
(lp8824
(I1595637
I1596830
g44
S'CDS'
p8825
S'AP53_1609'
p8826
tp8827
asS'AP53_1602'
p8828
(lp8829
(I1583277
I1583390
g44
S'CDS'
p8830
S'AP53_1602'
p8831
tp8832
asS'AP53_1603'
p8833
(lp8834
(I1582886
I1583332
g3
S'CDS'
p8835
S'AP53_1603'
p8836
tp8837
asS'AP53_1600'
p8838
(lp8839
(I1581402
I1582247
g44
S'CDS'
p8840
S'AP53_1600'
p8841
tp8842
asS'AP53_1601'
p8843
(lp8844
(I1582312
I1582872
g3
S'CDS'
p8845
S'AP53_1601'
p8846
tp8847
asS'AP53_1606'
p8848
(lp8849
(I1585036
I1585314
g3
S'CDS'
p8850
S'AP53_1606'
p8851
tp8852
asS'AP53_1607'
p8853
(lp8854
(I1591223
I1592296
g3
S'CDS'
p8855
S'AP53_1607'
p8856
tp8857
asS'AP53_1604'
p8858
(lp8859
(I1583346
I1584110
g3
S'CDS'
p8860
S'AP53_1604'
p8861
tp8862
asS'AP53_1605'
p8863
(lp8864
(I1584100
I1584849
g3
S'CDS'
p8865
S'AP53_1605'
p8866
tp8867
asS'AP53_1598'
p8868
(lp8869
(I1579006
I1579581
g3
S'CDS'
p8870
S'AP53_1598'
p8871
tp8872
asS'AP53_1599'
p8873
(lp8874
(I1579798
I1581081
g3
S'CDS'
p8875
S'AP53_1599'
p8876
tp8877
asS'AP53_1592'
p8878
(lp8879
(I1573738
I1574103
g3
S'CDS'
p8880
S'AP53_1592'
p8881
tp8882
asS'AP53_1593'
p8883
(lp8884
(I1574255
I1574443
g3
S'CDS'
p8885
S'AP53_1593'
p8886
tp8887
asS'AP53_1590'
p8888
(lp8889
(I1570946
I1571836
g3
S'CDS'
p8890
S'AP53_1590'
p8891
tp8892
asS'AP53_1591'
p8893
(lp8894
(I1572074
I1573738
g3
S'CDS'
p8895
S'AP53_1591'
p8896
tp8897
asS'AP53_1596'
p8898
(lp8899
(I1576998
I1577117
g44
S'CDS'
p8900
S'AP53_1596'
p8901
tp8902
asS'AP53_1597'
p8903
(lp8904
(I1577145
I1578749
g3
S'CDS'
p8905
S'AP53_1597'
p8906
tp8907
asS'AP53_1594'
p8908
(lp8909
(I1574825
I1575706
g3
S'CDS'
p8910
S'AP53_1594'
p8911
tp8912
asS'AP53_1595'
p8913
(lp8914
(I1576051
I1576932
g3
S'CDS'
p8915
S'AP53_1595'
p8916
tp8917
asS'AP53_1681'
p8918
(lp8919
(I1673671
I1675299
g44
S'CDS'
p8920
S'AP53_1681'
p8921
tp8922
asS'AP53_1813'
p8923
(lp8924
(I1805478
I1806758
g3
S'CDS'
p8925
S'AP53_1813'
p8926
tp8927
asS'AP53_1812'
p8928
(lp8929
(I1803392
I1805140
g3
S'CDS'
p8930
S'AP53_1812'
p8931
tp8932
asS'AP53_1811'
p8933
(lp8934
(I1802458
I1803399
g3
S'CDS'
p8935
S'AP53_1811'
p8936
tp8937
asS'AP53_439'
p8938
(lp8939
(I446923
I447795
g44
S'CDS'
p8940
S'AP53_439'
p8941
tp8942
asS'AP53_438'
p8943
(lp8944
(I445798
I446649
g3
S'CDS'
p8945
S'AP53_438'
p8946
tp8947
asS'AP53_437'
p8948
(lp8949
(I442006
I445545
g44
S'CDS'
p8950
S'AP53_437'
p8951
tp8952
asS'AP53_436'
p8953
(lp8954
(I441313
I442005
g44
S'CDS'
p8955
S'AP53_436'
p8956
tp8957
asS'AP53_435'
p8958
(lp8959
(I440072
I440881
g44
S'CDS'
p8960
S'AP53_435'
p8961
tp8962
asS'AP53_434'
p8963
(lp8964
(I438716
I440068
g44
S'CDS'
p8965
S'AP53_434'
p8966
tp8967
asS'AP53_433'
p8968
(lp8969
(I438013
I438723
g44
S'CDS'
p8970
S'AP53_433'
p8971
tp8972
asS'AP53_432'
p8973
(lp8974
(I436856
I437851
g44
S'CDS'
p8975
S'AP53_432'
p8976
tp8977
asS'AP53_431'
p8978
(lp8979
(I435514
I436761
g44
S'CDS'
p8980
S'AP53_431'
p8981
tp8982
asS'AP53_430'
p8983
(lp8984
(I434409
I435557
g44
S'CDS'
p8985
S'AP53_430'
p8986
tp8987
asS'AP53_723'
p8988
(lp8989
(I718089
I718673
g44
S'CDS'
p8990
S'AP53_723'
p8991
tp8992
asS'AP53_722'
p8993
(lp8994
(I715791
I717803
g3
S'CDS'
p8995
S'AP53_722'
p8996
tp8997
asS'AP53_721'
p8998
(lp8999
(I715299
I715709
g44
S'CDS'
p9000
S'AP53_721'
p9001
tp9002
asS'AP53_720'
p9003
(lp9004
(I714825
I715043
g44
S'CDS'
p9005
S'AP53_720'
p9006
tp9007
asS'AP53_727'
p9008
(lp9009
(I721739
I722683
g44
S'CDS'
p9010
S'AP53_727'
p9011
tp9012
asS'AP53_726'
p9013
(lp9014
(I720945
I721757
g44
S'CDS'
p9015
S'AP53_726'
p9016
tp9017
asS'AP53_725'
p9018
(lp9019
(I719353
I720585
g44
S'CDS'
p9020
S'AP53_725'
p9021
tp9022
asS'AP53_724'
p9023
(lp9024
(I718676
I719344
g44
S'CDS'
p9025
S'AP53_724'
p9026
tp9027
asS'AP53_729'
p9028
(lp9029
(I723676
I724665
g44
S'CDS'
p9030
S'AP53_729'
p9031
tp9032
asS'AP53_728'
p9033
(lp9034
(I722676
I723689
g44
S'CDS'
p9035
S'AP53_728'
p9036
tp9037
asS'AP53_949'
p9038
(lp9039
(I950573
I952105
g3
S'CDS'
p9040
S'AP53_949'
p9041
tp9042
asS'AP53_948'
p9043
(lp9044
(I949516
I950580
g3
S'CDS'
p9045
S'AP53_948'
p9046
tp9047
asS'AP53_943'
p9048
(lp9049
(I944592
I945284
g44
S'CDS'
p9050
S'AP53_943'
p9051
tp9052
asS'AP53_942'
p9053
(lp9054
(I943560
I944396
g3
S'CDS'
p9055
S'AP53_942'
p9056
tp9057
asS'AP53_941'
p9058
(lp9059
(I942364
I943563
g3
S'CDS'
p9060
S'AP53_941'
p9061
tp9062
asS'AP53_940'
p9063
(lp9064
(I941369
I942367
g3
S'CDS'
p9065
S'AP53_940'
p9066
tp9067
asS'AP53_947'
p9068
(lp9069
(I948558
I949514
g3
S'CDS'
p9070
S'AP53_947'
p9071
tp9072
asS'AP53_946'
p9073
(lp9074
(I946625
I948343
g44
S'CDS'
p9075
S'AP53_946'
p9076
tp9077
asS'AP53_945'
p9078
(lp9079
(I945880
I946449
g44
S'CDS'
p9080
S'AP53_945'
p9081
tp9082
asS'AP53_944'
p9083
(lp9084
(I945277
I945822
g44
S'CDS'
p9085
S'AP53_944'
p9086
tp9087
asS'AP53_899'
p9088
(lp9089
(I897950
I900079
g44
S'CDS'
p9090
S'AP53_899'
p9091
tp9092
asS'AP53_898'
p9093
(lp9094
(I897007
I897843
g44
S'CDS'
p9095
S'AP53_898'
p9096
tp9097
asS'AP53_891'
p9098
(lp9099
(I892362
I892481
g44
S'CDS'
p9100
S'AP53_891'
p9101
tp9102
asS'AP53_890'
p9103
(lp9104
(I891462
I891875
g44
S'CDS'
p9105
S'AP53_890'
p9106
tp9107
asS'AP53_893'
p9108
(lp9109
(I892979
I893890
g3
S'CDS'
p9110
S'AP53_893'
p9111
tp9112
asS'AP53_892'
p9113
(lp9114
(I892489
I892929
g44
S'CDS'
p9115
S'AP53_892'
p9116
tp9117
asS'AP53_895'
p9118
(lp9119
(I894654
I895094
g3
S'CDS'
p9120
S'AP53_895'
p9121
tp9122
asS'AP53_894'
p9123
(lp9124
(I894007
I894657
g3
S'CDS'
p9125
S'AP53_894'
p9126
tp9127
asS'AP53_897'
p9128
(lp9129
(I896151
I896942
g44
S'CDS'
p9130
S'AP53_897'
p9131
tp9132
asS'AP53_896'
p9133
(lp9134
(I895313
I896161
g44
S'CDS'
p9135
S'AP53_896'
p9136
tp9137
asS'AP53_547'
p9138
(lp9139
(I556868
I557926
g44
S'CDS'
p9140
S'AP53_547'
p9141
tp9142
asS'AP53_546'
p9143
(lp9144
(I555921
I556871
g44
S'CDS'
p9145
S'AP53_546'
p9146
tp9147
asS'AP53_545'
p9148
(lp9149
(I553556
I554863
g44
S'CDS'
p9150
S'AP53_545'
p9151
tp9152
asS'AP53_544'
p9153
(lp9154
(I552871
I553329
g3
S'CDS'
p9155
S'AP53_544'
p9156
tp9157
asS'AP53_543'
p9158
(lp9159
(I551015
I552739
g44
S'CDS'
p9160
S'AP53_543'
p9161
tp9162
asS'AP53_542'
p9163
(lp9164
(I548695
I550647
g44
S'CDS'
p9165
S'AP53_542'
p9166
tp9167
asS'AP53_541'
p9168
(lp9169
(I548125
I548694
g44
S'CDS'
p9170
S'AP53_541'
p9171
tp9172
asS'AP53_540'
p9173
(lp9174
(I546762
I547109
g44
S'CDS'
p9175
S'AP53_540'
p9176
tp9177
asS'AP53_549'
p9178
(lp9179
(I559345
I559950
g44
S'CDS'
p9180
S'AP53_549'
p9181
tp9182
asS'AP53_548'
p9183
(lp9184
(I557946
I559304
g44
S'CDS'
p9185
S'AP53_548'
p9186
tp9187
asS'AP53_18'
p9188
(lp9189
(I33789
I34544
g44
S'CDS'
p9190
S'AP53_18'
p9191
tp9192
asS'AP53_19'
p9193
(lp9194
(I34647
I35654
g44
S'CDS'
p9195
S'AP53_19'
p9196
tp9197
asS'AP53_12'
p9198
(lp9199
(I10950
I12236
g44
S'CDS'
p9200
S'AP53_12'
p9201
tp9202
asS'AP53_13'
p9203
(lp9204
(I12241
I12783
g44
S'CDS'
p9205
S'AP53_13'
p9206
tp9207
asS'AP53_10'
p9208
(lp9209
(I9529
I9654
g44
S'CDS'
p9210
S'AP53_10'
p9211
tp9212
asS'AP53_11'
p9213
(lp9214
(I9667
I10953
g44
S'CDS'
p9215
S'AP53_11'
p9216
tp9217
asS'AP53_16'
p9218
(lp9219
(I31192
I32388
g44
S'CDS'
p9220
S'AP53_16'
p9221
tp9222
asS'AP53_17'
p9223
(lp9224
(I32641
I33603
g44
S'CDS'
p9225
S'AP53_17'
p9226
tp9227
asS'AP53_14'
p9228
(lp9229
(I12805
I14784
g44
S'CDS'
p9230
S'AP53_14'
p9231
tp9232
asS'AP53_15'
p9233
(lp9234
(I15110
I16501
g44
S'CDS'
p9235
S'AP53_15'
p9236
tp9237
as.