(dp0
(S'AP53'
p1
S'AP53_pseudo595'
p2
S'-'
p3
tp4
S'ATGATTAAAGACACATTTTTAAAAACCAATTGGTTAAATATTAGTCACCATATTATCCTTCTTGTTTTCGGTTTTTATTTCAGTTTTTACAGTTTGGCGAAAGAACTAGTAAGCTCCACGACACAACCGGTAAACTATTATACTCATTTACTAAATGTTTCTTTTGTGGGATATATTATATCACTGATTGGATTATCTTATTATTTGAGTCGCCAAGTTAGTCGACAGTTGTTTTTGAAAACTAGTTTTATTGTGATATCTTATCTAATTGTCAGCTATTGGGTACAAATAACACAGCACCTGAATGATAAACGGTTTGATATCTGGTCATTAACTAAAAATCAATTTTATCAATTTCAAGCTCTACCTTCTTTACTCATTATTTTAGTGATGGCCACTTTAATAAAAATATTGGTAGCATATTTTGCAATAGAAAAAGATAGATTTGGGCTATTAGGCTATCAAGGTAATACTTTTTCTGTAGCTCTGATTTTAGCAGTTGTGCCAATTAATGACATACATCTGTTAAAACTAATAAGTTCTCGATTTTCTGAATTAGTAACAGCAGGTAATAGCCAAATTGCACTGTTAAAAATAAGTGGACTGTTGATAGTTTTACTTGTCATATTTGCAACAATCATATACGTGGTTTTAAATGCT'
p5
s(S'AP53'
p6
S'AP53_pseudo268'
p7
g3
tp8
S'ATGGAAAATCAGAAACAAAAACAGAAGAAATATAAAAACTCGTTACCAAAACGACTATCTAATATCTTTTTTGTTCTTTTTTTCTGCATTTTCTCTGCCTTTACACTGATTGCCTATAGTTCAACAAACTATTTCTTATTGAAGAAAGAAAAGCAGTCAGTTTTTCAAGCTGTAAATATTGTTAGAGTTCGTCTTTCTGAGGTGGACTCTAATTTTACATTAGAGAACTTAGCAGAAGTTTTGTACAAAAACGATAAAACACATCTGAGAATTGATGACAGAAAGGGCAGTCGAGTCATTAGGAGTGAGCGCGATATCACAAATACTCTAGATGCGAATCAAGATATTTATGTCTATAACATTGATAAACAGATGATTTTTACCACAGATAATGAAGAATCATCTCCTGGCTTGCATGGTCCTATCGGTCGGGTGTATCACGACCATATCGAAGATCAGTATCGTGGGTTTTCCATGACACAAAAGGTATATTCTAATCGGACTGGAAAATTTGTGGGCTATGTTCAAGTCTTTCATGATTTAGGCAATTATTATGTCATTAGAGCAAGACTGCTGTTTTGGCTACTAGTTGTTGAGTTATTTGGCACAAGCTTAGCCTATTTAATCATCTTAATTACTACGCGGCGCTTTTTGAAGCCTTTACACAATTTACATGAAGTAATGCGTAATATCTCTGAAAATCCTAATAATTTAAACCTGCGCTCAGATATTTCGTCAGGAGATGAAATCGAAGAATTGTCTGTTATCTTTGACAATATGTTAGACAAATTGGAGACACATACTAAGTTGCAATCACGTTTTATTAGTGATGTCAGCCATGAATTACGAACACCGGTTGCGATTATTAAAGGGCATATTGGTCTCTTACAACGTTGGGGTAAAGATGACAGTGATATTCTTGAAGAAAGTTTGACAGCAACAGCGCATGAGGCTGACCGTATGGCAATCATGATTAATGATATGTTAGACATGATTCGCGTACAAGGCTCATTTGAGGGACATCAAAATGATATGACAGTTTTGGAAGATTCTATTGAAACTGTTGTTGGTAATTTTAGAGTTTTAAGAGAAGATTTTATCTTTACATGGCAGTCAGAAAATCCAAAAACGATAGCCCGTATTTATAAAAATCATTTTGAGCAGGCTTTGATGATTCTTATTGACAATGCTGTGAAGTATTCCCGTAAAGAAAAGAAAATCGCGATTAACCTTTCAGTGACTGGCAAACAAGAAGCTATTGTTAGAGTTCAAGATAAAGGCGAAGGAATTTCTAAAGAAGATATTGAACATATCTTTGAACGCTTTTATAGAACGGATAAATCACGTAATCGAACAAGTACTCAGGCTGGATTAGGGATTGGCTTGTCTATTCTCAAGCAAATGTAGATGGGTATCATTTACAGATGAAGGTTGAAAGTGAATTAAATGAAGGTTCAGTGTTTATCTTACATATTCCTTTGGCCCAGTCTAAAGAGAGTTAG'
p9
s(S'AP53'
p10
S'AP53_pseudo388'
p11
g3
tp12
S'ATGTTACACAAAGAAAAACCTGACTATAACCGCAATCAGTACGGTTTCTATACCCTTGACCAGATAGTGCCTGATGAACATTTCCTGCGCCAAGTGGAAGCTGTGATTGACTTCGACTTCATCTATGACCTAGTAGAAGACACCTATTCGTCTGATAATGGTCGCCCTAGCCTTGATCCTGTCATGTTGGTTAAAATCCCTCTGATTCAGTGCTTTTATGGCATTCGTTCCATGCGTCAGACCATCAAGGATATTGAAGTGAATACTGCCTATCGCTGGTTTTTAGGTTTGACTTTGGATGACAAGGTGCCACATTTCACAACCTATGGCAAAAATTATTCCCGTCGCTTTCAAGAAAAAGGCTTGATTGAGTCCATTTTTACGCATATTCTTGGGCTATGTATCAATACAGGCCTGATTGACCCGACGGAGATTTTCATAGATGGGACTCATATTAAGGCTGCGGCTAATAATCGCAAGTTCATCAACCGAGAGGTGGAAAAACAAGCCAAGTTCATGAGTGAACAGCTAGAAATCGAAATCAATCGGGATAGGGAGAAGCATGGAAAAAAAGCCGCTAGAGCCCGCCAAAGAGCTAGAGCCCGTCGCTAAGAAAATCTCCACAACCGATCCAGAAAGTGGCTGGTTTCACAAAGGTGATCATAAGGAAGTCTTCGCTTATTCTGCTCAGGTGGCTTGTGACAAGTATGGATGGGCGCTTGCTTATAGTGTTGAGGCTGGCAATATCCATGATAGTCAGGCTTTTCCTGAACTTTTTGCCAAGCTTGAACCCTTGAAACCACAGTTTATTATTGCGGATTCCGGCTATAAAATTCCCAGCATTGCCAAGTTTCTGATTGATAAGGAGATCACTCCTGTCCTTCCTTACACACGACCAAGAGGAAAGAAAGACCTTCTACGTCCGAAAGAATTTATTTATGATGAGCACTTTGATTGTGTCATCTGCCCTGAACATCAAGCCTTGACCTACCGCACTACGACCAGAGAAGGCTCCCGAGAATACAAAAGTGACCCTGCAATTTGTGCCAATTGTCCCCTGTTATCTGTATGTCCGACCAGTAAGAACCACCAAAAAGTTGTCACACGGCATATTTGGAAAGACTATTTGGAACAGTGCGAGGACATTCGTCATCAAAGGGGGATGAAGGAGCTCTACCAGCATCGGAAAGAGACGATTGAACGACTATTTGGCACAGCCAAGGAATACCACAATCTCCGCTATACGAGAGAGAAAGGCAAGTCCAAAATGGAAGATAAGGTTGGACTGACTTTGGCATGCTTAAATCTCAAAAAACTGGTCAAAAGGATGGCGGGAGAGCCTTTTTATTTTGTTCAGATGAGGTGGTTTAAGCACGGAAACAGCCATTTTTATCTAAAAACACTAAAAAAGACAAACACCAAATCGATGTTTGTCTTCAATCTGAAGCCACCCGTTTTCACGGGTGGTTTTTATTTATATAAAGCTATCAGATAA'
p13
s(S'AP53'
p14
S'AP53_pseudo603'
p15
g3
tp16
S'CTATTGTTTTGGTTCGTGGTAAGTCAAAGCTTGCTCACTGTCTGACAGGCCTTTCGTGGTTGGATCTGCGACAACACCGAGCAATACCAAAAGCGTTACAGCTGTGTTTGCAATATCCGCGATGTTTGATGGTAGTTTAATACCTAATTGCTGTGCCAGTAAAAAGATAGCTCCTAAAATAGCCATCAAGGTTACTTTGTTTTGTAGTCGTAATTTTAAATTGATCATGCTTCACCTCTCATAATATCTTTAAGTTCTCTTACCTCACGATTGAGGTTTTTAATTTGCTCTGTCATTGTGATGAGCGTTTTGTTTTGCTCATCATGCTCCTCAAGACGCCGAGCATTTTGGCGTGTAACAATTTTTAAATGCTCTACTTCAGACTGCAACAAAGTAATATCTGTCGCATGCTTGATGGATTTTGCATTAAAAATATTGTAAGTCGTGACGATAGCTAAAATAAAGCCACCAAGACCAAATATCAACTCTGTTGCCAT'
p17
s(S'AP53'
p18
S'AP53_pseudo1615'
p19
g3
tp20
S'TCAATCGGTGTAATCTTTTTCATTTTCAATACTCCCTTTTGGAACATCTAATAACAATAATGATGGTACTTCATAATTGGATATATATCTAAGTAACTGGTATGCTATCCCTATTTCACCAACCATCATATTAAACACTCTTGTGTGTTGTGGCAAGCCAGATTCCCAACCAAATTTTTGAGAATTACGAACAATATTAAGTATGATACCTTCTATATCTACTTCATTTTTCAAGGAGTCATCTAAATTCATAAATAATTCCATGTTGCCCATTTTCCCGTGACAAAGGCAATCCGAATTCAAATAACCATTATTTAATACCGTTTGTTTAGCCATTTCATAATTATTTTTCAACTCTTTATCGTTTAACCATTTTGATTCTCTATATCTCGTTAATCCGATACCTGTTGCACCATGACACCAATAAATAGGTTCTGGCATTCCTAACTCTGAACGTTTTCCTTTATTTCTAAAATCAATCCAATTTCCATCAGAAATACGGGTATTTTCAAAATCAATAGCTGACTTCGCTATTTTAAAATAATTATAATTTTTATTGATTTTCCATGATAAAAGTAATGCATATGCAATCCCAGATTGTCCGTGAGATAGTCCATTTAGAATTTCTGAATCTGAAAAATCCGATACCCAATAAACCTTATCATCTTCTTTTTTCACATTATCAATAATAAATTCAGATATCCTATTAATTAAATGATATACTGTTTTATTTTGCTCTACATTATATATGTTGCACAGAACAACTAATAAACCAGACACTCCAGAAATATAATCTATATTTTGCTCCTCTAGTGACTGGCTGGAAAATTCTTTGATTATGTCTAAATATAATTTTTGGTATTGAGGTAATTTAAGTCTTTTCCACAAACTAAAGTATAGATAAATCAAACCTCCTTTTCCCAAAAAAACTGACATATCACTAGTTTCTATAAGATTCTTTGTGGTTTCCAATGTTTTCAATATCTTATTTAATGATACTAGATATTGCTCTTCACCAAGAATTTGATAAGCATATAAATAACCTAAGGCATTCCCAATCAATCCATTATACAAGGTAATGTTCTGAGGAGATATTACCCATTGCTCAGTCTCTGTAATATCAATATTGAGCCATGTTATCTCCTCCTCTGAAGAAAAGCTATTCTTATCTGCATCAATAAATATTCGTCTAATGCTGTCTAAGATTTCCTCACTAAAATTGTGTTCTGAGGAGATTGATAAAAACTGATAAGATTTGCCCTTTTCCCTCTCCCAATGCTTAATCGGTTTTTTCAAGACTATTCCAAGCAATTCGCAAGTGAACTTCATTCTTTCATCATTCAGGGTAGCTATATTATCAAATAATGAGGTTGTCTCTCCTAGATTTCCAATTACTGTTCCTAAAGAATTATATACATTTCCACTGGTATCCATTGAAAAGTAAGGAATATCACCATTCATCAAATCTTTAATTTCACTAACAACAATAAATTGTTCAATATGTTTTGACTCATGTAGTATCGAAAATAAATTCTCCCTCTTTTTTTCTGAGAAAAGATATTTTGGATTCGTAGAGGCTTGTAAAAATTTTCCATAGTCGGAAGTATTTCTGAATATGGCTCTAGTTTTCAATTTTGGGAAATCTTCTAAAATTTTTTTAACCTTTGCACGTTGCGACATAAGAAATGTATAGCATTCTCTAAAACCTGCAATTACCTCATTAGCATAGTCGAGAGGCTCTACCACTTTCCCATTTAATGTCGGAATATTATAACCATCTTCCTGAAAATAGTCAGTTTTCACTAACTTCATATCTCCACGATTTTTATTTATCAGTTCATACTTTCCCTTTTTTCTTTTCCCACCTTTTCCACTTATCCCAGAAACGTTAGGAGCGCTGTTTTTCTCAAATTGTACAGGAAATAAACCATTTGAAAGTGATGTCTTATAAATTCTCTGATAGGTGTCTACAGTAATCCCTTCAAAATTCTGATTTTGTACATTCAACTTTCTTTGAAAAAAGGTTTCAACGTCAATTAAATATAAATCTCCGCCTGAAACAATCACATTTTCCATATGTAAGTCCGTAATAGAAAATATTTCAGAAAATGCTGCTAAAACACCATACTTAAAGTAAATTTTCGCTACTTCATCTTTATTGGAACTTGTATAAGCTACACCAAGTTGCCAACAATAATCCGCTTTAATTAAGCTTTCAGGAAGACTGAACGAAGGTATATTATTAGATTTCAATAGACTAATAAGTTCCAACAAGATGTTGTATGAATCATAGCTTTTAGGCTTTTAGTAAACGGATTTCCCTTTAAATTCAATCTTAACGACTGTTTGTTTTTGGGAATGACTGTCTCCAAGTGAAAATTCAACATTACTTAAGGACTCAGTAATATTAAAGCATGACCTTATTTCAGACAAATCTTTTAAAAACCTATCAAATAGCAAAGAGTATGATTCCACTACCAATCCAACTTCTCTATTGATTTGTTTTAGCAAATATGGATATCTGTCAAAAAAATTACTTATCCCATTTTCTTCCCTTATCTGCTGTATATATTGTTCATATGCCTTTGACTTGTTTTCAATTTCCTTGGAAAAATGATTTATATCTAGAACTAGTGTTTTCATTGAAAGAAACATTATAGTTTCAAATAACTGATTTTCAAACTCACTATAAAATAACTTATGTGTCTTTTCCCTTAACAAATAAATATTTTCACTAATAGAAGTATCTAATATGTCGTAATCAAAAATTGAGTTAAAGTACTCGTAAAACTGATGTTGCTGATATTCTAACTTTAATTCATTTCTTTTTATCAT'
p21
s(S'AP53'
p22
S'AP53_pseudo1183'
p23
g3
tp24
S'CTATTGTTTTGGTTCGTGGTAAGTCAAAGCTTGCTCACTGTCTGACAGGCCTTTCGTGGTTGGATCTGTGACAACACCGAGCAATACCAAAAGCGTTACAGCTGTGTTTGCAATATCCGCGATGTTTGATGGTAGTTTAATACCTAATTGCTGTGCCAGTAAAAAGATAGCTCCTAAAATAGCCATCAAGGTTACTTTGTTTTGTAGTCGTAATTTTAAATTAATCATGCTTCGCCTCTCATAATATCTTTAAGTTCTCTTACCTCACGATTGAGGTTTTTAATTTGCTCTGTCATTGTGATGAGCGTTTTGTTTTGCTCATCATGCTCCTCAAGACGCCTAGCATTTTGCCGAGTGACAATTTTTAAATGCTCTACCTCAGACTGCAACAAAGTAATATCTGTCGCATGCTTGATGGATTTTGCATTAAAAATATTGTAAGTCGTGACGATAGCTAAAATAAAGCCGCCGAGGCCAAATATCAACTCTGTTGCCAT'
p25
s(S'AP53'
p26
S'AP53_pseudo73'
p27
g3
tp28
S'ATGATGGCAATCAATGAGAGAGCTTCTGCAAAAATCAAGTTAGGCCTTGATACTAAGAATAAGCGATGAGATGGTTACCACGATTTATCGATGGTCATGATGAGTATTGATCTGTGTGACTATGTGACGGTTGACCATATAGATGACAATAAGATTGTCTTTGCCTCAAACTGTCCGAAAATACCTATTAACTAAGATAATGATGTTTATAAGATAGTTAAGCTAATGAAACATCGATTTCAAGTTAAAAGAGGAGTTTCCGTTTACTTGGAAAAGCGGATTCCCATGTGTGCTGGTATGGGAGGGGGTTCTAGCGATGCTGTTACTATCAGAGCATTAAATCAGCTATGGCTCCTTACTCTTAGCCGAAAAGATATGATGGATATTGGTATACCGATTGGTAGTGATGTGCCTTATTGCTTGCTTTCAGGTTGTGCCCAAGTCACTGGTAAAGGTGAAGTGGTTTGTCGCATTTTGGGGCTGTTATCGTCTTGGGTGGTTTTGGTTAAACCAGATTTTGGTATCTCGACTTGAACAATTTTTCTAGATATTAATTGTAAAACCATTTCAAGAGTGTCTACTACTCATTTGGTTGCGGCGATTGAAGCGGGTAACTATAATGATGGGATATTGACTGAAATGAACAATTTGCTGGAAGATATTTTCATTGCCAAGCGACCCTTTATTCAAAAAATAAAAGAGAAAACACTGCAAGCTGGTGCTGCTACTACTTTGATGACAGGAAGTGGACCGACTGTTTTTGCTTTGTGCCAGACCGAAAAACAAACTATAATAGTTTAA'
p29
s(S'AP53'
p30
S'AP53_pseudo1695'
p31
g3
tp32
S'TTAGTTTTCTTCTTTGCGTTTTAGGGCAAATACGCCTGCAGATGCGATCACTGTTAATGCTGCTGCAGTGAAGAATGGGTTGGTTGTTTCTTCGCCTGTTGACGGTAATTGTCTCTTTGTTTGAGCCATAGGAGCTTTATTAGTGTTTGTTCTTGTTTGTGATGGTCTTGTTGGAACCTCTTTATTGCCAGGTATAGTATCTGGTTTTTGAGCTCCTGAAGCTTTATCTGCTTTTAGCTTAGCAAGCTCTTCAGCTTGTTTTGCTAATTGCTCTTTAAGAGCTTTTGCTTCAGCTTCTAACTTTTCTTTTTCTTGGTTGGTTGCTGCTAATTTAGCCTGTAAATCAGCTAACTCTTTTTTAGTTGCTTCTAGTTGTTTTTCTAGGGCTGCTGCTTGTGATTGGAGCTTTTCTTTTTCAGCGTTAGCTGCATCTAGCTTAGCTTGCAGATCAGTCAATTCACGCTTAGCTGAACCTAGGAGGTTTTCTAAGGTTGTTACTTGTGATTCTAGTTTTACTTTTTCAGCAGTTGCTGTATCTAGCTTAGCTTGCAAGTCAGTCAACTCACGCTTAGCTGAACCTAGGAGGTTTCCTAAAGTTGCTGCTTCTGATTGCAATTTAGCAATTTCCTCAGTCTTAGAGGCATCTTGTTGTTTCAATGCCTCAATCTCAGCATTTTTTGCCTCTAACTGGCTTTTTGCAGCTGCAAGTTCTTGTTGTTTTGCTGCGATTTCACGACTAGCGTTTTGGATAGTTTGCACATAACCTTCAATGGCTTCTTTTAACTGTGCGTTTTCGTTGGTTAATTTAGCAATCTGCTCGTTTTTATTGTTTAAAGCTTCAAGGGCTTGTTGGTTTTTAAGTTCTGCTTCAGACTTTAATGCTGCAATCTTGCGGCTTTGCTCGCTAATGGTTTATGACATGTGGTTAATAGTGTCACCCAGTTCACGTGCTTGTTTTTCCAAGGCTTTGCGCTCTTCGAATACTTTGTTAGCTTCTTTACCTGGCAGTAACACACGAGGAGGCACCTGGTAACCACGACTCTCAGCCTTTACATCAGTTGTGTTTGCTAAGCCAGTCCCCAAAACTGTCAAAGCTACTGCTACTGATGCAGTACCTGTTTTTAACTTTCTCAGTGAGTAGTGTTTGTTTGGATTTCTTTTAGACAT'
p33
s(S'AP53'
p34
S'AP53_pseudo1337'
p35
g3
tp36
S'TTAGTTTAGTTGTATAACACTTTCTCCAGTTAATTCTTCCCAGCGTTTTATAATGACATCTACATATTTTGGGTCATATTCCATTAATCTAGCGTGACGACCATTTGACTCACAAGCAATTAACGTTGTCCCAGAGCCACCAAACAAATCAAGGACAATGTCGCTTCCCTTTGTGTTGTTTTTGATTTGGTAATCAAAAAGTCCGACAGGTTTCATTGTTGGATGAACGCCATTTCATTGAGGTTTCTCATAATCAATAACTGTTGTTTGCTTTCTGTCTGAAGCCCACAAGTGACCAGCGCCATCTTTCCAGCCATAAAGACAAGGTTCGTGCTTCCAATGATAATCTTGGCGACCGAGAACCATTGAGTTTTTATTCCAAATTAAGCATTGACGTACTGTCCAACCGATATCAAAACAAGCACCTCTAAAATTATAGCCTTCTGAATCAGCATGCCAAATATAAAAAACAGCGCCTGGCTTCATAACTTCATTTGCAGAACTAAAAGCATTAACCAAGAACTGTCTAAAACTGTCATTATCCATACTGTCGTTTTTTATAGTTAAACTATCTTTTGTTTTACCCTCATAAGCCACGTTGTATGGTGGGTCTGTAAGTAGTAAATCAGCTAATTCTCCATTCATAAGTTTTTTAACATCGGCTCCATTTGTACTGTCGCCGCACATCAACTTGTGACTACCAAGTTGATAAATGTCACCAAGTTTTGACTTTGGCTCATCTGGCACAGTCTCTGTAAAATCGTCTAAATCTTTTTCATCTTCGATTAAATCATCTAAATTATCTAAAACGTCAAATCCAAAAGCAGACATATCGAGGTCTAAAATGTCGTTTAATTCTTCGTTTAACAAATCTAAATCCCAAACCGCAATCTCACCAACTTTATTGTCAGCAAGTCTGAACGCTTTAATTTGCTCTTCAGATAAGTCATCTGCGACAATAACAGGAACTGTTTCTAGCCCTAATTTTTGGGCTGCTTTATAACGAGTGTGGCCGTTTACGATTTCGCCGTTTTTATCAACGACAATAGGCACTTTAAAACCAAACTCTTTAATAGATTCAGCAACTGGTCCAACCGCCTCATCATTGTTTCTAGGGTTATTTTTATAAGGTGTTATTTCACTTAATTTTTTGTCCACAAACTCCAT'
p37
s(S'AP53'
p38
S'AP53_pseudo1389'
p39
g3
tp40
S'ATGACACATACTAAAGAAGTTGCATTTATCACTGGTGCTGCAAGCGGAATTGGAAAACAAATCGGGGAAACCTTATTAAAAGAAGGTAAAACGGTTGTTTTTTCCGACATTAATCAAGAAAAACTGGATCAGACTGTTGCTGACTATACTAAAGAAGGCTATGACGCTTTTAGTGTTGTGTGCGATGTCACCAAAGAAGAAGCCATCAATGCTGCTATTGATACGGTTGTTGAAAAATATGGTCGTATTGATATTTTGGTTAACAACGCAGGCCTTCAACATGTTGCCATGAATTCAAATTTTCCAACTGAAAAATTTGAATTCATGATTAAAATCATGTTGACAGCACCATTTATTGCCATTAAACGTGCTTTTCCTACAATGAAAGCTTAAAAACACGGTCGTATTATTAATATGGCTTCTATCAATGGTGTCATTGGTTTTGCTGGCAAATCCGCCTACAATTCAGCTAAGCACGGCTTGATCGGTCTGACCAAAGTAACTGCCTTAGAAGCTGCTGATTCAGGCATTACGGTCAATGCCATTTGTCCTGGATATGTTGACACACCACTGGTTCGTGGCCAGTTTGAAGACCTTTCCAAAACAAGAGGTATTCCCCTTGAAAATGTTCTTGAAGAAGTGCTATACCCACTTGTTCCTCAAAAACGCCTCTTTGACGTTCAAGAAATTGCAGACTATGTGTCTTTCCTTGCCAGTGATAAGGCAAAAGGTGTTACAGGTCAAGCCTGTATCTTAGACGGTGGCTACACTGCTCAATAA'
p41
s(S'AP53'
p42
S'AP53_pseudo656'
p43
g3
tp44
S'GCTCTAAAACACCTTAAGTCAAATAAACCTTCATTTTCAGTAGCAGCTACTACTAGTTTGTTTTTAGCATTAGTTTTTAACTATACGTTCCAGTATGGAGTAAAAGGTGATGAAGCATTGCTAGGATATTATGTTTTCCCTGGAGCTACTCTTTTTCAGATAGTAGCTATTACACTAGTTGCTCTTTTAGCATACGTGATAACGAATAGATATTGGCCAACTACCTTCTTTTTGCTTATTCTGGGAACAATTATTTCTGTTGTTAATGATTTAAAAGAATCAATGAGAAGCGAGCCGTTATTAGTAACTGATTTTGTTTGGTTACAAGAATTAGGTTTAGTGACAAGCTTTGTTAAAAAATCGGTGATTGTAGAAATGGTTGTAGGACTTGCTATTTGTATTGTGGTAGCTTGGTATCTACATGGCCGAGTTTTAGCAGGGAAATTATTTATGAGCCCTGTCAAACGGGCAAGTGCTGTATTAGGTTTATTTATTGTATCTTGTAGTATGTTAATACCATTTTCTTATGAAAAAGAAGGTAAAATATTATCTGGTCTTCCGATTATTTCGGCTTTAAATAATGATAATGATATAAACTGGTTAGGTTTTTCAACAAATGCTAGGTACAAATCTTTAGCATATGTTTGGACAAGACAGGTGACCAAGAAAATAATGGAAAAACCGACAAATTATAGCCAAGAAACAATAGCGAGTATCGCTCAGAAGTACCAAAAATTAGCAGAAGATATTAATAAAGACAGAAAAAATAATATTGCTGACCAAACGGTTATTTATCTTTTAAGTGAAAGCTTGTCAGATCCTGATAGAGTATCAAATGTTACTGTTAGCCACGATGTTTTACCTAATATCAAGGCAATCAAAAATAGCACAACTGCGGGACTCATGCAGTCAGACTCCTACGGGGGTGGAACGGCTAACATGGAGTTTCAAACGTTAACAAGCTTACCTTTTTATAATTTTTCTTCTTCAGTATCTGTTCTTTATTCAGAAGTCTTTCCTAAAATGGCCAAACCTCATACGATTAGTGAGTTTTACCAAGGAAAAAATCGTATTGCGATGCATCCTGCTAGTGCTAACAATTTTAATAGAAAAACAGTTTATAGTAATTTAGGTTTTTCCAAATTCTTAGCTCTATCGGGTTCTAAGGATAAGTTTAAGAACATTGAAAATGTCGGTTTATTGACTAGCGATAAAACTGTCTATAATAATATTTTATCTTTAATTAATCCTAGTGAAAGCCAATTTTTCTCAGTTATTACAATGCAAAATCATATTCCTTGGTCATCCGATTATCCTGAAGAAATTGTTGCTGAAGGAAAAAATTTCACGGAAGAAGAAAATCACAACCTAACAAGTTATGCTCGGTTATTATCGTTTACTGATAAGGAAACAAGAGCATTTTTAGAAAAATTAACACAAATTAACAAGCCTATCACAGTGGTGTTTTACGGAGATCATTTACCCGGTTTATATCCTGATAGTGCTTTTAACAAGCATATTGAAAATAAATACCTTACTGATTATTTTATTTGGAGTAATGGTACTAACGAGAAAAAAAATCATCCGCTTATCAACTCAAGTGATTTTACTGCAGCTTTATTTGAGCATACTGATTCAAAAGTATCACCTTACTATGCTTTGTTAACAGAGGTACTGAATAAAGCTAGTGTCGATAAATCACCAGATAGTCCTGAAGTTAAAGCTATTCAGAATGATTTAAAAAATATCCAATACGATGTGACTATAGGAAAAGGTTACCTTTTGAAACACAAAACTTTTTTTAAGATATCACGTTAA'
p45
s.