(dp0
S'AP53_rna27'
p1
(lp2
S'RNA'
p3
asS'AP53_rna26'
p4
(lp5
g3
asS'AP53_rna25'
p6
(lp7
g3
asS'AP53_rna24'
p8
(lp9
g3
asS'AP53_rna23'
p10
(lp11
g3
asS'AP53_rna22'
p12
(lp13
g3
asS'AP53_rna21'
p14
(lp15
g3
asS'AP53_rna20'
p16
(lp17
g3
asS'AP53_rna29'
p18
(lp19
g3
asS'AP53_rna28'
p20
(lp21
g3
asS'AP53_pseudo1695'
p22
(lp23
S'PSEUDO'
p24
asS'AP53_pseudo1615'
p25
(lp26
g24
asS'AP53_rna52'
p27
(lp28
g3
asS'AP53_rna53'
p29
(lp30
g3
asS'AP53_rna50'
p31
(lp32
g3
asS'AP53_rna51'
p33
(lp34
g3
asS'AP53_rna56'
p35
(lp36
g3
asS'AP53_rna57'
p37
(lp38
g3
asS'AP53_rna54'
p39
(lp40
g3
asS'AP53_rna55'
p41
(lp42
g3
asS'AP53_rna58'
p43
(lp44
g3
asS'AP53_rna59'
p45
(lp46
g3
asS'AP53_pseudo388'
p47
(lp48
g24
asS'AP53_rna41'
p49
(lp50
g3
asS'AP53_rna40'
p51
(lp52
g3
asS'AP53_rna43'
p53
(lp54
g3
asS'AP53_rna42'
p55
(lp56
g3
asS'AP53_rna45'
p57
(lp58
g3
asS'AP53_rna44'
p59
(lp60
g3
asS'AP53_rna47'
p61
(lp62
g3
asS'AP53_rna46'
p63
(lp64
g3
asS'AP53_rna49'
p65
(lp66
g3
asS'AP53_rna48'
p67
(lp68
g3
asS'AP53_pseudo73'
p69
(lp70
g24
asS'AP53_rna74'
p71
(lp72
g3
asS'AP53_rna75'
p73
(lp74
g3
asS'AP53_rna76'
p75
(lp76
g3
asS'AP53_rna77'
p77
(lp78
g3
asS'AP53_rna70'
p79
(lp80
g3
asS'AP53_rna71'
p81
(lp82
g3
asS'AP53_rna72'
p83
(lp84
g3
asS'AP53_rna73'
p85
(lp86
g3
asS'AP53_pseudo656'
p87
(lp88
g24
asS'AP53_pseudo1389'
p89
(lp90
g24
asS'AP53_rna78'
p91
(lp92
g3
asS'AP53_rna79'
p93
(lp94
g3
asS'AP53_rna69'
p95
(lp96
g3
asS'AP53_rna68'
p97
(lp98
g3
asS'AP53_rna63'
p99
(lp100
g3
asS'AP53_rna62'
p101
(lp102
g3
asS'AP53_rna61'
p103
(lp104
g3
asS'AP53_rna60'
p105
(lp106
g3
asS'AP53_rna67'
p107
(lp108
g3
asS'AP53_rna66'
p109
(lp110
g3
asS'AP53_rna65'
p111
(lp112
g3
asS'AP53_rna64'
p113
(lp114
g3
asS'AP53_pseudo268'
p115
(lp116
g24
asS'AP53_rna18'
p117
(lp118
g3
asS'AP53_rna19'
p119
(lp120
g3
asS'AP53_rna16'
p121
(lp122
g3
asS'AP53_rna17'
p123
(lp124
g3
asS'AP53_rna14'
p125
(lp126
g3
asS'AP53_rna15'
p127
(lp128
g3
asS'AP53_rna12'
p129
(lp130
g3
asS'AP53_rna13'
p131
(lp132
g3
asS'AP53_rna10'
p133
(lp134
g3
asS'AP53_rna11'
p135
(lp136
g3
asS'AP53_rna4'
p137
(lp138
g3
asS'AP53_rna5'
p139
(lp140
g3
asS'AP53_rna6'
p141
(lp142
g3
asS'AP53_rna7'
p143
(lp144
g3
asS'AP53_rna1'
p145
(lp146
g3
asS'AP53_rna2'
p147
(lp148
g3
asS'AP53_rna3'
p149
(lp150
g3
asS'AP53_rna8'
p151
(lp152
g3
asS'AP53_rna9'
p153
(lp154
g3
asS'AP53_pseudo603'
p155
(lp156
g24
asS'AP53_rna85'
p157
(lp158
g3
asS'AP53_rna84'
p159
(lp160
g3
asS'AP53_rna81'
p161
(lp162
g3
asS'AP53_rna80'
p163
(lp164
g3
asS'AP53_rna83'
p165
(lp166
g3
asS'AP53_rna82'
p167
(lp168
g3
asS'AP53_rna30'
p169
(lp170
g3
asS'AP53_rna31'
p171
(lp172
g3
asS'AP53_rna32'
p173
(lp174
g3
asS'AP53_rna33'
p175
(lp176
g3
asS'AP53_rna34'
p177
(lp178
g3
asS'AP53_rna35'
p179
(lp180
g3
asS'AP53_rna36'
p181
(lp182
g3
asS'AP53_rna37'
p183
(lp184
g3
asS'AP53_rna38'
p185
(lp186
g3
asS'AP53_rna39'
p187
(lp188
g3
asS'AP53_pseudo1183'
p189
(lp190
g24
asS'AP53_pseudo1337'
p191
(lp192
g24
asS'AP53_pseudo595'
p193
(lp194
g24
as.