(dp0
(S'AP53'
p1
S'AP53_1745'
p2
S'AP53_1745'
p3
tp4
(lp5
(I1739361
I1741391
S'+'
p6
S'hutU'
p7
tp8
as(S'AP53'
p9
S'AP53_1516'
p10
S'AP53_1516'
p11
tp12
(lp13
(I1489662
I1491332
S'-'
p14
S'cycC'
p15
tp16
as(S'AP53'
p17
S'AP53_1023'
p18
S'AP53_1023'
p19
tp20
(lp21
(I1023750
I1024934
g14
g14
tp22
as(S'AP53'
p23
S'AP53_251'
p24
S'AP53_251'
p25
tp26
(lp27
(I274242
I274619
g6
g14
tp28
as(S'AP53'
p29
S'AP53_1620'
p30
S'AP53_1620'
p31
tp32
(lp33
(I1608397
I1609380
g14
S'lacD2'
p34
tp35
as(S'AP53'
p36
S'AP53_1776'
p37
S'AP53_1776'
p38
tp39
(lp40
(I1772972
I1774108
g14
S'recA'
p41
tp42
as(S'AP53'
p43
S'AP53_38'
p44
S'AP53_38'
p45
tp46
(lp47
(I56521
I58296
g6
g14
tp48
as(S'AP53'
p49
S'AP53_1445'
p50
S'AP53_1445'
p51
tp52
(lp53
(I1420466
I1421914
g14
S'gatC'
p54
tp55
as(S'AP53'
p56
S'AP53_1647'
p57
S'AP53_1647'
p58
tp59
(lp60
(I1628916
I1630976
g14
S'bglG'
p61
tp62
as(S'AP53'
p63
S'AP53_174'
p64
S'AP53_174'
p65
tp66
(lp67
(I190618
I191322
g6
S'speG'
p68
tp69
as(S'AP53'
p70
S'AP53_1383'
p71
S'AP53_1383'
p72
tp73
(lp74
(I1357313
I1357948
g14
S'gmk'
p75
tp76
as(S'AP53'
p77
S'AP53_891'
p78
S'AP53_891'
p79
tp80
(lp81
(I892362
I892481
g6
S'hypo-high4'
p82
tp83
as(S'AP53'
p84
S'AP53_913'
p85
S'AP53_913'
p86
tp87
(lp88
(I912135
I912443
g6
S'citD'
p89
tp90
as(S'AP53'
p91
S'AP53_582'
p92
S'AP53_582'
p93
tp94
(lp95
(I595647
I596459
g6
g14
tp96
as(S'AP53'
p97
S'AP53_407'
p98
S'AP53_407'
p99
tp100
(lp101
(I411380
I411973
g6
S'coaE'
p102
tp103
as(S'AP53'
p104
S'AP53_883'
p105
S'AP53_883'
p106
tp107
(lp108
(I881123
I881722
g6
S'pvaA'
p109
tp110
as(S'AP53'
p111
S'AP53_1277'
p112
S'AP53_1277'
p113
tp114
(lp115
(I1251719
I1252651
g14
g14
tp116
as(S'AP53'
p117
S'AP53_553'
p118
S'AP53_553'
p119
tp120
(lp121
(I562709
I563827
g6
S'sagI'
p122
tp123
as(S'AP53'
p124
S'AP53_933'
p125
S'AP53_933'
p126
tp127
(lp128
(I934113
I934451
g14
S'rnhB'
p129
tp130
as(S'AP53'
p131
S'AP53_1210'
p132
S'AP53_1210'
p133
tp134
(lp135
(I1187016
I1187201
g14
g14
tp136
as(S'AP53'
p137
S'AP53_818'
p138
S'AP53_818'
p139
tp140
(lp141
(I817791
I818810
g6
S'YeiH'
p142
tp143
as(S'AP53'
p144
S'AP53_123'
p145
S'AP53_123'
p146
tp147
(lp148
(I138605
I139603
g6
S'ntpC'
p149
tp150
as(S'AP53'
p151
S'AP53_1311'
p152
S'AP53_1311'
p153
tp154
(lp155
(I1293231
I1293755
g14
g14
tp156
as(S'AP53'
p157
S'AP53_1113'
p158
S'AP53_1113'
p159
tp160
(lp161
(I1096387
I1097670
g14
g14
tp162
as(S'AP53'
p163
S'AP53_512'
p164
S'AP53_512'
p165
tp166
(lp167
(I515942
I516379
g14
S'agaF'
p168
tp169
as(S'AP53'
p170
S'AP53_57'
p171
S'AP53_57'
p172
tp173
(lp174
(I71425
I71823
g6
S'rpsH'
p175
tp176
as(S'AP53'
p177
S'AP53_1836'
p178
S'AP53_1836'
p179
tp180
(lp181
(I1827997
I1828314
g14
g14
tp182
as(S'AP53'
p183
S'AP53_405'
p184
S'AP53_405'
p185
tp186
(lp187
(I409518
I410384
g6
S'mutR-Rgg2'
p188
tp189
as(S'AP53'
p190
S'AP53_472'
p191
S'AP53_472'
p192
tp193
(lp194
(I477685
I477957
g6
g14
tp195
as(S'AP53'
p196
S'AP53_1727'
p197
S'AP53_1727'
p198
tp199
(lp200
(I1720157
I1722427
g14
S'pbp2A'
p201
tp202
as(S'AP53'
p203
S'AP53_1044'
p204
S'AP53_1044'
p205
tp206
(lp207
(I1038966
I1039250
g14
g14
tp208
as(S'AP53'
p209
S'AP53_1744'
p210
S'AP53_1744'
p211
tp212
(lp213
(I1737804
I1739069
g14
S'hutI'
p214
tp215
as(S'AP53'
p216
S'AP53_534'
p217
S'AP53_534'
p218
tp219
(lp220
(I541478
I542677
g6
S'agaS'
p221
tp222
as(S'AP53'
p223
S'AP53_954'
p224
S'AP53_954'
p225
tp226
(lp227
(I956280
I956513
g6
S'rpsT'
p228
tp229
as(S'AP53'
p230
S'AP53_1687'
p231
S'AP53_1687'
p232
tp233
(lp234
(I1679083
I1681554
g14
S'htpA'
p235
tp236
as(S'AP53'
p237
S'AP53_1808'
p238
S'AP53_1808'
p239
tp240
(lp241
(I1800310
I1800618
g6
S'uviB'
p242
tp243
as(S'AP53'
p244
S'AP53_1753'
p245
S'AP53_1753'
p246
tp247
(lp248
(I1749643
I1752717
g14
g14
tp249
as(S'AP53'
p250
S'AP53_1591'
p251
S'AP53_1591'
p252
tp253
(lp254
(I1572074
I1573738
g14
g14
tp255
as(S'AP53'
p256
S'AP53_1294'
p257
S'AP53_1294'
p258
tp259
(lp260
(I1272335
I1272940
g14
g14
tp261
as(S'AP53'
p262
S'AP53_303'
p263
S'AP53_303'
p264
tp265
(lp266
(I324099
I325037
g14
S'fhuG'
p267
tp268
as(S'AP53'
p269
S'AP53_1238'
p270
S'AP53_1238'
p271
tp272
(lp273
(I1214190
I1214981
g14
g14
tp274
as(S'AP53'
p275
S'AP53_846'
p276
S'AP53_846'
p277
tp278
(lp279
(I845673
I847214
g14
S'dpiB'
p280
tp281
as(S'AP53'
p282
S'AP53_167'
p283
S'AP53_167'
p284
tp285
(lp286
(I184543
I184728
g6
g14
tp287
as(S'AP53'
p288
S'AP53_694'
p289
S'AP53_694'
p290
tp291
(lp292
(I688605
I690338
g6
S'glpQ'
p293
tp294
as(S'AP53'
p295
S'AP53_584'
p296
S'AP53_584'
p297
tp298
(lp299
(I596904
I597266
g14
S'mscL'
p300
tp301
as(S'AP53'
p302
S'AP53_952'
p303
S'AP53_952'
p304
tp305
(lp306
(I954430
I955023
g14
g14
tp307
as(S'AP53'
p308
S'AP53_1858'
p309
S'AP53_1858'
p310
tp311
(lp312
(I1850300
I1851172
g6
g14
tp313
as(S'AP53'
p314
S'AP53_948'
p315
S'AP53_948'
p316
tp317
(lp318
(I949516
I950580
g14
g14
tp319
as(S'AP53'
p320
S'AP53_749'
p321
S'AP53_749'
p322
tp323
(lp324
(I742692
I743321
g6
S'pyrE'
p325
tp326
as(S'AP53'
p327
S'AP53_489'
p328
S'AP53_489'
p329
tp330
(lp331
(I490846
I491349
g6
g14
tp332
as(S'AP53'
p333
S'AP53_1674'
p334
S'AP53_1674'
p335
tp336
(lp337
(I1664188
I1665141
g14
S'prmA'
p338
tp339
as(S'AP53'
p340
S'AP53_1850'
p341
S'AP53_1850'
p342
tp343
(lp344
(I1843009
I1843134
g6
S'hypo1'
p345
tp346
as(S'AP53'
p347
S'AP53_1039'
p348
S'AP53_1039'
p349
tp350
(lp351
(I1035205
I1035993
g14
g14
tp352
as(S'AP53'
p353
S'AP53_479'
p354
S'AP53_479'
p355
tp356
(lp357
(I482550
I483836
g6
g14
tp358
as(S'AP53'
p359
S'AP53_932'
p360
S'AP53_932'
p361
tp362
(lp363
(I932374
I933642
g6
g14
tp364
as(S'AP53'
p365
S'AP53_413'
p366
S'AP53_413'
p367
tp368
(lp369
(I418317
I419027
g6
g14
tp370
as(S'AP53'
p371
S'AP53_1400'
p372
S'AP53_1400'
p373
tp374
(lp375
(I1375209
I1376033
g14
S'nadE'
p376
tp377
as(S'AP53'
p378
S'AP53_116'
p379
S'AP53_116'
p380
tp381
(lp382
(I132417
I133097
g14
g14
tp383
as(S'AP53'
p384
S'AP53_1527'
p385
S'AP53_1527'
p386
tp387
(lp388
(I1504365
I1506884
g14
S'secA'
p389
tp390
as(S'AP53'
p391
S'AP53_1864'
p392
S'AP53_1864'
p393
tp394
(lp395
(I1859777
I1860553
g6
S'parB'
p396
tp397
as(S'AP53'
p398
S'AP53_897'
p399
S'AP53_897'
p400
tp401
(lp402
(I896151
I896942
g6
S'rnhB'
p403
tp404
as(S'AP53'
p405
S'AP53_778'
p406
S'AP53_778'
p407
tp408
(lp409
(I771725
I772831
g6
g14
tp410
as(S'AP53'
p411
S'AP53_1743'
p412
S'AP53_1743'
p413
tp414
(lp415
(I1736214
I1737746
g6
S'ahpF'
p416
tp417
as(S'AP53'
p418
S'AP53_1706'
p419
S'AP53_1706'
p420
tp421
(lp422
(I1702963
I1703199
g6
S'hypo7'
p423
tp424
as(S'AP53'
p425
S'AP53_1347'
p426
S'AP53_1347'
p427
tp428
(lp429
(I1321832
I1322257
g14
S'ssb2'
p430
tp431
as(S'AP53'
p432
S'AP53_218'
p433
S'AP53_218'
p434
tp435
(lp436
(I231833
I234454
g6
S'prgA'
p437
tp438
as(S'AP53'
p439
S'AP53_1721'
p440
S'AP53_1721'
p441
tp442
(lp443
(I1716280
I1716600
g14
S'celC'
p444
tp445
as(S'AP53'
p446
S'AP53_1315'
p447
S'AP53_1315'
p448
tp449
(lp450
(I1296312
I1296743
g14
g14
tp451
as(S'AP53'
p452
S'AP53_1303'
p453
S'AP53_1303'
p454
tp455
(lp456
(I1282728
I1284014
g6
S'hypo17'
p457
tp458
as(S'AP53'
p459
S'AP53_1559'
p460
S'AP53_1559'
p461
tp462
(lp463
(I1540588
I1542915
g6
S'pflB'
p464
tp465
as(S'AP53'
p466
S'AP53_794'
p467
S'AP53_794'
p468
tp469
(lp470
(I789217
I790185
g6
S'acoA'
p471
tp472
as(S'AP53'
p473
S'AP53_1242'
p474
S'AP53_1242'
p475
tp476
(lp477
(I1216582
I1217901
g14
S'ftsZ'
p478
tp479
as(S'AP53'
p480
S'AP53_266'
p481
S'AP53_266'
p482
tp483
(lp484
(I289857
I290390
g6
g14
tp485
as(S'AP53'
p486
S'AP53_1514'
p487
S'AP53_1514'
p488
tp489
(lp490
(I1488395
I1489075
g14
S'cbiQ'
p491
tp492
as(S'AP53'
p493
S'AP53_1739'
p494
S'AP53_1739'
p495
tp496
(lp497
(I1733788
I1734249
g14
S'ctsR'
p498
tp499
as(S'AP53'
p500
S'AP53_335'
p501
S'AP53_335'
p502
tp503
(lp504
(I352266
I354446
g6
S'nrdE1'
p505
tp506
as(S'AP53'
p507
S'AP53_256'
p508
S'AP53_256'
p509
tp510
(lp511
(I279337
I280182
g6
S'atmB'
p512
tp513
as(S'AP53'
p514
S'AP53_247'
p515
S'AP53_247'
p516
tp517
(lp518
(I271500
I272618
g6
g14
tp519
as(S'AP53'
p520
S'AP53_1578'
p521
S'AP53_1578'
p522
tp523
(lp524
(I1559850
I1560608
g6
S'crgR'
p525
tp526
as(S'AP53'
p527
S'AP53_868'
p528
S'AP53_868'
p529
tp530
(lp531
(I867159
I867848
g14
g14
tp532
as(S'AP53'
p533
S'AP53_209'
p534
S'AP53_209'
p535
tp536
(lp537
(I223602
I224393
g6
S'tatD'
p538
tp539
as(S'AP53'
p540
S'AP53_1275'
p541
S'AP53_1275'
p542
tp543
(lp544
(I1250152
I1250775
g14
S'tlpA'
p545
tp546
as(S'AP53'
p547
S'AP53_900'
p548
S'AP53_900'
p549
tp550
(lp551
(I900198
I901331
g6
g14
tp552
as(S'AP53'
p553
S'AP53_1074'
p554
S'AP53_1074'
p555
tp556
(lp557
(I1059445
I1059684
g14
S'dltC'
p558
tp559
as(S'AP53'
p560
S'AP53_1568'
p561
S'AP53_1568'
p562
tp563
(lp564
(I1552067
I1552288
g14
g14
tp565
as(S'AP53'
p566
S'AP53_1524'
p567
S'AP53_1524'
p568
tp569
(lp570
(I1501198
I1502679
g14
S'isp2'
p571
tp572
as(S'AP53'
p573
S'AP53_13'
p574
S'AP53_13'
p575
tp576
(lp577
(I12241
I12783
g6
S'hpt'
p578
tp579
as(S'AP53'
p580
S'AP53_404'
p581
S'AP53_404'
p582
tp583
(lp584
(I408871
I409020
g14
g14
tp585
as(S'AP53'
p586
S'AP53_944'
p587
S'AP53_944'
p588
tp589
(lp590
(I945277
I945822
g6
S'dfp'
p591
tp592
as(S'AP53'
p593
S'AP53_136'
p594
S'AP53_136'
p595
tp596
(lp597
(I152333
I154057
g6
S'slo'
p598
tp599
as(S'AP53'
p600
S'AP53_569'
p601
S'AP53_569'
p602
tp603
(lp604
(I579761
I579949
g6
S'epuA'
p605
tp606
as(S'AP53'
p607
S'AP53_1618'
p608
S'AP53_1618'
p609
tp610
(lp611
(I1606359
I1608056
g14
S'lacE'
p612
tp613
as(S'AP53'
p614
S'AP53_498'
p615
S'AP53_498'
p616
tp617
(lp618
(I500940
I501053
g6
g14
tp619
as(S'AP53'
p620
S'AP53_1699'
p621
S'AP53_1699'
p622
tp623
(lp624
(I1696278
I1697666
g14
S'ihk'
p625
tp626
as(S'AP53'
p627
S'AP53_654'
p628
S'AP53_654'
p629
tp630
(lp631
(I647220
I647960
g6
g14
tp632
as(S'AP53'
p633
S'AP53_699'
p634
S'AP53_699'
p635
tp636
(lp637
(I695562
I696437
g14
S'czcD'
p638
tp639
as(S'AP53'
p640
S'AP53_350'
p641
S'AP53_350'
p642
tp643
(lp644
(I367800
I368051
g6
S'hypo20'
p645
tp646
as(S'AP53'
p647
S'AP53_1013'
p648
S'AP53_1013'
p649
tp650
(lp651
(I1016319
I1017026
g14
g14
tp652
as(S'AP53'
p653
S'AP53_1728'
p654
S'AP53_1728'
p655
tp656
(lp657
(I1722532
I1722912
g14
g14
tp658
as(S'AP53'
p659
S'AP53_885'
p660
S'AP53_885'
p661
tp662
(lp663
(I883453
I885180
g6
g14
tp664
as(S'AP53'
p665
S'AP53_264'
p666
S'AP53_264'
p667
tp668
(lp669
(I288123
I288680
g6
S'lemA'
p670
tp671
as(S'AP53'
p672
S'AP53_339'
p673
S'AP53_339'
p674
tp675
(lp676
(I358154
I358798
g14
g14
tp677
as(S'AP53'
p678
S'AP53_919'
p679
S'AP53_919'
p680
tp681
(lp682
(I918084
I918566
g14
g14
tp683
as(S'AP53'
p684
S'AP53_1664'
p685
S'AP53_1664'
p686
tp687
(lp688
(I1651991
I1652839
g14
S'lrp'
p689
tp690
as(S'AP53'
p691
S'AP53_1611'
p692
S'AP53_1611'
p693
tp694
(lp695
(I1598975
I1599580
g14
S'salR'
p696
tp697
as(S'AP53'
p698
S'AP53_549'
p699
S'AP53_549'
p700
tp701
(lp702
(I559345
I559950
g6
S'sagE'
p703
tp704
as(S'AP53'
p705
S'AP53_918'
p706
S'AP53_918'
p707
tp708
(lp709
(I916943
I917995
g14
S'citC'
p710
tp711
as(S'AP53'
p712
S'AP53_1312'
p713
S'AP53_1312'
p714
tp715
(lp716
(I1293895
I1295100
g14
g14
tp717
as(S'AP53'
p718
S'AP53_1350'
p719
S'AP53_1350'
p720
tp721
(lp722
(I1323429
I1323683
g14
g14
tp723
as(S'AP53'
p724
S'AP53_1334'
p725
S'AP53_1334'
p726
tp727
(lp728
(I1313988
I1315199
g14
g14
tp729
as(S'AP53'
p730
S'AP53_257'
p731
S'AP53_257'
p732
tp733
(lp734
(I280432
I281496
g6
S'atmD'
p735
tp736
as(S'AP53'
p737
S'AP53_226'
p738
S'AP53_226'
p739
tp740
(lp741
(I242461
I244386
g6
g14
tp742
as(S'AP53'
p743
S'AP53_62'
p744
S'AP53_62'
p745
tp746
(lp747
(I73948
I74388
g6
S'rplO'
p748
tp749
as(S'AP53'
p750
S'AP53_1693'
p751
S'AP53_1693'
p752
tp753
(lp754
(I1689079
I1690362
g14
S'pam'
p755
tp756
as(S'AP53'
p757
S'AP53_327'
p758
S'AP53_327'
p759
tp760
(lp761
(I346906
I347028
g14
g14
tp762
as(S'AP53'
p763
S'AP53_423'
p764
S'AP53_423'
p765
tp766
(lp767
(I427225
I428559
g6
g14
tp768
as(S'AP53'
p769
S'AP53_402'
p770
S'AP53_402'
p771
tp772
(lp773
(I408178
I408333
g14
g14
tp774
as(S'AP53'
p775
S'AP53_217'
p776
S'AP53_217'
p777
tp778
(lp779
(I231003
I231842
g6
S'purR'
p780
tp781
as(S'AP53'
p782
S'AP53_370'
p783
S'AP53_370'
p784
tp785
(lp786
(I386268
I386843
g6
g14
tp787
as(S'AP53'
p788
S'AP53_573'
p789
S'AP53_573'
p790
tp791
(lp792
(I581131
I582174
g6
S'pheS'
p793
tp794
as(S'AP53'
p795
S'AP53_48'
p796
S'AP53_48'
p797
tp798
(lp799
(I67801
I68145
g6
S'rplV'
p800
tp801
as(S'AP53'
p802
S'AP53_788'
p803
S'AP53_788'
p804
tp805
(lp806
(I782216
I783085
g6
g14
tp807
as(S'AP53'
p808
S'AP53_879'
p809
S'AP53_879'
p810
tp811
(lp812
(I877832
I878422
g6
g14
tp813
as(S'AP53'
p814
S'AP53_692'
p815
S'AP53_692'
p816
tp817
(lp818
(I686409
I687119
g6
S'salX'
p819
tp820
as(S'AP53'
p821
S'AP53_1460'
p822
S'AP53_1460'
p823
tp824
(lp825
(I1435591
I1436226
g14
S'trmB'
p826
tp827
as(S'AP53'
p828
S'AP53_474'
p829
S'AP53_474'
p830
tp831
(lp832
(I479251
I480030
g6
S'lgt'
p833
tp834
as(S'AP53'
p835
S'AP53_161'
p836
S'AP53_161'
p837
tp838
(lp839
(I179541
I180851
g14
g14
tp840
as(S'AP53'
p841
S'AP53_1234'
p842
S'AP53_1234'
p843
tp844
(lp845
(I1209275
I1209730
g6
S'mutT'
p846
tp847
as(S'AP53'
p848
S'AP53_860'
p849
S'AP53_860'
p850
tp851
(lp852
(I859790
I860917
g14
S'nifS2'
p853
tp854
as(S'AP53'
p855
S'AP53_1750'
p856
S'AP53_1750'
p857
tp858
(lp859
(I1745544
I1746887
g6
g14
tp860
as(S'AP53'
p861
S'AP53_1314'
p862
S'AP53_1314'
p863
tp864
(lp865
(I1295677
I1296309
g14
g14
tp866
as(S'AP53'
p867
S'AP53_1737'
p868
S'AP53_1737'
p869
tp870
(lp871
(I1730876
I1731166
g14
S'groES'
p872
tp873
as(S'AP53'
p874
S'AP53_857'
p875
S'AP53_857'
p876
tp877
(lp878
(I857852
I858547
g14
g14
tp879
as(S'AP53'
p880
S'AP53_1851'
p881
S'AP53_1851'
p882
tp883
(lp884
(I1843204
I1844118
g6
S'hasC'
p885
tp886
as(S'AP53'
p887
S'AP53_1802'
p888
S'AP53_1802'
p889
tp890
(lp891
(I1793166
I1793549
g6
g14
tp892
as(S'AP53'
p893
S'AP53_422'
p894
S'AP53_422'
p895
tp896
(lp897
(I426225
I427223
g6
g14
tp898
as(S'AP53'
p899
S'AP53_105'
p900
S'AP53_105'
p901
tp902
(lp903
(I119765
I120793
g6
S'fctA'
p904
tp905
as(S'AP53'
p906
S'AP53_1426'
p907
S'AP53_1426'
p908
tp909
(lp910
(I1403899
I1404042
g14
g14
tp911
as(S'AP53'
p912
S'AP53_1175'
p913
S'AP53_1175'
p914
tp915
(lp916
(I1161195
I1162130
g6
S'pyrD'
p917
tp918
as(S'AP53'
p919
S'AP53_1332'
p920
S'AP53_1332'
p921
tp922
(lp923
(I1310974
I1312467
g14
g14
tp924
as(S'AP53'
p925
S'AP53_1323'
p926
S'AP53_1323'
p927
tp928
(lp929
(I1306828
I1307289
g14
g14
tp930
as(S'AP53'
p931
S'AP53_1270'
p932
S'AP53_1270'
p933
tp934
(lp935
(I1244563
I1245279
g14
g14
tp936
as(S'AP53'
p937
S'AP53_344'
p938
S'AP53_344'
p939
tp940
(lp941
(I362027
I362263
g6
g14
tp942
as(S'AP53'
p943
S'AP53_151'
p944
S'AP53_151'
p945
tp946
(lp947
(I171648
I174290
g6
S'polA'
p948
tp949
as(S'AP53'
p950
S'AP53_204'
p951
S'AP53_204'
p952
tp953
(lp954
(I218841
I219671
g6
g14
tp955
as(S'AP53'
p956
S'AP53_1148'
p957
S'AP53_1148'
p958
tp959
(lp960
(I1135135
I1135851
g14
S'rsuA'
p961
tp962
as(S'AP53'
p963
S'AP53_144'
p964
S'AP53_144'
p965
tp966
(lp967
(I162539
I163201
g6
S'ulaD'
p968
tp969
as(S'AP53'
p970
S'AP53_1500'
p971
S'AP53_1500'
p972
tp973
(lp974
(I1472121
I1473587
g14
S'gatA'
p975
tp976
as(S'AP53'
p977
S'AP53_848'
p978
S'AP53_848'
p979
tp980
(lp981
(I848737
I849903
g6
S'malS'
p982
tp983
as(S'AP53'
p984
S'AP53_710'
p985
S'AP53_710'
p986
tp987
(lp988
(I706376
I707083
g6
g14
tp989
as(S'AP53'
p990
S'AP53_1636'
p991
S'AP53_1636'
p992
tp993
(lp994
(I1618473
I1619219
g14
g14
tp995
as(S'AP53'
p996
S'AP53_1861'
p997
S'AP53_1861'
p998
tp999
(lp1000
(I1856400
I1857386
g14
g14
tp1001
as(S'AP53'
p1002
S'AP53_1'
p1003
S'AP53_1'
p1004
tp1005
(lp1006
(I232
I1587
g6
S'dnaA'
p1007
tp1008
as(S'AP53'
p1009
S'AP53_1799'
p1010
S'AP53_1799'
p1011
tp1012
(lp1013
(I1791354
I1791863
g6
g14
tp1014
as(S'AP53'
p1015
S'AP53_253'
p1016
S'AP53_253'
p1017
tp1018
(lp1019
(I275664
I276770
g6
g14
tp1020
as(S'AP53'
p1021
S'AP53_504'
p1022
S'AP53_504'
p1023
tp1024
(lp1025
(I506177
I506563
g6
g14
tp1026
as(S'AP53'
p1027
S'AP53_428'
p1028
S'AP53_428'
p1029
tp1030
(lp1031
(I432879
I433664
g6
g14
tp1032
as(S'AP53'
p1033
S'AP53_1731'
p1034
S'AP53_1731'
p1035
tp1036
(lp1037
(I1724578
I1726218
g14
g14
tp1038
as(S'AP53'
p1039
S'AP53_1822'
p1040
S'AP53_1822'
p1041
tp1042
(lp1043
(I1812184
I1813026
g6
g14
tp1044
as(S'AP53'
p1045
S'AP53_1391'
p1046
S'AP53_1391'
p1047
tp1048
(lp1049
(I1364295
I1365626
g6
g14
tp1050
as(S'AP53'
p1051
S'AP53_9'
p1052
S'AP53_9'
p1053
tp1054
(lp1055
(I9161
I9532
g6
S'divIC'
p1056
tp1057
as(S'AP53'
p1058
S'AP53_626'
p1059
S'AP53_626'
p1060
tp1061
(lp1062
(I633926
I634099
g14
g14
tp1063
as(S'AP53'
p1064
S'AP53_1828'
p1065
S'AP53_1828'
p1066
tp1067
(lp1068
(I1818421
I1818954
g6
g14
tp1069
as(S'AP53'
p1070
S'AP53_1499'
p1071
S'AP53_1499'
p1072
tp1073
(lp1074
(I1470682
I1472121
g14
S'gatB'
p1075
tp1076
as(S'AP53'
p1077
S'AP53_551'
p1078
S'AP53_551'
p1079
tp1080
(lp1081
(I560653
I561576
g6
S'sagG'
p1082
tp1083
as(S'AP53'
p1084
S'AP53_1173'
p1085
S'AP53_1173'
p1086
tp1087
(lp1088
(I1160261
I1160956
g14
S'gpmA'
p1089
tp1090
as(S'AP53'
p1091
S'AP53_1804'
p1092
S'AP53_1804'
p1093
tp1094
(lp1095
(I1794912
I1797467
g14
S'mutS'
p1096
tp1097
as(S'AP53'
p1098
S'AP53_203'
p1099
S'AP53_203'
p1100
tp1101
(lp1102
(I217866
I218828
g6
g14
tp1103
as(S'AP53'
p1104
S'AP53_233'
p1105
S'AP53_233'
p1106
tp1107
(lp1108
(I249654
I250880
g6
S'sufS'
p1109
tp1110
as(S'AP53'
p1111
S'AP53_768'
p1112
S'AP53_768'
p1113
tp1114
(lp1115
(I762279
I763520
g6
S'hflX'
p1116
tp1117
as(S'AP53'
p1118
S'AP53_1637'
p1119
S'AP53_1637'
p1120
tp1121
(lp1122
(I1619266
I1620063
g14
g14
tp1123
as(S'AP53'
p1124
S'AP53_1287'
p1125
S'AP53_1287'
p1126
tp1127
(lp1128
(I1262997
I1263302
g14
g14
tp1129
as(S'AP53'
p1130
S'AP53_318'
p1131
S'AP53_318'
p1132
tp1133
(lp1134
(I336440
I337303
g6
g14
tp1135
as(S'AP53'
p1136
S'AP53_295'
p1137
S'AP53_295'
p1138
tp1139
(lp1140
(I316900
I317463
g6
g14
tp1141
as(S'AP53'
p1142
S'AP53_244'
p1143
S'AP53_244'
p1144
tp1145
(lp1146
(I268788
I269066
g6
S'comX2'
p1147
tp1148
as(S'AP53'
p1149
S'AP53_1641'
p1150
S'AP53_1641'
p1151
tp1152
(lp1153
(I1622745
I1623326
g14
S'cysE'
p1154
tp1155
as(S'AP53'
p1156
S'AP53_946'
p1157
S'AP53_946'
p1158
tp1159
(lp1160
(I946625
I948343
g6
S'pgmA'
p1161
tp1162
as(S'AP53'
p1163
S'AP53_1381'
p1164
S'AP53_1381'
p1165
tp1166
(lp1167
(I1354531
I1356915
g14
S'priA'
p1168
tp1169
as(S'AP53'
p1170
S'AP53_1536'
p1171
S'AP53_1536'
p1172
tp1173
(lp1174
(I1518821
I1519210
g14
g14
tp1175
as(S'AP53'
p1176
S'AP53_352'
p1177
S'AP53_352'
p1178
tp1179
(lp1180
(I368917
I369258
g6
g14
tp1181
as(S'AP53'
p1182
S'AP53_632'
p1183
S'AP53_632'
p1184
tp1185
(lp1186
(I636950
I637231
g14
g14
tp1187
as(S'AP53'
p1188
S'AP53_634'
p1189
S'AP53_634'
p1190
tp1191
(lp1192
(I637635
I637856
g14
g14
tp1193
as(S'AP53'
p1194
S'AP53_1691'
p1195
S'AP53_1691'
p1196
tp1197
(lp1198
(I1683971
I1687465
g14
S'scpA'
p1199
tp1200
as(S'AP53'
p1201
S'AP53_300'
p1202
S'AP53_300'
p1203
tp1204
(lp1205
(I321396
I322259
g6
S'pflC'
p1206
tp1207
as(S'AP53'
p1208
S'AP53_1387'
p1209
S'AP53_1387'
p1210
tp1211
(lp1212
(I1362101
I1362751
g6
S'atoD1'
p1213
tp1214
as(S'AP53'
p1215
S'AP53_715'
p1216
S'AP53_715'
p1217
tp1218
(lp1219
(I709568
I709744
g6
g14
tp1220
as(S'AP53'
p1221
S'AP53_291'
p1222
S'AP53_291'
p1223
tp1224
(lp1225
(I314208
I314759
g6
S'scpB'
p1226
tp1227
as(S'AP53'
p1228
S'AP53_441'
p1229
S'AP53_441'
p1230
tp1231
(lp1232
(I448630
I449364
g6
g14
tp1233
as(S'AP53'
p1234
S'AP53_648'
p1235
S'AP53_648'
p1236
tp1237
(lp1238
(I644053
I644772
g14
g14
tp1239
as(S'AP53'
p1240
S'AP53_828'
p1241
S'AP53_828'
p1242
tp1243
(lp1244
(I828823
I829425
g6
g14
tp1245
as(S'AP53'
p1246
S'AP53_1786'
p1247
S'AP53_1786'
p1248
tp1249
(lp1250
(I1783774
I1784355
g6
g14
tp1251
as(S'AP53'
p1252
S'AP53_1413'
p1253
S'AP53_1413'
p1254
tp1255
(lp1256
(I1388647
I1388817
g14
g14
tp1257
as(S'AP53'
p1258
S'AP53_431'
p1259
S'AP53_431'
p1260
tp1261
(lp1262
(I435514
I436761
g6
g14
tp1263
as(S'AP53'
p1264
S'AP53_1292'
p1265
S'AP53_1292'
p1266
tp1267
(lp1268
(I1269137
I1270621
g14
S'yesN'
p1269
tp1270
as(S'AP53'
p1271
S'AP53_789'
p1272
S'AP53_789'
p1273
tp1274
(lp1275
(I783082
I783840
g6
g14
tp1276
as(S'AP53'
p1277
S'AP53_154'
p1278
S'AP53_154'
p1279
tp1280
(lp1281
(I175670
I175906
g6
S'vlg'
p1282
tp1283
as(S'AP53'
p1284
S'AP53_1493'
p1285
S'AP53_1493'
p1286
tp1287
(lp1288
(I1466445
I1467479
g14
S'hrcA'
p1289
tp1290
as(S'AP53'
p1291
S'AP53_1038'
p1292
S'AP53_1038'
p1293
tp1294
(lp1295
(I1033838
I1035208
g14
g14
tp1296
as(S'AP53'
p1297
S'AP53_1840'
p1298
S'AP53_1840'
p1299
tp1300
(lp1301
(I1832478
I1833092
g14
g14
tp1302
as(S'AP53'
p1303
S'AP53_25'
p1304
S'AP53_25'
p1305
tp1306
(lp1307
(I43427
I43981
g6
S'purN'
p1308
tp1309
as(S'AP53'
p1310
S'AP53_1454'
p1311
S'AP53_1454'
p1312
tp1313
(lp1314
(I1428651
I1431512
g14
S'infB'
p1315
tp1316
as(S'AP53'
p1317
S'AP53_1483'
p1318
S'AP53_1483'
p1319
tp1320
(lp1321
(I1456806
I1457540
g14
S'fabG'
p1322
tp1323
as(S'AP53'
p1324
S'AP53_159'
p1325
S'AP53_159'
p1326
tp1327
(lp1328
(I178568
I179137
g14
g14
tp1329
as(S'AP53'
p1330
S'AP53_723'
p1331
S'AP53_723'
p1332
tp1333
(lp1334
(I718089
I718673
g6
g14
tp1335
as(S'AP53'
p1336
S'AP53_210'
p1337
S'AP53_210'
p1338
tp1339
(lp1340
(I224386
I224955
g6
g14
tp1341
as(S'AP53'
p1342
S'AP53_169'
p1343
S'AP53_169'
p1344
tp1345
(lp1346
(I186084
I186395
g6
S'hot13'
p1347
tp1348
as(S'AP53'
p1349
S'AP53_1050'
p1350
S'AP53_1050'
p1351
tp1352
(lp1353
(I1040358
I1040534
g14
g14
tp1354
as(S'AP53'
p1355
S'AP53_924'
p1356
S'AP53_924'
p1357
tp1358
(lp1359
(I923645
I924343
g14
g14
tp1360
as(S'AP53'
p1361
S'AP53_717'
p1362
S'AP53_717'
p1363
tp1364
(lp1365
(I710352
I711200
g6
g14
tp1366
as(S'AP53'
p1367
S'AP53_1770'
p1368
S'AP53_1770'
p1369
tp1370
(lp1371
(I1769194
I1770753
g14
g14
tp1372
as(S'AP53'
p1373
S'AP53_1860'
p1374
S'AP53_1860'
p1375
tp1376
(lp1377
(I1852953
I1855529
g6
g14
tp1378
as(S'AP53'
p1379
S'AP53_1506'
p1380
S'AP53_1506'
p1381
tp1382
(lp1383
(I1477909
I1479123
g14
g14
tp1384
as(S'AP53'
p1385
S'AP53_1083'
p1386
S'AP53_1083'
p1387
tp1388
(lp1389
(I1069864
I1070313
g14
S'hypo25'
p1390
tp1391
as(S'AP53'
p1392
S'AP53_1289'
p1393
S'AP53_1289'
p1394
tp1395
(lp1396
(I1263695
I1264450
g14
g14
tp1397
as(S'AP53'
p1398
S'AP53_360'
p1399
S'AP53_360'
p1400
tp1401
(lp1402
(I376969
I377394
g6
S'rplK'
p1403
tp1404
as(S'AP53'
p1405
S'AP53_214'
p1406
S'AP53_214'
p1407
tp1408
(lp1409
(I227903
I228535
g6
S'thiN'
p1410
tp1411
as(S'AP53'
p1412
S'AP53_1723'
p1413
S'AP53_1723'
p1414
tp1415
(lp1416
(I1717884
I1718630
g14
S'GlpR'
p1417
tp1418
as(S'AP53'
p1419
S'AP53_65'
p1420
S'AP53_65'
p1421
tp1422
(lp1423
(I76615
I76833
g6
S'infA'
p1424
tp1425
as(S'AP53'
p1426
S'AP53_968'
p1427
S'AP53_968'
p1428
tp1429
(lp1430
(I969661
I970593
g14
S'ribF'
p1431
tp1432
as(S'AP53'
p1433
S'AP53_450'
p1434
S'AP53_450'
p1435
tp1436
(lp1437
(I457478
I458650
g14
g14
tp1438
as(S'AP53'
p1439
S'AP53_1052'
p1440
S'AP53_1052'
p1441
tp1442
(lp1443
(I1040856
I1041197
g14
g14
tp1444
as(S'AP53'
p1445
S'AP53_1667'
p1446
S'AP53_1667'
p1447
tp1448
(lp1449
(I1655057
I1657276
g14
S'relA'
p1450
tp1451
as(S'AP53'
p1452
S'AP53_1047'
p1453
S'AP53_1047'
p1454
tp1455
(lp1456
(I1039754
I1039867
g14
g14
tp1457
as(S'AP53'
p1458
S'AP53_1482'
p1459
S'AP53_1482'
p1460
tp1461
(lp1462
(I1455559
I1456791
g14
S'fabF'
p1463
tp1464
as(S'AP53'
p1465
S'AP53_17'
p1466
S'AP53_17'
p1467
tp1468
(lp1469
(I32641
I33603
g6
S'prsA2'
p1470
tp1471
as(S'AP53'
p1472
S'AP53_537'
p1473
S'AP53_537'
p1474
tp1475
(lp1476
(I544484
I544933
g6
S'flaV'
p1477
tp1478
as(S'AP53'
p1479
S'AP53_261'
p1480
S'AP53_261'
p1481
tp1482
(lp1483
(I285116
I285790
g14
S'trkA'
p1484
tp1485
as(S'AP53'
p1486
S'AP53_1251'
p1487
S'AP53_1251'
p1488
tp1489
(lp1490
(I1227217
I1227420
g14
g14
tp1491
as(S'AP53'
p1492
S'AP53_793'
p1493
S'AP53_793'
p1494
tp1495
(lp1496
(I787025
I788932
g6
g14
tp1497
as(S'AP53'
p1498
S'AP53_571'
p1499
S'AP53_571'
p1500
tp1501
(lp1502
(I580097
I580216
g14
S'endA'
p1503
tp1504
as(S'AP53'
p1505
S'AP53_55'
p1506
S'AP53_55'
p1507
tp1508
(lp1509
(I70531
I71073
g6
S'rplE'
p1510
tp1511
as(S'AP53'
p1512
S'AP53_371'
p1513
S'AP53_371'
p1514
tp1515
(lp1516
(I387002
I387499
g6
S'ybeY'
p1517
tp1518
as(S'AP53'
p1519
S'AP53_592'
p1520
S'AP53_592'
p1521
tp1522
(lp1523
(I604895
I606100
g6
S'rgpDc'
p1524
tp1525
as(S'AP53'
p1526
S'AP53_186'
p1527
S'AP53_186'
p1528
tp1529
(lp1530
(I200839
I202623
g6
g14
tp1531
as(S'AP53'
p1532
S'AP53_1716'
p1533
S'AP53_1716'
p1534
tp1535
(lp1536
(I1710176
I1711264
g14
S'gldA'
p1537
tp1538
as(S'AP53'
p1539
S'AP53_1697'
p1540
S'AP53_1697'
p1541
tp1542
(lp1543
(I1694219
I1694470
g14
g14
tp1544
as(S'AP53'
p1545
S'AP53_1363'
p1546
S'AP53_1363'
p1547
tp1548
(lp1549
(I1328844
I1330265
g6
g14
tp1550
as(S'AP53'
p1551
S'AP53_1165'
p1552
S'AP53_1165'
p1553
tp1554
(lp1555
(I1153130
I1153825
g14
g14
tp1556
as(S'AP53'
p1557
S'AP53_1429'
p1558
S'AP53_1429'
p1559
tp1560
(lp1561
(I1405118
I1407157
g14
S'glyS'
p1562
tp1563
as(S'AP53'
p1564
S'AP53_664'
p1565
S'AP53_664'
p1566
tp1567
(lp1568
(I657432
I657908
g6
g14
tp1569
as(S'AP53'
p1570
S'AP53_1355'
p1571
S'AP53_1355'
p1572
tp1573
(lp1574
(I1325782
I1325919
g14
g14
tp1575
as(S'AP53'
p1576
S'AP53_650'
p1577
S'AP53_650'
p1578
tp1579
(lp1580
(I645652
I645864
g14
g14
tp1581
as(S'AP53'
p1582
S'AP53_671'
p1583
S'AP53_671'
p1584
tp1585
(lp1586
(I663721
I664407
g6
S'aroD'
p1587
tp1588
as(S'AP53'
p1589
S'AP53_672'
p1590
S'AP53_672'
p1591
tp1592
(lp1593
(I664501
I665667
g6
S'aroC'
p1594
tp1595
as(S'AP53'
p1596
S'AP53_1092'
p1597
S'AP53_1092'
p1598
tp1599
(lp1600
(I1078107
I1078235
g14
g14
tp1601
as(S'AP53'
p1602
S'AP53_482'
p1603
S'AP53_482'
p1604
tp1605
(lp1606
(I484355
I484495
g14
g14
tp1607
as(S'AP53'
p1608
S'AP53_1677'
p1609
S'AP53_1677'
p1610
tp1611
(lp1612
(I1668013
I1669770
g6
S'pabB'
p1613
tp1614
as(S'AP53'
p1615
S'AP53_903'
p1616
S'AP53_903'
p1617
tp1618
(lp1619
(I904488
I904802
g6
g14
tp1620
as(S'AP53'
p1621
S'AP53_106'
p1622
S'AP53_106'
p1623
tp1624
(lp1625
(I120809
I121534
g6
S'srtB'
p1626
tp1627
as(S'AP53'
p1628
S'AP53_974'
p1629
S'AP53_974'
p1630
tp1631
(lp1632
(I977374
I978075
g14
g14
tp1633
as(S'AP53'
p1634
S'AP53_375'
p1635
S'AP53_375'
p1636
tp1637
(lp1638
(I389704
I389883
g14
g14
tp1639
as(S'AP53'
p1640
S'AP53_1378'
p1641
S'AP53_1378'
p1642
tp1643
(lp1644
(I1351444
I1352184
g14
S'pppL'
p1645
tp1646
as(S'AP53'
p1647
S'AP53_7'
p1648
S'AP53_7'
p1649
tp1650
(lp1651
(I5237
I8740
g6
S'trcF'
p1652
tp1653
as(S'AP53'
p1654
S'AP53_334'
p1655
S'AP53_334'
p1656
tp1657
(lp1658
(I351811
I352299
g6
S'nrdI'
p1659
tp1660
as(S'AP53'
p1661
S'AP53_322'
p1662
S'AP53_322'
p1663
tp1664
(lp1665
(I339931
I340098
g6
S'exoA'
p1666
tp1667
as(S'AP53'
p1668
S'AP53_956'
p1669
S'AP53_956'
p1670
tp1671
(lp1672
(I957941
I958615
g14
S'ciaR'
p1673
tp1674
as(S'AP53'
p1675
S'AP53_1642'
p1676
S'AP53_1642'
p1677
tp1678
(lp1679
(I1623335
I1624087
g14
S'hypo28'
p1680
tp1681
as(S'AP53'
p1682
S'AP53_324'
p1683
S'AP53_324'
p1684
tp1685
(lp1686
(I340187
I341368
g6
S'lctO'
p1687
tp1688
as(S'AP53'
p1689
S'AP53_93'
p1690
S'AP53_93'
p1691
tp1692
(lp1693
(I108659
I109429
g14
S'proC'
p1694
tp1695
as(S'AP53'
p1696
S'AP53_1530'
p1697
S'AP53_1530'
p1698
tp1699
(lp1700
(I1509392
I1510276
g14
S'scrK'
p1701
tp1702
as(S'AP53'
p1703
S'AP53_1282'
p1704
S'AP53_1282'
p1705
tp1706
(lp1707
(I1259275
I1259508
g6
g14
tp1708
as(S'AP53'
p1709
S'AP53_560'
p1710
S'AP53_560'
p1711
tp1712
(lp1713
(I571722
I572438
g6
S'atpB'
p1714
tp1715
as(S'AP53'
p1716
S'AP53_486'
p1717
S'AP53_486'
p1718
tp1719
(lp1720
(I488272
I488751
g14
S'ybaK'
p1721
tp1722
as(S'AP53'
p1723
S'AP53_663'
p1724
S'AP53_663'
p1725
tp1726
(lp1727
(I657186
I657383
g14
S'fer'
p1728
tp1729
as(S'AP53'
p1730
S'AP53_117'
p1731
S'AP53_117'
p1732
tp1733
(lp1734
(I133271
I133636
g6
g14
tp1735
as(S'AP53'
p1736
S'AP53_135'
p1737
S'AP53_135'
p1738
tp1739
(lp1740
(I151962
I152318
g6
S'ifs'
p1741
tp1742
as(S'AP53'
p1743
S'AP53_215'
p1744
S'AP53_215'
p1745
tp1746
(lp1747
(I228537
I229808
g6
g14
tp1748
as(S'AP53'
p1749
S'AP53_1301'
p1750
S'AP53_1301'
p1751
tp1752
(lp1753
(I1279810
I1281504
g14
S'hyl'
p1754
tp1755
as(S'AP53'
p1756
S'AP53_711'
p1757
S'AP53_711'
p1758
tp1759
(lp1760
(I707239
I707358
g14
g14
tp1761
as(S'AP53'
p1762
S'AP53_1112'
p1763
S'AP53_1112'
p1764
tp1765
(lp1766
(I1095511
I1096371
g14
S'map'
p1767
tp1768
as(S'AP53'
p1769
S'AP53_1425'
p1770
S'AP53_1425'
p1771
tp1772
(lp1773
(I1402325
I1403827
g14
S'glpK'
p1774
tp1775
as(S'AP53'
p1776
S'AP53_1033'
p1777
S'AP53_1033'
p1778
tp1779
(lp1780
(I1031174
I1031401
g14
g14
tp1781
as(S'AP53'
p1782
S'AP53_830'
p1783
S'AP53_830'
p1784
tp1785
(lp1786
(I831027
I832403
g14
S'trmE'
p1787
tp1788
as(S'AP53'
p1789
S'AP53_10'
p1790
S'AP53_10'
p1791
tp1792
(lp1793
(I9529
I9654
g6
g14
tp1794
as(S'AP53'
p1795
S'AP53_312'
p1796
S'AP53_312'
p1797
tp1798
(lp1799
(I333398
I333673
g6
g14
tp1800
as(S'AP53'
p1801
S'AP53_1455'
p1802
S'AP53_1455'
p1803
tp1804
(lp1805
(I1431532
I1431834
g14
g14
tp1806
as(S'AP53'
p1807
S'AP53_1498'
p1808
S'AP53_1498'
p1809
tp1810
(lp1811
(I1470470
I1470598
g14
g14
tp1812
as(S'AP53'
p1813
S'AP53_1487'
p1814
S'AP53_1487'
p1815
tp1816
(lp1817
(I1459950
I1460924
g14
S'fabH'
p1818
tp1819
as(S'AP53'
p1820
S'AP53_509'
p1821
S'AP53_509'
p1822
tp1823
(lp1824
(I513418
I514200
g14
S'agaW'
p1825
tp1826
as(S'AP53'
p1827
S'AP53_1117'
p1828
S'AP53_1117'
p1829
tp1830
(lp1831
(I1100903
I1102099
g14
S'metK'
p1832
tp1833
as(S'AP53'
p1834
S'AP53_37'
p1835
S'AP53_37'
p1836
tp1837
(lp1838
(I56189
I56524
g6
g14
tp1839
as(S'AP53'
p1840
S'AP53_1132'
p1841
S'AP53_1132'
p1842
tp1843
(lp1844
(I1117461
I1119620
g6
S'nrdE2'
p1845
tp1846
as(S'AP53'
p1847
S'AP53_1115'
p1848
S'AP53_1115'
p1849
tp1850
(lp1851
(I1098459
I1099112
g14
S'graB'
p1852
tp1853
as(S'AP53'
p1854
S'AP53_1082'
p1855
S'AP53_1082'
p1856
tp1857
(lp1858
(I1068307
I1069686
g14
S'celB'
p1859
tp1860
as(S'AP53'
p1861
S'AP53_1043'
p1862
S'AP53_1043'
p1863
tp1864
(lp1865
(I1038502
I1038969
g14
g14
tp1866
as(S'AP53'
p1867
S'AP53_1338'
p1868
S'AP53_1338'
p1869
tp1870
(lp1871
(I1317901
I1318335
g14
g14
tp1872
as(S'AP53'
p1873
S'AP53_1505'
p1874
S'AP53_1505'
p1875
tp1876
(lp1877
(I1476909
I1477691
g14
S'codY'
p1878
tp1879
as(S'AP53'
p1880
S'AP53_1834'
p1881
S'AP53_1834'
p1882
tp1883
(lp1884
(I1823909
I1825885
g14
g14
tp1885
as(S'AP53'
p1886
S'AP53_638'
p1887
S'AP53_638'
p1888
tp1889
(lp1890
(I639243
I639413
g14
g14
tp1891
as(S'AP53'
p1892
S'AP53_438'
p1893
S'AP53_438'
p1894
tp1895
(lp1896
(I445798
I446649
g14
S'mutR-Rgg3'
p1897
tp1898
as(S'AP53'
p1899
S'AP53_1831'
p1900
S'AP53_1831'
p1901
tp1902
(lp1903
(I1821774
I1822046
g14
g14
tp1904
as(S'AP53'
p1905
S'AP53_521'
p1906
S'AP53_521'
p1907
tp1908
(lp1909
(I524472
I525401
g6
S'ftsX'
p1910
tp1911
as(S'AP53'
p1912
S'AP53_259'
p1913
S'AP53_259'
p1914
tp1915
(lp1916
(I282243
I283613
g14
S'braB'
p1917
tp1918
as(S'AP53'
p1919
S'AP53_517'
p1920
S'AP53_517'
p1921
tp1922
(lp1923
(I520131
I520781
g6
g14
tp1924
as(S'AP53'
p1925
S'AP53_762'
p1926
S'AP53_762'
p1927
tp1928
(lp1929
(I758232
I759218
g6
g14
tp1930
as(S'AP53'
p1931
S'AP53_1588'
p1932
S'AP53_1588'
p1933
tp1934
(lp1935
(I1568473
I1569669
g14
S'pgk'
p1936
tp1937
as(S'AP53'
p1938
S'AP53_615'
p1939
S'AP53_615'
p1940
tp1941
(lp1942
(I626273
I626671
g14
g14
tp1943
as(S'AP53'
p1944
S'AP53_485'
p1945
S'AP53_485'
p1946
tp1947
(lp1948
(I487308
I487931
g14
S'pgmA'
p1949
tp1950
as(S'AP53'
p1951
S'AP53_1070'
p1952
S'AP53_1070'
p1953
tp1954
(lp1955
(I1056141
I1056674
g6
g14
tp1956
as(S'AP53'
p1957
S'AP53_1051'
p1958
S'AP53_1051'
p1959
tp1960
(lp1961
(I1040677
I1040898
g6
g14
tp1962
as(S'AP53'
p1963
S'AP53_1138'
p1964
S'AP53_1138'
p1965
tp1966
(lp1967
(I1123544
I1124239
g14
g14
tp1968
as(S'AP53'
p1969
S'AP53_224'
p1970
S'AP53_224'
p1971
tp1972
(lp1973
(I239962
I240702
g14
g14
tp1974
as(S'AP53'
p1975
S'AP53_636'
p1976
S'AP53_636'
p1977
tp1978
(lp1979
(I638343
I638975
g14
g14
tp1980
as(S'AP53'
p1981
S'AP53_906'
p1982
S'AP53_906'
p1983
tp1984
(lp1985
(I906493
I907377
g14
S'citG'
p1986
tp1987
as(S'AP53'
p1988
S'AP53_1216'
p1989
S'AP53_1216'
p1990
tp1991
(lp1992
(I1190838
I1191113
g14
S'HBsu'
p1993
tp1994
as(S'AP53'
p1995
S'AP53_316'
p1996
S'AP53_316'
p1997
tp1998
(lp1999
(I335827
I335958
g6
g14
tp2000
as(S'AP53'
p2001
S'AP53_1405'
p2002
S'AP53_1405'
p2003
tp2004
(lp2005
(I1380517
I1381260
g14
S'tcyN'
p2006
tp2007
as(S'AP53'
p2008
S'AP53_1142'
p2009
S'AP53_1142'
p2010
tp2011
(lp2012
(I1125592
I1128210
g14
S'alaS'
p2013
tp2014
as(S'AP53'
p2015
S'AP53_761'
p2016
S'AP53_761'
p2017
tp2018
(lp2019
(I757729
I758031
g14
g14
tp2020
as(S'AP53'
p2021
S'AP53_31'
p2022
S'AP53_31'
p2023
tp2024
(lp2025
(I50263
I51603
g6
g14
tp2026
as(S'AP53'
p2027
S'AP53_41'
p2028
S'AP53_41'
p2029
tp2030
(lp2031
(I62904
I64193
g6
g14
tp2032
as(S'AP53'
p2033
S'AP53_1488'
p2034
S'AP53_1488'
p2035
tp2036
(lp2037
(I1460925
I1461359
g14
S'FabT'
p2038
tp2039
as(S'AP53'
p2040
S'AP53_1370'
p2041
S'AP53_1370'
p2042
tp2043
(lp2044
(I1343566
I1344198
g6
g14
tp2045
as(S'AP53'
p2046
S'AP53_1088'
p2047
S'AP53_1088'
p2048
tp2049
(lp2050
(I1074185
I1075585
g14
S'bglA2'
p2051
tp2052
as(S'AP53'
p2053
S'AP53_533'
p2054
S'AP53_533'
p2055
tp2056
(lp2057
(I540736
I541458
g6
S'phnF'
p2058
tp2059
as(S'AP53'
p2060
S'AP53_1606'
p2061
S'AP53_1606'
p2062
tp2063
(lp2064
(I1585036
I1585314
g14
S'comX2'
p2065
tp2066
as(S'AP53'
p2067
S'AP53_1021'
p2068
S'AP53_1021'
p2069
tp2070
(lp2071
(I1023303
I1023605
g14
g14
tp2072
as(S'AP53'
p2073
S'AP53_1247'
p2074
S'AP53_1247'
p2075
tp2076
(lp2077
(I1223445
I1223696
g14
g14
tp2078
as(S'AP53'
p2079
S'AP53_89'
p2080
S'AP53_89'
p2081
tp2082
(lp2083
(I105484
I105774
g6
S'comGF'
p2084
tp2085
as(S'AP53'
p2086
S'AP53_1250'
p2087
S'AP53_1250'
p2088
tp2089
(lp2090
(I1226241
I1227212
g14
S'glkA'
p2091
tp2092
as(S'AP53'
p2093
S'AP53_1769'
p2094
S'AP53_1769'
p2095
tp2096
(lp2097
(I1766899
I1769097
g14
S'nrdD'
p2098
tp2099
as(S'AP53'
p2100
S'AP53_1181'
p2101
S'AP53_1181'
p2102
tp2103
(lp2104
(I1166890
I1168107
g14
g14
tp2105
as(S'AP53'
p2106
S'AP53_1792'
p2107
S'AP53_1792'
p2108
tp2109
(lp2110
(I1787391
I1787582
g6
g14
tp2111
as(S'AP53'
p2112
S'AP53_1022'
p2113
S'AP53_1022'
p2114
tp2115
(lp2116
(I1023608
I1023736
g14
g14
tp2117
as(S'AP53'
p2118
S'AP53_263'
p2119
S'AP53_263'
p2120
tp2121
(lp2122
(I287260
I287973
g14
S'gidB'
p2123
tp2124
as(S'AP53'
p2125
S'AP53_1226'
p2126
S'AP53_1226'
p2127
tp2128
(lp2129
(I1198805
I1200145
g14
S'xseA'
p2130
tp2131
as(S'AP53'
p2132
S'AP53_812'
p2133
S'AP53_812'
p2134
tp2135
(lp2136
(I811687
I811884
g6
g14
tp2137
as(S'AP53'
p2138
S'AP53_494'
p2139
S'AP53_494'
p2140
tp2141
(lp2142
(I497160
I498434
g6
S'ftsW'
p2143
tp2144
as(S'AP53'
p2145
S'AP53_787'
p2146
S'AP53_787'
p2147
tp2148
(lp2149
(I780873
I781871
g6
g14
tp2150
as(S'AP53'
p2151
S'AP53_971'
p2152
S'AP53_971'
p2153
tp2154
(lp2155
(I973068
I974024
g14
g14
tp2156
as(S'AP53'
p2157
S'AP53_21'
p2158
S'AP53_21'
p2159
tp2160
(lp2161
(I36011
I36745
g6
S'purC'
p2162
tp2163
as(S'AP53'
p2164
S'AP53_477'
p2165
S'AP53_477'
p2166
tp2167
(lp2168
(I481039
I481323
g14
g14
tp2169
as(S'AP53'
p2170
S'AP53_945'
p2171
S'AP53_945'
p2172
tp2173
(lp2174
(I945880
I946449
g6
g14
tp2175
as(S'AP53'
p2176
S'AP53_1675'
p2177
S'AP53_1675'
p2178
tp2179
(lp2180
(I1665212
I1665682
g14
g14
tp2181
as(S'AP53'
p2182
S'AP53_819'
p2183
S'AP53_819'
p2184
tp2185
(lp2186
(I819017
I819442
g6
S'ptsA'
p2187
tp2188
as(S'AP53'
p2189
S'AP53_1276'
p2190
S'AP53_1276'
p2191
tp2192
(lp2193
(I1250788
I1251498
g14
S'ccdA'
p2194
tp2195
as(S'AP53'
p2196
S'AP53_1399'
p2197
S'AP53_1399'
p2198
tp2199
(lp2200
(I1373687
I1375024
g14
S'pepC'
p2201
tp2202
as(S'AP53'
p2203
S'AP53_1733'
p2204
S'AP53_1733'
p2205
tp2206
(lp2207
(I1728607
I1728738
g14
g14
tp2208
as(S'AP53'
p2209
S'AP53_719'
p2210
S'AP53_719'
p2211
tp2212
(lp2213
(I712530
I714407
g6
g14
tp2214
as(S'AP53'
p2215
S'AP53_1005'
p2216
S'AP53_1005'
p2217
tp2218
(lp2219
(I1008144
I1008836
g14
g14
tp2220
as(S'AP53'
p2221
S'AP53_332'
p2222
S'AP53_332'
p2223
tp2224
(lp2225
(I350540
I350698
g14
g14
tp2226
as(S'AP53'
p2227
S'AP53_421'
p2228
S'AP53_421'
p2229
tp2230
(lp2231
(I425093
I426094
g6
S'ccpA'
p2232
tp2233
as(S'AP53'
p2234
S'AP53_754'
p2235
S'AP53_754'
p2236
tp2237
(lp2238
(I747547
I748815
g6
S'pyrC'
p2239
tp2240
as(S'AP53'
p2241
S'AP53_1610'
p2242
S'AP53_1610'
p2243
tp2244
(lp2245
(I1596843
I1598423
g6
S'hsdM'
p2246
tp2247
as(S'AP53'
p2248
S'AP53_1040'
p2249
S'AP53_1040'
p2250
tp2251
(lp2252
(I1036019
I1036555
g14
g14
tp2253
as(S'AP53'
p2254
S'AP53_1243'
p2255
S'AP53_1243'
p2256
tp2257
(lp2258
(I1217925
I1219289
g14
S'ftsA'
p2259
tp2260
as(S'AP53'
p2261
S'AP53_1099'
p2262
S'AP53_1099'
p2263
tp2264
(lp2265
(I1082898
I1083467
g6
g14
tp2266
as(S'AP53'
p2267
S'AP53_765'
p2268
S'AP53_765'
p2269
tp2270
(lp2271
(I759974
I760882
g6
g14
tp2272
as(S'AP53'
p2273
S'AP53_345'
p2274
S'AP53_345'
p2275
tp2276
(lp2277
(I362256
I362954
g6
S'fabG'
p2278
tp2279
as(S'AP53'
p2280
S'AP53_1095'
p2281
S'AP53_1095'
p2282
tp2283
(lp2284
(I1079336
I1079788
g6
g14
tp2285
as(S'AP53'
p2286
S'AP53_1348'
p2287
S'AP53_1348'
p2288
tp2289
(lp2290
(I1322250
I1322924
g14
S'ssb1'
p2291
tp2292
as(S'AP53'
p2293
S'AP53_1007'
p2294
S'AP53_1007'
p2295
tp2296
(lp2297
(I1009738
I1010193
g14
g14
tp2298
as(S'AP53'
p2299
S'AP53_937'
p2300
S'AP53_937'
p2301
tp2302
(lp2303
(I939316
I940197
g14
S'sir2'
p2304
tp2305
as(S'AP53'
p2306
S'AP53_1122'
p2307
S'AP53_1122'
p2308
tp2309
(lp2310
(I1108082
I1108579
g14
g14
tp2311
as(S'AP53'
p2312
S'AP53_667'
p2313
S'AP53_667'
p2314
tp2315
(lp2316
(I659337
I659534
g6
S'rpmI'
p2317
tp2318
as(S'AP53'
p2319
S'AP53_1349'
p2320
S'AP53_1349'
p2321
tp2322
(lp2323
(I1322925
I1323407
g14
g14
tp2324
as(S'AP53'
p2325
S'AP53_1093'
p2326
S'AP53_1093'
p2327
tp2328
(lp2329
(I1078477
I1078992
g6
g14
tp2330
as(S'AP53'
p2331
S'AP53_59'
p2332
S'AP53_59'
p2333
tp2334
(lp2335
(I72667
I73023
g6
S'rplR'
p2336
tp2337
as(S'AP53'
p2338
S'AP53_532'
p2339
S'AP53_532'
p2340
tp2341
(lp2342
(I539041
I540588
g6
S'adcA'
p2343
tp2344
as(S'AP53'
p2345
S'AP53_435'
p2346
S'AP53_435'
p2347
tp2348
(lp2349
(I440072
I440881
g6
S'vicX'
p2350
tp2351
as(S'AP53'
p2352
S'AP53_223'
p2353
S'AP53_223'
p2354
tp2355
(lp2356
(I239704
I239820
g14
g14
tp2357
as(S'AP53'
p2358
S'AP53_1558'
p2359
S'AP53_1558'
p2360
tp2361
(lp2362
(I1539284
I1540378
g14
S'dinP'
p2363
tp2364
as(S'AP53'
p2365
S'AP53_1522'
p2366
S'AP53_1522'
p2367
tp2368
(lp2369
(I1496882
I1500709
g14
S'shr'
p2370
tp2371
as(S'AP53'
p2372
S'AP53_1134'
p2373
S'AP53_1134'
p2374
tp2375
(lp2376
(I1119953
I1120912
g6
S'nrdF'
p2377
tp2378
as(S'AP53'
p2379
S'AP53_559'
p2380
S'AP53_559'
p2381
tp2382
(lp2383
(I571490
I571687
g6
S'atpE'
p2384
tp2385
as(S'AP53'
p2386
S'AP53_1261'
p2387
S'AP53_1261'
p2388
tp2389
(lp2390
(I1234725
I1235717
g14
S'asnA'
p2391
tp2392
as(S'AP53'
p2393
S'AP53_912'
p2394
S'AP53_912'
p2395
tp2396
(lp2397
(I911965
I912099
g6
g14
tp2398
as(S'AP53'
p2399
S'AP53_864'
p2400
S'AP53_864'
p2401
tp2402
(lp2403
(I863346
I864182
g6
S'ppnK'
p2404
tp2405
as(S'AP53'
p2406
S'AP53_184'
p2407
S'AP53_184'
p2408
tp2409
(lp2410
(I198688
I199137
g6
S'MarR_2'
p2411
tp2412
as(S'AP53'
p2413
S'AP53_1415'
p2414
S'AP53_1415'
p2415
tp2416
(lp2417
(I1390080
I1390898
g14
S'SK'
p2418
tp2419
as(S'AP53'
p2420
S'AP53_685'
p2421
S'AP53_685'
p2422
tp2423
(lp2424
(I676306
I677196
g6
g14
tp2425
as(S'AP53'
p2426
S'AP53_503'
p2427
S'AP53_503'
p2428
tp2429
(lp2430
(I504794
I506095
g14
g14
tp2431
as(S'AP53'
p2432
S'AP53_1648'
p2433
S'AP53_1648'
p2434
tp2435
(lp2436
(I1631328
I1631597
g14
S'rpsO'
p2437
tp2438
as(S'AP53'
p2439
S'AP53_1830'
p2440
S'AP53_1830'
p2441
tp2442
(lp2443
(I1820009
I1821142
g14
g14
tp2444
as(S'AP53'
p2445
S'AP53_1698'
p2446
S'AP53_1698'
p2447
tp2448
(lp2449
(I1694548
I1696176
g14
S'isp'
p2450
tp2451
as(S'AP53'
p2452
S'AP53_865'
p2453
S'AP53_865'
p2454
tp2455
(lp2456
(I864179
I865084
g6
S'rluD'
p2457
tp2458
as(S'AP53'
p2459
S'AP53_1031'
p2460
S'AP53_1031'
p2461
tp2462
(lp2463
(I1030294
I1030728
g14
g14
tp2464
as(S'AP53'
p2465
S'AP53_1307'
p2466
S'AP53_1307'
p2467
tp2468
(lp2469
(I1290401
I1290583
g14
S'prx'
p2470
tp2471
as(S'AP53'
p2472
S'AP53_74'
p2473
S'AP53_74'
p2474
tp2475
(lp2476
(I87895
I88338
g6
S'adrR'
p2477
tp2478
as(S'AP53'
p2479
S'AP53_1511'
p2480
S'AP53_1511'
p2481
tp2482
(lp2483
(I1483420
I1484322
g14
g14
tp2484
as(S'AP53'
p2485
S'AP53_815'
p2486
S'AP53_815'
p2487
tp2488
(lp2489
(I813544
I815376
g6
S'lepA'
p2490
tp2491
as(S'AP53'
p2492
S'AP53_1126'
p2493
S'AP53_1126'
p2494
tp2495
(lp2496
(I1110653
I1111738
g6
S'deaD2'
p2497
tp2498
as(S'AP53'
p2499
S'AP53_513'
p2500
S'AP53_513'
p2501
tp2502
(lp2503
(I516704
I517498
g6
S'idnO'
p2504
tp2505
as(S'AP53'
p2506
S'AP53_363'
p2507
S'AP53_363'
p2508
tp2509
(lp2510
(I379269
I379826
g6
S'frr'
p2511
tp2512
as(S'AP53'
p2513
S'AP53_1459'
p2514
S'AP53_1459'
p2515
tp2516
(lp2517
(I1434195
I1435328
g14
g14
tp2518
as(S'AP53'
p2519
S'AP53_1565'
p2520
S'AP53_1565'
p2521
tp2522
(lp2523
(I1547662
I1548858
g14
S'norA'
p2524
tp2525
as(S'AP53'
p2526
S'AP53_484'
p2527
S'AP53_484'
p2528
tp2529
(lp2530
(I486298
I487200
g6
g14
tp2531
as(S'AP53'
p2532
S'AP53_178'
p2533
S'AP53_178'
p2534
tp2535
(lp2536
(I193478
I194986
g14
g14
tp2537
as(S'AP53'
p2538
S'AP53_740'
p2539
S'AP53_740'
p2540
tp2541
(lp2542
(I735303
I736514
g6
S'deoB'
p2543
tp2544
as(S'AP53'
p2545
S'AP53_140'
p2546
S'AP53_140'
p2547
tp2548
(lp2549
(I157250
I159751
g6
S'leuS'
p2550
tp2551
as(S'AP53'
p2552
S'AP53_1423'
p2553
S'AP53_1423'
p2554
tp2555
(lp2556
(I1399744
I1400445
g14
S'glpF'
p2557
tp2558
as(S'AP53'
p2559
S'AP53_1393'
p2560
S'AP53_1393'
p2561
tp2562
(lp2563
(I1366328
I1367797
g14
g14
tp2564
as(S'AP53'
p2565
S'AP53_712'
p2566
S'AP53_712'
p2567
tp2568
(lp2569
(I707561
I707680
g14
g14
tp2570
as(S'AP53'
p2571
S'AP53_447'
p2572
S'AP53_447'
p2573
tp2574
(lp2575
(I455482
I456690
g6
S'mefE'
p2576
tp2577
as(S'AP53'
p2578
S'AP53_1271'
p2579
S'AP53_1271'
p2580
tp2581
(lp2582
(I1245293
I1246372
g14
g14
tp2583
as(S'AP53'
p2584
S'AP53_394'
p2585
S'AP53_394'
p2586
tp2587
(lp2588
(I401721
I403874
g14
S'blpA'
p2589
tp2590
as(S'AP53'
p2591
S'AP53_925'
p2592
S'AP53_925'
p2593
tp2594
(lp2595
(I924426
I925859
g14
g14
tp2596
as(S'AP53'
p2597
S'AP53_196'
p2598
S'AP53_196'
p2599
tp2600
(lp2601
(I212965
I213324
g6
S'rnpA'
p2602
tp2603
as(S'AP53'
p2604
S'AP53_355'
p2605
S'AP53_355'
p2606
tp2607
(lp2608
(I371146
I371871
g6
S'mtsB'
p2609
tp2610
as(S'AP53'
p2611
S'AP53_1763'
p2612
S'AP53_1763'
p2613
tp2614
(lp2615
(I1762671
I1763435
g6
g14
tp2616
as(S'AP53'
p2617
S'AP53_611'
p2618
S'AP53_611'
p2619
tp2620
(lp2621
(I624727
I624843
g14
g14
tp2622
as(S'AP53'
p2623
S'AP53_1259'
p2624
S'AP53_1259'
p2625
tp2626
(lp2627
(I1233582
I1234073
g14
S'coaD'
p2628
tp2629
as(S'AP53'
p2630
S'AP53_412'
p2631
S'AP53_412'
p2632
tp2633
(lp2634
(I417835
I418302
g6
S'smpB'
p2635
tp2636
as(S'AP53'
p2637
S'AP53_882'
p2638
S'AP53_882'
p2639
tp2640
(lp2641
(I880145
I881122
g6
S'rluA'
p2642
tp2643
as(S'AP53'
p2644
S'AP53_588'
p2645
S'AP53_588'
p2646
tp2647
(lp2648
(I601040
I601894
g6
S'rmlD'
p2649
tp2650
as(S'AP53'
p2651
S'AP53_1590'
p2652
S'AP53_1590'
p2653
tp2654
(lp2655
(I1570946
I1571836
g14
S'ybbK'
p2656
tp2657
as(S'AP53'
p2658
S'AP53_205'
p2659
S'AP53_205'
p2660
tp2661
(lp2662
(I219828
I220490
g6
g14
tp2663
as(S'AP53'
p2664
S'AP53_1125'
p2665
S'AP53_1125'
p2666
tp2667
(lp2668
(I1109929
I1110555
g14
S'udk'
p2669
tp2670
as(S'AP53'
p2671
S'AP53_127'
p2672
S'AP53_127'
p2673
tp2674
(lp2675
(I141897
I143312
g6
S'ntpB'
p2676
tp2677
as(S'AP53'
p2678
S'AP53_1777'
p2679
S'AP53_1777'
p2680
tp2681
(lp2682
(I1774197
I1775468
g14
S'cinA'
p2683
tp2684
as(S'AP53'
p2685
S'AP53_258'
p2686
S'AP53_258'
p2687
tp2688
(lp2689
(I281497
I282189
g6
S'atmE'
p2690
tp2691
as(S'AP53'
p2692
S'AP53_1204'
p2693
S'AP53_1204'
p2694
tp2695
(lp2696
(I1184246
I1185172
g14
g14
tp2697
as(S'AP53'
p2698
S'AP53_659'
p2699
S'AP53_659'
p2700
tp2701
(lp2702
(I652590
I653876
g6
S'amrA'
p2703
tp2704
as(S'AP53'
p2705
S'AP53_614'
p2706
S'AP53_614'
p2707
tp2708
(lp2709
(I625900
I626280
g14
g14
tp2710
as(S'AP53'
p2711
S'AP53_1726'
p2712
S'AP53_1726'
p2713
tp2714
(lp2715
(I1719766
I1719942
g14
S'secE'
p2716
tp2717
as(S'AP53'
p2718
S'AP53_34'
p2719
S'AP53_34'
p2720
tp2721
(lp2722
(I53396
I54307
g6
S'comR'
p2723
tp2724
as(S'AP53'
p2725
S'AP53_1266'
p2726
S'AP53_1266'
p2727
tp2728
(lp2729
(I1241151
I1241492
g14
g14
tp2730
as(S'AP53'
p2731
S'AP53_1507'
p2732
S'AP53_1507'
p2733
tp2734
(lp2735
(I1479354
I1479806
g6
g14
tp2736
as(S'AP53'
p2737
S'AP53_20'
p2738
S'AP53_20'
p2739
tp2740
(lp2741
(I35647
I35889
g6
S'acpP2'
p2742
tp2743
as(S'AP53'
p2744
S'AP53_1249'
p2745
S'AP53_1249'
p2746
tp2747
(lp2748
(I1225842
I1226231
g14
g14
tp2749
as(S'AP53'
p2750
S'AP53_139'
p2751
S'AP53_139'
p2752
tp2753
(lp2754
(I155651
I157039
g6
S'metB'
p2755
tp2756
as(S'AP53'
p2757
S'AP53_979'
p2758
S'AP53_979'
p2759
tp2760
(lp2761
(I980422
I980961
g14
g14
tp2762
as(S'AP53'
p2763
S'AP53_1420'
p2764
S'AP53_1420'
p2765
tp2766
(lp2767
(I1396030
I1396674
g14
S'talC'
p2768
tp2769
as(S'AP53'
p2770
S'AP53_1478'
p2771
S'AP53_1478'
p2772
tp2773
(lp2774
(I1452367
I1453233
g14
S'accD'
p2775
tp2776
as(S'AP53'
p2777
S'AP53_724'
p2778
S'AP53_724'
p2779
tp2780
(lp2781
(I718676
I719344
g6
S'sptR'
p2782
tp2783
as(S'AP53'
p2784
S'AP53_1563'
p2785
S'AP53_1563'
p2786
tp2787
(lp2788
(I1545131
I1545976
g6
g14
tp2789
as(S'AP53'
p2790
S'AP53_1805'
p2791
S'AP53_1805'
p2792
tp2793
(lp2794
(I1797454
I1797660
g14
S'ymcA'
p2795
tp2796
as(S'AP53'
p2797
S'AP53_572'
p2798
S'AP53_572'
p2799
tp2800
(lp2801
(I580549
I580848
g6
S'endA'
p2802
tp2803
as(S'AP53'
p2804
S'AP53_1059'
p2805
S'AP53_1059'
p2806
tp2807
(lp2808
(I1043274
I1044062
g6
g14
tp2809
as(S'AP53'
p2810
S'AP53_543'
p2811
S'AP53_543'
p2812
tp2813
(lp2814
(I551015
I552739
g6
S'ezrA'
p2815
tp2816
as(S'AP53'
p2817
S'AP53_254'
p2818
S'AP53_254'
p2819
tp2820
(lp2821
(I277252
I277968
g6
g14
tp2822
as(S'AP53'
p2823
S'AP53_951'
p2824
S'AP53_951'
p2825
tp2826
(lp2827
(I953390
I953779
g14
S'cdd'
p2828
tp2829
as(S'AP53'
p2830
S'AP53_341'
p2831
S'AP53_341'
p2832
tp2833
(lp2834
(I359665
I360138
g6
g14
tp2835
as(S'AP53'
p2836
S'AP53_1235'
p2837
S'AP53_1235'
p2838
tp2839
(lp2840
(I1209781
I1210083
g6
g14
tp2841
as(S'AP53'
p2842
S'AP53_220'
p2843
S'AP53_220'
p2844
tp2845
(lp2846
(I235096
I235566
g6
S'rpsG'
p2847
tp2848
as(S'AP53'
p2849
S'AP53_668'
p2850
S'AP53_668'
p2851
tp2852
(lp2853
(I659593
I659952
g6
S'rplT'
p2854
tp2855
as(S'AP53'
p2856
S'AP53_1212'
p2857
S'AP53_1212'
p2858
tp2859
(lp2860
(I1187784
I1187996
g14
g14
tp2861
as(S'AP53'
p2862
S'AP53_1785'
p2863
S'AP53_1785'
p2864
tp2865
(lp2866
(I1783348
I1783554
g6
g14
tp2867
as(S'AP53'
p2868
S'AP53_1025'
p2869
S'AP53_1025'
p2870
tp2871
(lp2872
(I1025603
I1026823
g14
g14
tp2873
as(S'AP53'
p2874
S'AP53_1253'
p2875
S'AP53_1253'
p2876
tp2877
(lp2878
(I1228317
I1228943
g6
g14
tp2879
as(S'AP53'
p2880
S'AP53_1453'
p2881
S'AP53_1453'
p2882
tp2883
(lp2884
(I1428095
I1428445
g14
S'rbfA'
p2885
tp2886
as(S'AP53'
p2887
S'AP53_1810'
p2888
S'AP53_1810'
p2889
tp2890
(lp2891
(I1801560
I1802438
g14
g14
tp2892
as(S'AP53'
p2893
S'AP53_18'
p2894
S'AP53_18'
p2895
tp2896
(lp2897
(I33789
I34544
g6
S'recO'
p2898
tp2899
as(S'AP53'
p2900
S'AP53_1213'
p2901
S'AP53_1213'
p2902
tp2903
(lp2904
(I1188198
I1188953
g6
g14
tp2905
as(S'AP53'
p2906
S'AP53_741'
p2907
S'AP53_741'
p2908
tp2909
(lp2910
(I736533
I736973
g6
S'arsC'
p2911
tp2912
as(S'AP53'
p2913
S'AP53_1071'
p2914
S'AP53_1071'
p2915
tp2916
(lp2917
(I1057001
I1057123
g6
g14
tp2918
as(S'AP53'
p2919
S'AP53_1605'
p2920
S'AP53_1605'
p2921
tp2922
(lp2923
(I1584100
I1584849
g14
S'truA'
p2924
tp2925
as(S'AP53'
p2926
S'AP53_1621'
p2927
S'AP53_1621'
p2928
tp2929
(lp2930
(I1609384
I1610313
g14
S'lacC2'
p2931
tp2932
as(S'AP53'
p2933
S'AP53_293'
p2934
S'AP53_293'
p2935
tp2936
(lp2937
(I315600
I315863
g6
g14
tp2938
as(S'AP53'
p2939
S'AP53_29'
p2940
S'AP53_29'
p2941
tp2942
(lp2943
(I48691
I49182
g6
S'purE'
p2944
tp2945
as(S'AP53'
p2946
S'AP53_1291'
p2947
S'AP53_1291'
p2948
tp2949
(lp2950
(I1265701
I1269117
g14
S'lacZ'
p2951
tp2952
as(S'AP53'
p2953
S'AP53_454'
p2954
S'AP53_454'
p2955
tp2956
(lp2957
(I460005
I460307
g6
g14
tp2958
as(S'AP53'
p2959
S'AP53_1009'
p2960
S'AP53_1009'
p2961
tp2962
(lp2963
(I1010817
I1011245
g14
g14
tp2964
as(S'AP53'
p2965
S'AP53_232'
p2966
S'AP53_232'
p2967
tp2968
(lp2969
(I248361
I249623
g6
S'sufD'
p2970
tp2971
as(S'AP53'
p2972
S'AP53_829'
p2973
S'AP53_829'
p2974
tp2975
(lp2976
(I829550
I830959
g6
S'pepV'
p2977
tp2978
as(S'AP53'
p2979
S'AP53_798'
p2980
S'AP53_798'
p2981
tp2982
(lp2983
(I795600
I798017
g14
S'hylA'
p2984
tp2985
as(S'AP53'
p2986
S'AP53_1227'
p2987
S'AP53_1227'
p2988
tp2989
(lp2990
(I1200298
I1201152
g14
S'folD'
p2991
tp2992
as(S'AP53'
p2993
S'AP53_888'
p2994
S'AP53_888'
p2995
tp2996
(lp2997
(I888124
I890610
g6
S'gyrA'
p2998
tp2999
as(S'AP53'
p3000
S'AP53_456'
p3001
S'AP53_456'
p3002
tp3003
(lp3004
(I460631
I460762
g6
g14
tp3005
as(S'AP53'
p3006
S'AP53_1161'
p3007
S'AP53_1161'
p3008
tp3009
(lp3010
(I1146983
I1147261
g6
g14
tp3011
as(S'AP53'
p3012
S'AP53_546'
p3013
S'AP53_546'
p3014
tp3015
(lp3016
(I555921
I556871
g6
S'sagB'
p3017
tp3018
as(S'AP53'
p3019
S'AP53_893'
p3020
S'AP53_893'
p3021
tp3022
(lp3023
(I892979
I893890
g14
g14
tp3024
as(S'AP53'
p3025
S'AP53_61'
p3026
S'AP53_61'
p3027
tp3028
(lp3029
(I73551
I73733
g6
S'rpmD'
p3030
tp3031
as(S'AP53'
p3032
S'AP53_1322'
p3033
S'AP53_1322'
p3034
tp3035
(lp3036
(I1306350
I1306784
g14
g14
tp3037
as(S'AP53'
p3038
S'AP53_770'
p3039
S'AP53_770'
p3040
tp3041
(lp3042
(I764163
I765092
g6
S'elaC'
p3043
tp3044
as(S'AP53'
p3045
S'AP53_189'
p3046
S'AP53_189'
p3047
tp3048
(lp3049
(I204145
I205506
g6
S'radA'
p3050
tp3051
as(S'AP53'
p3052
S'AP53_269'
p3053
S'AP53_269'
p3054
tp3055
(lp3056
(I293065
I293559
g6
S'nrdR'
p3057
tp3058
as(S'AP53'
p3059
S'AP53_1244'
p3060
S'AP53_1244'
p3061
tp3062
(lp3063
(I1219500
I1220648
g14
S'ftsQ'
p3064
tp3065
as(S'AP53'
p3066
S'AP53_1775'
p3067
S'AP53_1775'
p3068
tp3069
(lp3070
(I1772283
I1772681
g14
S'spxA2'
p3071
tp3072
as(S'AP53'
p3073
S'AP53_999'
p3074
S'AP53_999'
p3075
tp3076
(lp3077
(I1002953
I1003567
g14
g14
tp3078
as(S'AP53'
p3079
S'AP53_530'
p3080
S'AP53_530'
p3081
tp3082
(lp3083
(I536448
I537359
g6
g14
tp3084
as(S'AP53'
p3085
S'AP53_1847'
p3086
S'AP53_1847'
p3087
tp3088
(lp3089
(I1838837
I1840081
g14
S'pqqL'
p3090
tp3091
as(S'AP53'
p3092
S'AP53_129'
p3093
S'AP53_129'
p3094
tp3095
(lp3096
(I144103
I145365
g14
S'telX'
p3097
tp3098
as(S'AP53'
p3099
S'AP53_1330'
p3100
S'AP53_1330'
p3101
tp3102
(lp3103
(I1310394
I1310660
g14
g14
tp3104
as(S'AP53'
p3105
S'AP53_76'
p3106
S'AP53_76'
p3107
tp3108
(lp3109
(I89054
I89869
g6
S'adcB'
p3110
tp3111
as(S'AP53'
p3112
S'AP53_1457'
p3113
S'AP53_1457'
p3114
tp3115
(lp3116
(I1432139
I1433296
g14
S'nusA'
p3117
tp3118
as(S'AP53'
p3119
S'AP53_905'
p3120
S'AP53_905'
p3121
tp3122
(lp3123
(I905162
I906292
g6
g14
tp3124
as(S'AP53'
p3125
S'AP53_884'
p3126
S'AP53_884'
p3127
tp3128
(lp3129
(I881732
I883456
g6
g14
tp3130
as(S'AP53'
p3131
S'AP53_1321'
p3132
S'AP53_1321'
p3133
tp3134
(lp3135
(I1305765
I1306346
g14
g14
tp3136
as(S'AP53'
p3137
S'AP53_629'
p3138
S'AP53_629'
p3139
tp3140
(lp3141
(I635369
I635770
g14
g14
tp3142
as(S'AP53'
p3143
S'AP53_1438'
p3144
S'AP53_1438'
p3145
tp3146
(lp3147
(I1416127
I1416951
g14
g14
tp3148
as(S'AP53'
p3149
S'AP53_1600'
p3150
S'AP53_1600'
p3151
tp3152
(lp3153
(I1581402
I1582247
g6
g14
tp3154
as(S'AP53'
p3155
S'AP53_1328'
p3156
S'AP53_1328'
p3157
tp3158
(lp3159
(I1308832
I1309650
g14
g14
tp3160
as(S'AP53'
p3161
S'AP53_886'
p3162
S'AP53_886'
p3163
tp3164
(lp3165
(I885421
I886791
g6
S'nox'
p3166
tp3167
as(S'AP53'
p3168
S'AP53_115'
p3169
S'AP53_115'
p3170
tp3171
(lp3172
(I131647
I132294
g6
S'atoA1'
p3173
tp3174
as(S'AP53'
p3175
S'AP53_881'
p3176
S'AP53_881'
p3177
tp3178
(lp3179
(I878882
I880138
g6
S'glyA'
p3180
tp3181
as(S'AP53'
p3182
S'AP53_837'
p3183
S'AP53_837'
p3184
tp3185
(lp3186
(I838455
I839246
g6
S'folP'
p3187
tp3188
as(S'AP53'
p3189
S'AP53_262'
p3190
S'AP53_262'
p3191
tp3192
(lp3193
(I285800
I287191
g14
S'trkH'
p3194
tp3195
as(S'AP53'
p3196
S'AP53_142'
p3197
S'AP53_142'
p3198
tp3199
(lp3200
(I161562
I161840
g6
S'ulaB'
p3201
tp3202
as(S'AP53'
p3203
S'AP53_1384'
p3204
S'AP53_1384'
p3205
tp3206
(lp3207
(I1358058
I1359665
g14
S'cvfA'
p3208
tp3209
as(S'AP53'
p3210
S'AP53_1526'
p3211
S'AP53_1526'
p3212
tp3213
(lp3214
(I1503893
I1504249
g14
S'acpS'
p3215
tp3216
as(S'AP53'
p3217
S'AP53_1742'
p3218
S'AP53_1742'
p3219
tp3220
(lp3221
(I1735633
I1736193
g6
S'ahpC'
p3222
tp3223
as(S'AP53'
p3224
S'AP53_1601'
p3225
S'AP53_1601'
p3226
tp3227
(lp3228
(I1582312
I1582872
g14
g14
tp3229
as(S'AP53'
p3230
S'AP53_1000'
p3231
S'AP53_1000'
p3232
tp3233
(lp3234
(I1004126
I1004347
g14
S'prx'
p3235
tp3236
as(S'AP53'
p3237
S'AP53_285'
p3238
S'AP53_285'
p3239
tp3240
(lp3241
(I310029
I310823
g6
S'glr'
p3242
tp3243
as(S'AP53'
p3244
S'AP53_1757'
p3245
S'AP53_1757'
p3246
tp3247
(lp3248
(I1757231
I1758859
g14
S'treC'
p3249
tp3250
as(S'AP53'
p3251
S'AP53_157'
p3252
S'AP53_157'
p3253
tp3254
(lp3255
(I178005
I178187
g6
g14
tp3256
as(S'AP53'
p3257
S'AP53_1755'
p3258
S'AP53_1755'
p3259
tp3260
(lp3261
(I1753922
I1754962
g6
S'tsf'
p3262
tp3263
as(S'AP53'
p3264
S'AP53_1103'
p3265
S'AP53_1103'
p3266
tp3267
(lp3268
(I1084968
I1086188
g14
g14
tp3269
as(S'AP53'
p3270
S'AP53_49'
p3271
S'AP53_49'
p3272
tp3273
(lp3274
(I68158
I68811
g6
S'rpsC'
p3275
tp3276
as(S'AP53'
p3277
S'AP53_1651'
p3278
S'AP53_1651'
p3279
tp3280
(lp3281
(I1632482
I1633096
g6
S'def'
p3282
tp3283
as(S'AP53'
p3284
S'AP53_1298'
p3285
S'AP53_1298'
p3286
tp3287
(lp3288
(I1276854
I1277732
g6
S'nanK'
p3289
tp3290
as(S'AP53'
p3291
S'AP53_156'
p3292
S'AP53_156'
p3293
tp3294
(lp3295
(I177455
I177985
g6
g14
tp3296
as(S'AP53'
p3297
S'AP53_1458'
p3298
S'AP53_1458'
p3299
tp3300
(lp3301
(I1433471
I1433854
g14
S'rimP'
p3302
tp3303
as(S'AP53'
p3304
S'AP53_1539'
p3305
S'AP53_1539'
p3306
tp3307
(lp3308
(I1520405
I1521478
g14
S'pepP'
p3309
tp3310
as(S'AP53'
p3311
S'AP53_202'
p3312
S'AP53_202'
p3313
tp3314
(lp3315
(I216519
I217838
g6
g14
tp3316
as(S'AP53'
p3317
S'AP53_1326'
p3318
S'AP53_1326'
p3319
tp3320
(lp3321
(I1308040
I1308372
g14
g14
tp3322
as(S'AP53'
p3323
S'AP53_841'
p3324
S'AP53_841'
p3325
tp3326
(lp3327
(I841201
I842355
g6
S'potA'
p3328
tp3329
as(S'AP53'
p3330
S'AP53_1492'
p3331
S'AP53_1492'
p3332
tp3333
(lp3334
(I1465870
I1466403
g14
S'grpE'
p3335
tp3336
as(S'AP53'
p3337
S'AP53_1645'
p3338
S'AP53_1645'
p3339
tp3340
(lp3341
(I1627233
I1628612
g14
S'sgaT'
p3342
tp3343
as(S'AP53'
p3344
S'AP53_120'
p3345
S'AP53_120'
p3346
tp3347
(lp3348
(I135456
I137456
g6
S'ntpI'
p3349
tp3350
as(S'AP53'
p3351
S'AP53_1794'
p3352
S'AP53_1794'
p3353
tp3354
(lp3355
(I1787926
I1788198
g6
g14
tp3356
as(S'AP53'
p3357
S'AP53_410'
p3358
S'AP53_410'
p3359
tp3360
(lp3361
(I415169
I415405
g6
S'secG'
p3362
tp3363
as(S'AP53'
p3364
S'AP53_730'
p3365
S'AP53_730'
p3366
tp3367
(lp3368
(I724895
I726172
g14
S'mvaA'
p3369
tp3370
as(S'AP53'
p3371
S'AP53_452'
p3372
S'AP53_452'
p3373
tp3374
(lp3375
(I458865
I459749
g14
g14
tp3376
as(S'AP53'
p3377
S'AP53_1310'
p3378
S'AP53_1310'
p3379
tp3380
(lp3381
(I1292377
I1293243
g14
g14
tp3382
as(S'AP53'
p3383
S'AP53_1397'
p3384
S'AP53_1397'
p3385
tp3386
(lp3387
(I1370451
I1371059
g6
S'recU'
p3388
tp3389
as(S'AP53'
p3390
S'AP53_297'
p3391
S'AP53_297'
p3392
tp3393
(lp3394
(I318410
I319330
g6
g14
tp3395
as(S'AP53'
p3396
S'AP53_866'
p3397
S'AP53_866'
p3398
tp3399
(lp3400
(I865088
I866083
g6
S'eutD'
p3401
tp3402
as(S'AP53'
p3403
S'AP53_1820'
p3404
S'AP53_1820'
p3405
tp3406
(lp3407
(I1810371
I1810973
g6
g14
tp3408
as(S'AP53'
p3409
S'AP53_1782'
p3410
S'AP53_1782'
p3411
tp3412
(lp3413
(I1780013
I1781164
g14
g14
tp3414
as(S'AP53'
p3415
S'AP53_1853'
p3416
S'AP53_1853'
p3417
tp3418
(lp3419
(I1844841
I1845947
g6
S'recF'
p3420
tp3421
as(S'AP53'
p3422
S'AP53_921'
p3423
S'AP53_921'
p3424
tp3425
(lp3426
(I920805
I921503
g6
g14
tp3427
as(S'AP53'
p3428
S'AP53_238'
p3429
S'AP53_238'
p3430
tp3431
(lp3432
(I255821
I257791
g6
S'oppA'
p3433
tp3434
as(S'AP53'
p3435
S'AP53_1832'
p3436
S'AP53_1832'
p3437
tp3438
(lp3439
(I1822063
I1823424
g14
S'dnaC'
p3440
tp3441
as(S'AP53'
p3442
S'AP53_298'
p3443
S'AP53_298'
p3444
tp3445
(lp3446
(I319369
I319923
g6
g14
tp3447
as(S'AP53'
p3448
S'AP53_1219'
p3449
S'AP53_1219'
p3450
tp3451
(lp3452
(I1192612
I1193463
g14
g14
tp3453
as(S'AP53'
p3454
S'AP53_276'
p3455
S'AP53_276'
p3456
tp3457
(lp3458
(I302559
I303041
g6
g14
tp3459
as(S'AP53'
p3460
S'AP53_1491'
p3461
S'AP53_1491'
p3462
tp3463
(lp3464
(I1463864
I1465690
g14
S'dnaK'
p3465
tp3466
as(S'AP53'
p3467
S'AP53_134'
p3468
S'AP53_134'
p3469
tp3470
(lp3471
(I150474
I151829
g6
S'nga'
p3472
tp3473
as(S'AP53'
p3474
S'AP53_1761'
p3475
S'AP53_1761'
p3476
tp3477
(lp3478
(I1761970
I1762098
g14
g14
tp3479
as(S'AP53'
p3480
S'AP53_676'
p3481
S'AP53_676'
p3482
tp3483
(lp3484
(I669029
I669469
g14
g14
tp3485
as(S'AP53'
p3486
S'AP53_1812'
p3487
S'AP53_1812'
p3488
tp3489
(lp3490
(I1803392
I1805140
g14
S'aspS'
p3491
tp3492
as(S'AP53'
p3493
S'AP53_1855'
p3494
S'AP53_1855'
p3495
tp3496
(lp3497
(I1847070
I1848551
g14
S'guaB'
p3498
tp3499
as(S'AP53'
p3500
S'AP53_651'
p3501
S'AP53_651'
p3502
tp3503
(lp3504
(I645899
I646174
g14
g14
tp3505
as(S'AP53'
p3506
S'AP53_935'
p3507
S'AP53_935'
p3508
tp3509
(lp3510
(I936452
I938122
g14
S'fhs1'
p3511
tp3512
as(S'AP53'
p3513
S'AP53_1655'
p3514
S'AP53_1655'
p3515
tp3516
(lp3517
(I1638992
I1640848
g14
S'proS'
p3518
tp3519
as(S'AP53'
p3520
S'AP53_444'
p3521
S'AP53_444'
p3522
tp3523
(lp3524
(I451545
I452504
g6
g14
tp3525
as(S'AP53'
p3526
S'AP53_82'
p3527
S'AP53_82'
p3528
tp3529
(lp3530
(I101699
I102064
g6
g14
tp3531
as(S'AP53'
p3532
S'AP53_1672'
p3533
S'AP53_1672'
p3534
tp3535
(lp3536
(I1660895
I1663081
g14
S'ptbA'
p3537
tp3538
as(S'AP53'
p3539
S'AP53_970'
p3540
S'AP53_970'
p3541
tp3542
(lp3543
(I971622
I972962
g14
g14
tp3544
as(S'AP53'
p3545
S'AP53_878'
p3546
S'AP53_878'
p3547
tp3548
(lp3549
(I877009
I877848
g6
S'hemK'
p3550
tp3551
as(S'AP53'
p3552
S'AP53_810'
p3553
S'AP53_810'
p3554
tp3555
(lp3556
(I809218
I809742
g6
S'lepA'
p3557
tp3558
as(S'AP53'
p3559
S'AP53_1756'
p3560
S'AP53_1756'
p3561
tp3562
(lp3563
(I1755128
I1757023
g14
S'pepO'
p3564
tp3565
as(S'AP53'
p3566
S'AP53_1671'
p3567
S'AP53_1671'
p3568
tp3569
(lp3570
(I1659994
I1660812
g14
g14
tp3571
as(S'AP53'
p3572
S'AP53_1735'
p3573
S'AP53_1735'
p3574
tp3575
(lp3576
(I1729016
I1729150
g6
g14
tp3577
as(S'AP53'
p3578
S'AP53_1653'
p3579
S'AP53_1653'
p3580
tp3581
(lp3582
(I1633803
I1634231
g14
S'marR'
p3583
tp3584
as(S'AP53'
p3585
S'AP53_1654'
p3586
S'AP53_1654'
p3587
tp3588
(lp3589
(I1634341
I1638738
g14
S'polC'
p3590
tp3591
as(S'AP53'
p3592
S'AP53_283'
p3593
S'AP53_283'
p3594
tp3595
(lp3596
(I308742
I309431
g6
g14
tp3597
as(S'AP53'
p3598
S'AP53_1163'
p3599
S'AP53_1163'
p3600
tp3601
(lp3602
(I1149412
I1151031
g14
S'deaD'
p3603
tp3604
as(S'AP53'
p3605
S'AP53_901'
p3606
S'AP53_901'
p3607
tp3608
(lp3609
(I901540
I902886
g6
S'gid'
p3610
tp3611
as(S'AP53'
p3612
S'AP53_892'
p3613
S'AP53_892'
p3614
tp3615
(lp3616
(I892489
I892929
g6
S'hypo-high4'
p3617
tp3618
as(S'AP53'
p3619
S'AP53_1037'
p3620
S'AP53_1037'
p3621
tp3622
(lp3623
(I1033111
I1033467
g14
g14
tp3624
as(S'AP53'
p3625
S'AP53_1302'
p3626
S'AP53_1302'
p3627
tp3628
(lp3629
(I1281555
I1282595
g14
S'araR'
p3630
tp3631
as(S'AP53'
p3632
S'AP53_1597'
p3633
S'AP53_1597'
p3634
tp3635
(lp3636
(I1577145
I1578749
g14
S'pyrG'
p3637
tp3638
as(S'AP53'
p3639
S'AP53_775'
p3640
S'AP53_775'
p3641
tp3642
(lp3643
(I769493
I770149
g6
S'nth'
p3644
tp3645
as(S'AP53'
p3646
S'AP53_1143'
p3647
S'AP53_1143'
p3648
tp3649
(lp3650
(I1128597
I1129652
g14
S'prsA'
p3651
tp3652
as(S'AP53'
p3653
S'AP53_519'
p3654
S'AP53_519'
p3655
tp3656
(lp3657
(I522755
I523768
g6
S'prfB'
p3658
tp3659
as(S'AP53'
p3660
S'AP53_1630'
p3661
S'AP53_1630'
p3662
tp3663
(lp3664
(I1615072
I1615464
g14
S'rpsI'
p3665
tp3666
as(S'AP53'
p3667
S'AP53_1788'
p3668
S'AP53_1788'
p3669
tp3670
(lp3671
(I1785015
I1785257
g6
g14
tp3672
as(S'AP53'
p3673
S'AP53_212'
p3674
S'AP53_212'
p3675
tp3676
(lp3677
(I226366
I227238
g6
S'engC'
p3678
tp3679
as(S'AP53'
p3680
S'AP53_1771'
p3681
S'AP53_1771'
p3682
tp3683
(lp3684
(I1770972
I1771088
g14
g14
tp3685
as(S'AP53'
p3686
S'AP53_728'
p3687
S'AP53_728'
p3688
tp3689
(lp3690
(I722676
I723689
g6
S'mvaK2'
p3691
tp3692
as(S'AP53'
p3693
S'AP53_871'
p3694
S'AP53_871'
p3695
tp3696
(lp3697
(I870796
I871779
g6
S'guaC'
p3698
tp3699
as(S'AP53'
p3700
S'AP53_1151'
p3701
S'AP53_1151'
p3702
tp3703
(lp3704
(I1137911
I1139131
g6
S'hypo13'
p3705
tp3706
as(S'AP53'
p3707
S'AP53_1041'
p3708
S'AP53_1041'
p3709
tp3710
(lp3711
(I1036575
I1037345
g14
g14
tp3712
as(S'AP53'
p3713
S'AP53_718'
p3714
S'AP53_718'
p3715
tp3716
(lp3717
(I711325
I712533
g6
S'cca'
p3718
tp3719
as(S'AP53'
p3720
S'AP53_286'
p3721
S'AP53_286'
p3722
tp3723
(lp3724
(I310820
I311806
g6
S'rdgB'
p3725
tp3726
as(S'AP53'
p3727
S'AP53_460'
p3728
S'AP53_460'
p3729
tp3730
(lp3731
(I463639
I464436
g6
g14
tp3732
as(S'AP53'
p3733
S'AP53_1215'
p3734
S'AP53_1215'
p3735
tp3736
(lp3737
(I1189607
I1190749
g6
S'int4'
p3738
tp3739
as(S'AP53'
p3740
S'AP53_1017'
p3741
S'AP53_1017'
p3742
tp3743
(lp3744
(I1021538
I1022146
g14
g14
tp3745
as(S'AP53'
p3746
S'AP53_299'
p3747
S'AP53_299'
p3748
tp3749
(lp3750
(I320056
I321390
g6
S'hlyX'
p3751
tp3752
as(S'AP53'
p3753
S'AP53_923'
p3754
S'AP53_923'
p3755
tp3756
(lp3757
(I923215
I923556
g14
S'ylxM'
p3758
tp3759
as(S'AP53'
p3760
S'AP53_357'
p3761
S'AP53_357'
p3762
tp3763
(lp3764
(I372874
I373680
g14
S'ppi'
p3765
tp3766
as(S'AP53'
p3767
S'AP53_1442'
p3768
S'AP53_1442'
p3769
tp3770
(lp3771
(I1418894
I1419244
g14
S'lacC1'
p3772
tp3773
as(S'AP53'
p3774
S'AP53_870'
p3775
S'AP53_870'
p3776
tp3777
(lp3778
(I868992
I870518
g6
S'proX'
p3779
tp3780
as(S'AP53'
p3781
S'AP53_784'
p3782
S'AP53_784'
p3783
tp3784
(lp3785
(I777561
I778808
g6
g14
tp3786
as(S'AP53'
p3787
S'AP53_1268'
p3788
S'AP53_1268'
p3789
tp3790
(lp3791
(I1243101
I1243781
g14
S'arcR'
p3792
tp3793
as(S'AP53'
p3794
S'AP53_816'
p3795
S'AP53_816'
p3796
tp3797
(lp3798
(I815563
I817038
g6
g14
tp3799
as(S'AP53'
p3800
S'AP53_502'
p3801
S'AP53_502'
p3802
tp3803
(lp3804
(I504489
I504656
g14
g14
tp3805
as(S'AP53'
p3806
S'AP53_64'
p3807
S'AP53_64'
p3808
tp3809
(lp3810
(I75859
I76497
g6
S'adk'
p3811
tp3812
as(S'AP53'
p3813
S'AP53_47'
p3814
S'AP53_47'
p3815
tp3816
(lp3817
(I67507
I67785
g6
S'rpsS'
p3818
tp3819
as(S'AP53'
p3820
S'AP53_739'
p3821
S'AP53_739'
p3822
tp3823
(lp3824
(I734543
I735226
g6
S'rpiA'
p3825
tp3826
as(S'AP53'
p3827
S'AP53_1570'
p3828
S'AP53_1570'
p3829
tp3830
(lp3831
(I1553025
I1553324
g6
g14
tp3832
as(S'AP53'
p3833
S'AP53_716'
p3834
S'AP53_716'
p3835
tp3836
(lp3837
(I709972
I710352
g6
g14
tp3838
as(S'AP53'
p3839
S'AP53_732'
p3840
S'AP53_732'
p3841
tp3842
(lp3843
(I727543
I728382
g6
S'thyA'
p3844
tp3845
as(S'AP53'
p3846
S'AP53_1272'
p3847
S'AP53_1272'
p3848
tp3849
(lp3850
(I1246445
I1248178
g14
S'yesM'
p3851
tp3852
as(S'AP53'
p3853
S'AP53_1371'
p3854
S'AP53_1371'
p3855
tp3856
(lp3857
(I1344326
I1345267
g6
S'cysM'
p3858
tp3859
as(S'AP53'
p3860
S'AP53_231'
p3861
S'AP53_231'
p3862
tp3863
(lp3864
(I247496
I248266
g6
S'sufC'
p3865
tp3866
as(S'AP53'
p3867
S'AP53_1144'
p3868
S'AP53_1144'
p3869
tp3870
(lp3871
(I1129715
I1130386
g14
g14
tp3872
as(S'AP53'
p3873
S'AP53_737'
p3874
S'AP53_737'
p3875
tp3876
(lp3877
(I731265
I732008
g6
S'vfr'
p3878
tp3879
as(S'AP53'
p3880
S'AP53_1798'
p3881
S'AP53_1798'
p3882
tp3883
(lp3884
(I1791179
I1791352
g6
g14
tp3885
as(S'AP53'
p3886
S'AP53_1441'
p3887
S'AP53_1441'
p3888
tp3889
(lp3890
(I1417767
I1418744
g14
S'lacD1'
p3891
tp3892
as(S'AP53'
p3893
S'AP53_1446'
p3894
S'AP53_1446'
p3895
tp3896
(lp3897
(I1421943
I1422248
g14
S'gatB'
p3898
tp3899
as(S'AP53'
p3900
S'AP53_1594'
p3901
S'AP53_1594'
p3902
tp3903
(lp3904
(I1574825
I1575706
g14
S'fba'
p3905
tp3906
as(S'AP53'
p3907
S'AP53_1152'
p3908
S'AP53_1152'
p3909
tp3910
(lp3911
(I1139245
I1139835
g14
S'hypo12-4'
p3912
tp3913
as(S'AP53'
p3914
S'AP53_307'
p3915
S'AP53_307'
p3916
tp3917
(lp3918
(I328125
I329570
g14
S'murE'
p3919
tp3920
as(S'AP53'
p3921
S'AP53_1523'
p3922
S'AP53_1523'
p3923
tp3924
(lp3925
(I1501030
I1501146
g6
g14
tp3926
as(S'AP53'
p3927
S'AP53_1730'
p3928
S'AP53_1730'
p3929
tp3930
(lp3931
(I1723578
I1724489
g6
g14
tp3932
as(S'AP53'
p3933
S'AP53_1394'
p3934
S'AP53_1394'
p3935
tp3936
(lp3937
(I1367811
I1368965
g14
g14
tp3938
as(S'AP53'
p3939
S'AP53_953'
p3940
S'AP53_953'
p3941
tp3942
(lp3943
(I955291
I956211
g6
S'coaA'
p3944
tp3945
as(S'AP53'
p3946
S'AP53_1444'
p3947
S'AP53_1444'
p3948
tp3949
(lp3950
(I1419784
I1420209
g14
S'lacA1'
p3951
tp3952
as(S'AP53'
p3953
S'AP53_1704'
p3954
S'AP53_1704'
p3955
tp3956
(lp3957
(I1701992
I1702396
g14
S'hypo6'
p3958
tp3959
as(S'AP53'
p3960
S'AP53_182'
p3961
S'AP53_182'
p3962
tp3963
(lp3964
(I196444
I197343
g14
S'hasC2'
p3965
tp3966
as(S'AP53'
p3967
S'AP53_414'
p3968
S'AP53_414'
p3969
tp3970
(lp3971
(I419144
I419791
g14
S'pcp'
p3972
tp3973
as(S'AP53'
p3974
S'AP53_326'
p3975
S'AP53_326'
p3976
tp3977
(lp3978
(I341711
I346579
g6
S'prtS'
p3979
tp3980
as(S'AP53'
p3981
S'AP53_90'
p3982
S'AP53_90'
p3983
tp3984
(lp3985
(I105872
I106825
g6
S'yujA'
p3986
tp3987
as(S'AP53'
p3988
S'AP53_1057'
p3989
S'AP53_1057'
p3990
tp3991
(lp3992
(I1042769
I1042927
g14
g14
tp3993
as(S'AP53'
p3994
S'AP53_1662'
p3995
S'AP53_1662'
p3996
tp3997
(lp3998
(I1648818
I1650431
g14
S'dexB'
p3999
tp4000
as(S'AP53'
p4001
S'AP53_132'
p4002
S'AP53_132'
p4003
tp4004
(lp4005
(I148313
I149356
g6
g14
tp4006
as(S'AP53'
p4007
S'AP53_77'
p4008
S'AP53_77'
p4009
tp4010
(lp4011
(I89909
I90292
g14
g14
tp4012
as(S'AP53'
p4013
S'AP53_949'
p4014
S'AP53_949'
p4015
tp4016
(lp4017
(I950573
I952105
g14
g14
tp4018
as(S'AP53'
p4019
S'AP53_1602'
p4020
S'AP53_1602'
p4021
tp4022
(lp4023
(I1583277
I1583390
g6
g14
tp4024
as(S'AP53'
p4025
S'AP53_1308'
p4026
S'AP53_1308'
p4027
tp4028
(lp4029
(I1290821
I1291621
g6
S'spd3'
p4030
tp4031
as(S'AP53'
p4032
S'AP53_1542'
p4033
S'AP53_1542'
p4034
tp4035
(lp4036
(I1525702
I1526358
g6
g14
tp4037
as(S'AP53'
p4038
S'AP53_197'
p4039
S'AP53_197'
p4040
tp4041
(lp4042
(I213359
I214117
g6
g14
tp4043
as(S'AP53'
p4044
S'AP53_525'
p4045
S'AP53_525'
p4046
tp4047
(lp4048
(I528817
I531276
g6
S'dinG'
p4049
tp4050
as(S'AP53'
p4051
S'AP53_540'
p4052
S'AP53_540'
p4053
tp4054
(lp4055
(I546762
I547109
g6
S'rplS'
p4056
tp4057
as(S'AP53'
p4058
S'AP53_1859'
p4059
S'AP53_1859'
p4060
tp4061
(lp4062
(I1851251
I1852870
g6
g14
tp4063
as(S'AP53'
p4064
S'AP53_856'
p4065
S'AP53_856'
p4066
tp4067
(lp4068
(I857170
I857850
g6
S'radC'
p4069
tp4070
as(S'AP53'
p4071
S'AP53_1055'
p4072
S'AP53_1055'
p4073
tp4074
(lp4075
(I1041959
I1042642
g6
g14
tp4076
as(S'AP53'
p4077
S'AP53_1192'
p4078
S'AP53_1192'
p4079
tp4080
(lp4081
(I1178107
I1178370
g14
g14
tp4082
as(S'AP53'
p4083
S'AP53_1285'
p4084
S'AP53_1285'
p4085
tp4086
(lp4087
(I1260680
I1261432
g6
S'aroA2'
p4088
tp4089
as(S'AP53'
p4090
S'AP53_1772'
p4091
S'AP53_1772'
p4092
tp4093
(lp4094
(I1771166
I1771471
g14
g14
tp4095
as(S'AP53'
p4096
S'AP53_1622'
p4097
S'AP53_1622'
p4098
tp4099
(lp4100
(I1610361
I1610876
g14
S'lacB2'
p4101
tp4102
as(S'AP53'
p4103
S'AP53_939'
p4104
S'AP53_939'
p4105
tp4106
(lp4107
(I940995
I941327
g14
S'gcvH'
p4108
tp4109
as(S'AP53'
p4110
S'AP53_473'
p4111
S'AP53_473'
p4112
tp4113
(lp4114
(I478322
I479254
g6
S'ptsK'
p4115
tp4116
as(S'AP53'
p4117
S'AP53_470'
p4118
S'AP53_470'
p4119
tp4120
(lp4121
(I475065
I477197
g6
g14
tp4122
as(S'AP53'
p4123
S'AP53_50'
p4124
S'AP53_50'
p4125
tp4126
(lp4127
(I68815
I69228
g6
S'rplP'
p4128
tp4129
as(S'AP53'
p4130
S'AP53_570'
p4131
S'AP53_570'
p4132
tp4133
(lp4134
(I580200
I580562
g6
g14
tp4135
as(S'AP53'
p4136
S'AP53_1713'
p4137
S'AP53_1713'
p4138
tp4139
(lp4140
(I1708406
I1709221
g14
S'spd'
p4141
tp4142
as(S'AP53'
p4143
S'AP53_301'
p4144
S'AP53_301'
p4145
tp4146
(lp4147
(I322384
I323325
g6
S'ppaC'
p4148
tp4149
as(S'AP53'
p4150
S'AP53_58'
p4151
S'AP53_58'
p4152
tp4153
(lp4154
(I72026
I72562
g6
S'rplF'
p4155
tp4156
as(S'AP53'
p4157
S'AP53_227'
p4158
S'AP53_227'
p4159
tp4160
(lp4161
(I244452
I245291
g6
S'uppP'
p4162
tp4163
as(S'AP53'
p4164
S'AP53_491'
p4165
S'AP53_491'
p4166
tp4167
(lp4168
(I491762
I492241
g14
S'bsaA'
p4169
tp4170
as(S'AP53'
p4171
S'AP53_86'
p4172
S'AP53_86'
p4173
tp4174
(lp4175
(I104449
I104796
g6
S'comGD'
p4176
tp4177
as(S'AP53'
p4178
S'AP53_349'
p4179
S'AP53_349'
p4180
tp4181
(lp4182
(I367246
I367800
g6
S'MutT'
p4183
tp4184
as(S'AP53'
p4185
S'AP53_652'
p4186
S'AP53_652'
p4187
tp4188
(lp4189
(I646463
I646813
g6
g14
tp4190
as(S'AP53'
p4191
S'AP53_608'
p4192
S'AP53_608'
p4193
tp4194
(lp4195
(I617752
I619803
g14
g14
tp4196
as(S'AP53'
p4197
S'AP53_550'
p4198
S'AP53_550'
p4199
tp4200
(lp4201
(I559947
I560630
g6
S'sagF'
p4202
tp4203
as(S'AP53'
p4204
S'AP53_163'
p4205
S'AP53_163'
p4206
tp4207
(lp4208
(I182246
I182698
g14
g14
tp4209
as(S'AP53'
p4210
S'AP53_753'
p4211
S'AP53_753'
p4212
tp4213
(lp4214
(I746762
I747415
g6
S'ung'
p4215
tp4216
as(S'AP53'
p4217
S'AP53_179'
p4218
S'AP53_179'
p4219
tp4220
(lp4221
(I195291
I195422
g6
g14
tp4222
as(S'AP53'
p4223
S'AP53_192'
p4224
S'AP53_192'
p4225
tp4226
(lp4227
(I207215
I208660
g6
S'gltX'
p4228
tp4229
as(S'AP53'
p4230
S'AP53_439'
p4231
S'AP53_439'
p4232
tp4233
(lp4234
(I446923
I447795
g6
S'aroE'
p4235
tp4236
as(S'AP53'
p4237
S'AP53_1863'
p4238
S'AP53_1863'
p4239
tp4240
(lp4241
(I1858465
I1859688
g6
S'htrA'
p4242
tp4243
as(S'AP53'
p4244
S'AP53_409'
p4245
S'AP53_409'
p4246
tp4247
(lp4248
(I413787
I414980
g6
S'pmrA'
p4249
tp4250
as(S'AP53'
p4251
S'AP53_208'
p4252
S'AP53_208'
p4253
tp4254
(lp4255
(I222487
I223317
g14
g14
tp4256
as(S'AP53'
p4257
S'AP53_852'
p4258
S'AP53_852'
p4259
tp4260
(lp4261
(I853505
I855037
g6
g14
tp4262
as(S'AP53'
p4263
S'AP53_894'
p4264
S'AP53_894'
p4265
tp4266
(lp4267
(I894007
I894657
g14
g14
tp4268
as(S'AP53'
p4269
S'AP53_1740'
p4270
S'AP53_1740'
p4271
tp4272
(lp4273
(I1734369
I1734482
g14
g14
tp4274
as(S'AP53'
p4275
S'AP53_206'
p4276
S'AP53_206'
p4277
tp4278
(lp4279
(I220502
I221416
g6
S'nanH'
p4280
tp4281
as(S'AP53'
p4282
S'AP53_1341'
p4283
S'AP53_1341'
p4284
tp4285
(lp4286
(I1319270
I1319902
g14
g14
tp4287
as(S'AP53'
p4288
S'AP53_1218'
p4289
S'AP53_1218'
p4290
tp4291
(lp4292
(I1191777
I1192619
g14
g14
tp4293
as(S'AP53'
p4294
S'AP53_130'
p4295
S'AP53_130'
p4296
tp4297
(lp4298
(I145378
I146256
g14
g14
tp4299
as(S'AP53'
p4300
S'AP53_1484'
p4301
S'AP53_1484'
p4302
tp4303
(lp4304
(I1457530
I1458468
g14
S'fabD'
p4305
tp4306
as(S'AP53'
p4307
S'AP53_453'
p4308
S'AP53_453'
p4309
tp4310
(lp4311
(I459774
I459950
g6
g14
tp4312
as(S'AP53'
p4313
S'AP53_1627'
p4314
S'AP53_1627'
p4315
tp4316
(lp4317
(I1614142
I1614258
g14
g14
tp4318
as(S'AP53'
p4319
S'AP53_684'
p4320
S'AP53_684'
p4321
tp4322
(lp4323
(I675858
I676316
g6
S'lsp'
p4324
tp4325
as(S'AP53'
p4326
S'AP53_379'
p4327
S'AP53_379'
p4328
tp4329
(lp4330
(I392578
I392802
g6
S'blpU'
p4331
tp4332
as(S'AP53'
p4333
S'AP53_780'
p4334
S'AP53_780'
p4335
tp4336
(lp4337
(I773758
I774351
g6
S'cpsFP'
p4338
tp4339
as(S'AP53'
p4340
S'AP53_1412'
p4341
S'AP53_1412'
p4342
tp4343
(lp4344
(I1387358
I1388371
g14
S'rmsH'
p4345
tp4346
as(S'AP53'
p4347
S'AP53_1587'
p4348
S'AP53_1587'
p4349
tp4350
(lp4351
(I1567659
I1568210
g14
g14
tp4352
as(S'AP53'
p4353
S'AP53_621'
p4354
S'AP53_621'
p4355
tp4356
(lp4357
(I629460
I630647
g14
g14
tp4358
as(S'AP53'
p4359
S'AP53_94'
p4360
S'AP53_94'
p4361
tp4362
(lp4363
(I109477
I110544
g14
S'pepA'
p4364
tp4365
as(S'AP53'
p4366
S'AP53_274'
p4367
S'AP53_274'
p4368
tp4369
(lp4370
(I300543
I301145
g6
g14
tp4371
as(S'AP53'
p4372
S'AP53_630'
p4373
S'AP53_630'
p4374
tp4375
(lp4376
(I635785
I636612
g14
g14
tp4377
as(S'AP53'
p4378
S'AP53_1297'
p4379
S'AP53_1297'
p4380
tp4381
(lp4382
(I1275708
I1276658
g14
g14
tp4383
as(S'AP53'
p4384
S'AP53_1410'
p4385
S'AP53_1410'
p4386
tp4387
(lp4388
(I1384771
I1387026
g14
S'pbpX'
p4389
tp4390
as(S'AP53'
p4391
S'AP53_1229'
p4392
S'AP53_1229'
p4393
tp4394
(lp4395
(I1203232
I1204641
g14
S'phr'
p4396
tp4397
as(S'AP53'
p4398
S'AP53_51'
p4399
S'AP53_51'
p4400
tp4401
(lp4402
(I69238
I69444
g6
S'rpmC'
p4403
tp4404
as(S'AP53'
p4405
S'AP53_1056'
p4406
S'AP53_1056'
p4407
tp4408
(lp4409
(I1042600
I1042734
g14
g14
tp4410
as(S'AP53'
p4411
S'AP53_337'
p4412
S'AP53_337'
p4413
tp4414
(lp4415
(I355666
I356799
g14
g14
tp4416
as(S'AP53'
p4417
S'AP53_44'
p4418
S'AP53_44'
p4419
tp4420
(lp4421
(I65598
I66221
g6
S'rplD'
p4422
tp4423
as(S'AP53'
p4424
S'AP53_873'
p4425
S'AP53_873'
p4426
tp4427
(lp4428
(I872665
I873948
g6
S'pbuX'
p4429
tp4430
as(S'AP53'
p4431
S'AP53_1720'
p4432
S'AP53_1720'
p4433
tp4434
(lp4435
(I1715944
I1716252
g14
S'celA'
p4436
tp4437
as(S'AP53'
p4438
S'AP53_729'
p4439
S'AP53_729'
p4440
tp4441
(lp4442
(I723676
I724665
g6
S'fni'
p4443
tp4444
as(S'AP53'
p4445
S'AP53_1433'
p4446
S'AP53_1433'
p4447
tp4448
(lp4449
(I1410449
I1411597
g14
S'nagA'
p4450
tp4451
as(S'AP53'
p4452
S'AP53_302'
p4453
S'AP53_302'
p4454
tp4455
(lp4456
(I323401
I324054
g6
g14
tp4457
as(S'AP53'
p4458
S'AP53_618'
p4459
S'AP53_618'
p4460
tp4461
(lp4462
(I627336
I627509
g14
g14
tp4463
as(S'AP53'
p4464
S'AP53_806'
p4465
S'AP53_806'
p4466
tp4467
(lp4468
(I805630
I806760
g6
S'hemN'
p4469
tp4470
as(S'AP53'
p4471
S'AP53_39'
p4472
S'AP53_39'
p4473
tp4474
(lp4475
(I58605
I61247
g6
S'adhE'
p4476
tp4477
as(S'AP53'
p4478
S'AP53_164'
p4479
S'AP53_164'
p4480
tp4481
(lp4482
(I182704
I183021
g14
g14
tp4483
as(S'AP53'
p4484
S'AP53_1248'
p4485
S'AP53_1248'
p4486
tp4487
(lp4488
(I1223818
I1225659
g14
S'typA'
p4489
tp4490
as(S'AP53'
p4491
S'AP53_1722'
p4492
S'AP53_1722'
p4493
tp4494
(lp4495
(I1716888
I1717868
g14
S'DeoR'
p4496
tp4497
as(S'AP53'
p4498
S'AP53_1679'
p4499
S'AP53_1679'
p4500
tp4501
(lp4502
(I1670402
I1671670
g6
g14
tp4503
as(S'AP53'
p4504
S'AP53_1278'
p4505
S'AP53_1278'
p4506
tp4507
(lp4508
(I1252743
I1253702
g14
g14
tp4509
as(S'AP53'
p4510
S'AP53_633'
p4511
S'AP53_633'
p4512
tp4513
(lp4514
(I637246
I637638
g14
S'ssb2'
p4515
tp4516
as(S'AP53'
p4517
S'AP53_415'
p4518
S'AP53_415'
p4519
tp4520
(lp4521
(I419841
I420767
g14
g14
tp4522
as(S'AP53'
p4523
S'AP53_45'
p4524
S'AP53_45'
p4525
tp4526
(lp4527
(I66221
I66517
g6
S'rplW'
p4528
tp4529
as(S'AP53'
p4530
S'AP53_1343'
p4531
S'AP53_1343'
p4532
tp4533
(lp4534
(I1320352
I1320588
g14
g14
tp4535
as(S'AP53'
p4536
S'AP53_1547'
p4537
S'AP53_1547'
p4538
tp4539
(lp4540
(I1528332
I1529486
g6
S'mutY'
p4541
tp4542
as(S'AP53'
p4543
S'AP53_1153'
p4544
S'AP53_1153'
p4545
tp4546
(lp4547
(I1139832
I1140023
g14
S'hypo12-2'
p4548
tp4549
as(S'AP53'
p4550
S'AP53_1556'
p4551
S'AP53_1556'
p4552
tp4553
(lp4554
(I1536165
I1538618
g6
S'recD'
p4555
tp4556
as(S'AP53'
p4557
S'AP53_1422'
p4558
S'AP53_1422'
p4559
tp4560
(lp4561
(I1398289
I1399635
g14
S'npx'
p4562
tp4563
as(S'AP53'
p4564
S'AP53_975'
p4565
S'AP53_975'
p4566
tp4567
(lp4568
(I978193
I978735
g6
g14
tp4569
as(S'AP53'
p4570
S'AP53_790'
p4571
S'AP53_790'
p4572
tp4573
(lp4574
(I784044
I785705
g6
g14
tp4575
as(S'AP53'
p4576
S'AP53_317'
p4577
S'AP53_317'
p4578
tp4579
(lp4580
(I336112
I336435
g6
g14
tp4581
as(S'AP53'
p4582
S'AP53_507'
p4583
S'AP53_507'
p4584
tp4585
(lp4586
(I510617
I512524
g14
g14
tp4587
as(S'AP53'
p4588
S'AP53_1464'
p4589
S'AP53_1464'
p4590
tp4591
(lp4592
(I1438915
I1439334
g6
S'hit'
p4593
tp4594
as(S'AP53'
p4595
S'AP53_576'
p4596
S'AP53_576'
p4597
tp4598
(lp4599
(I585271
I585657
g6
g14
tp4600
as(S'AP53'
p4601
S'AP53_1470'
p4602
S'AP53_1470'
p4603
tp4604
(lp4605
(I1443928
I1444740
g6
g14
tp4606
as(S'AP53'
p4607
S'AP53_1538'
p4608
S'AP53_1538'
p4609
tp4610
(lp4611
(I1519909
I1520370
g14
S'comEB'
p4612
tp4613
as(S'AP53'
p4614
S'AP53_1232'
p4615
S'AP53_1232'
p4616
tp4617
(lp4618
(I1206337
I1206567
g14
g14
tp4619
as(S'AP53'
p4620
S'AP53_1490'
p4621
S'AP53_1490'
p4622
tp4623
(lp4624
(I1462447
I1463583
g14
S'dnaJ'
p4625
tp4626
as(S'AP53'
p4627
S'AP53_824'
p4628
S'AP53_824'
p4629
tp4630
(lp4631
(I823399
I824187
g6
g14
tp4632
as(S'AP53'
p4633
S'AP53_1375'
p4634
S'AP53_1375'
p4635
tp4636
(lp4637
(I1347733
I1348737
g14
S'yvqE'
p4638
tp4639
as(S'AP53'
p4640
S'AP53_2'
p4641
S'AP53_2'
p4642
tp4643
(lp4644
(I1742
I2878
g6
S'dnaN'
p4645
tp4646
as(S'AP53'
p4647
S'AP53_1178'
p4648
S'AP53_1178'
p4649
tp4650
(lp4651
(I1164823
I1165005
g14
S'prx'
p4652
tp4653
as(S'AP53'
p4654
S'AP53_758'
p4655
S'AP53_758'
p4656
tp4657
(lp4658
(I754268
I755293
g6
S'bcaT'
p4659
tp4660
as(S'AP53'
p4661
S'AP53_80'
p4662
S'AP53_80'
p4663
tp4664
(lp4665
(I94267
I97833
g6
S'rpoB'
p4666
tp4667
as(S'AP53'
p4668
S'AP53_1714'
p4669
S'AP53_1714'
p4670
tp4671
(lp4672
(I1709305
I1709433
g6
g14
tp4673
as(S'AP53'
p4674
S'AP53_1456'
p4675
S'AP53_1456'
p4676
tp4677
(lp4678
(I1431827
I1432123
g14
g14
tp4679
as(S'AP53'
p4680
S'AP53_131'
p4681
S'AP53_131'
p4682
tp4683
(lp4684
(I146694
I147986
g6
S'purA'
p4685
tp4686
as(S'AP53'
p4687
S'AP53_705'
p4688
S'AP53_705'
p4689
tp4690
(lp4691
(I700789
I701712
g6
S'apbA'
p4692
tp4693
as(S'AP53'
p4694
S'AP53_398'
p4695
S'AP53_398'
p4696
tp4697
(lp4698
(I405141
I405422
g6
g14
tp4699
as(S'AP53'
p4700
S'AP53_239'
p4701
S'AP53_239'
p4702
tp4703
(lp4704
(I257856
I259358
g6
S'oppB'
p4705
tp4706
as(S'AP53'
p4707
S'AP53_1217'
p4708
S'AP53_1217'
p4709
tp4710
(lp4711
(I1191212
I1191799
g14
S'yfaA'
p4712
tp4713
as(S'AP53'
p4714
S'AP53_589'
p4715
S'AP53_589'
p4716
tp4717
(lp4718
(I602013
I603167
g6
S'rgpAc'
p4719
tp4720
as(S'AP53'
p4721
S'AP53_1473'
p4722
S'AP53_1473'
p4723
tp4724
(lp4725
(I1446999
I1447910
g6
S'manN'
p4726
tp4727
as(S'AP53'
p4728
S'AP53_673'
p4729
S'AP53_673'
p4730
tp4731
(lp4732
(I665728
I666069
g6
g14
tp4733
as(S'AP53'
p4734
S'AP53_804'
p4735
S'AP53_804'
p4736
tp4737
(lp4738
(I803447
I804802
g6
S'glmM'
p4739
tp4740
as(S'AP53'
p4741
S'AP53_1223'
p4742
S'AP53_1223'
p4743
tp4744
(lp4745
(I1196920
I1197747
g14
S'hlyA1'
p4746
tp4747
as(S'AP53'
p4748
S'AP53_35'
p4749
S'AP53_35'
p4750
tp4751
(lp4752
(I54527
I55525
g6
S'ruvB'
p4753
tp4754
as(S'AP53'
p4755
S'AP53_216'
p4756
S'AP53_216'
p4757
tp4758
(lp4759
(I229798
I230736
g6
S'cbf'
p4760
tp4761
as(S'AP53'
p4762
S'AP53_1678'
p4763
S'AP53_1678'
p4764
tp4765
(lp4766
(I1669803
I1670369
g6
S'trpG'
p4767
tp4768
as(S'AP53'
p4769
S'AP53_1582'
p4770
S'AP53_1582'
p4771
tp4772
(lp4773
(I1562713
I1563411
g14
g14
tp4774
as(S'AP53'
p4775
S'AP53_330'
p4776
S'AP53_330'
p4777
tp4778
(lp4779
(I348306
I350303
g6
S'metG'
p4780
tp4781
as(S'AP53'
p4782
S'AP53_308'
p4783
S'AP53_308'
p4784
tp4785
(lp4786
(I329658
I331292
g6
g14
tp4787
as(S'AP53'
p4788
S'AP53_675'
p4789
S'AP53_675'
p4790
tp4791
(lp4792
(I667722
I668999
g14
g14
tp4793
as(S'AP53'
p4794
S'AP53_102'
p4795
S'AP53_102'
p4796
tp4797
(lp4798
(I115680
I117215
g14
S'rofA'
p4799
tp4800
as(S'AP53'
p4801
S'AP53_145'
p4802
S'AP53_145'
p4803
tp4804
(lp4805
(I163206
I164069
g6
S'ulaE'
p4806
tp4807
as(S'AP53'
p4808
S'AP53_680'
p4809
S'AP53_680'
p4810
tp4811
(lp4812
(I673616
I673930
g6
S'rplU'
p4813
tp4814
as(S'AP53'
p4815
S'AP53_821'
p4816
S'AP53_821'
p4817
tp4818
(lp4819
(I819977
I820786
g6
S'ptsC'
p4820
tp4821
as(S'AP53'
p4822
S'AP53_97'
p4823
S'AP53_97'
p4824
tp4825
(lp4826
(I111625
I112251
g6
g14
tp4827
as(S'AP53'
p4828
S'AP53_1700'
p4829
S'AP53_1700'
p4830
tp4831
(lp4832
(I1697663
I1698316
g14
S'irr'
p4833
tp4834
as(S'AP53'
p4835
S'AP53_752'
p4836
S'AP53_752'
p4837
tp4838
(lp4839
(I745982
I746632
g6
S'yecS'
p4840
tp4841
as(S'AP53'
p4842
S'AP53_95'
p4843
S'AP53_95'
p4844
tp4845
(lp4846
(I111009
I111293
g6
g14
tp4847
as(S'AP53'
p4848
S'AP53_861'
p4849
S'AP53_861'
p4850
tp4851
(lp4852
(I860914
I861894
g14
S'prs'
p4853
tp4854
as(S'AP53'
p4855
S'AP53_490'
p4856
S'AP53_490'
p4857
tp4858
(lp4859
(I491333
I491716
g6
g14
tp4860
as(S'AP53'
p4861
S'AP53_643'
p4862
S'AP53_643'
p4863
tp4864
(lp4865
(I641048
I641809
g14
g14
tp4866
as(S'AP53'
p4867
S'AP53_801'
p4868
S'AP53_801'
p4869
tp4870
(lp4871
(I800139
I801482
g14
g14
tp4872
as(S'AP53'
p4873
S'AP53_827'
p4874
S'AP53_827'
p4875
tp4876
(lp4877
(I826841
I828637
g6
S'uvrC'
p4878
tp4879
as(S'AP53'
p4880
S'AP53_1236'
p4881
S'AP53_1236'
p4882
tp4883
(lp4884
(I1210348
I1213149
g14
S'ileS'
p4885
tp4886
as(S'AP53'
p4887
S'AP53_1309'
p4888
S'AP53_1309'
p4889
tp4890
(lp4891
(I1291893
I1292327
g6
S'hypo14'
p4892
tp4893
as(S'AP53'
p4894
S'AP53_147'
p4895
S'AP53_147'
p4896
tp4897
(lp4898
(I165100
I166746
g6
g14
tp4899
as(S'AP53'
p4900
S'AP53_342'
p4901
S'AP53_342'
p4902
tp4903
(lp4904
(I360833
I361084
g6
g14
tp4905
as(S'AP53'
p4906
S'AP53_191'
p4907
S'AP53_191'
p4908
tp4909
(lp4910
(I206323
I207033
g6
g14
tp4911
as(S'AP53'
p4912
S'AP53_1395'
p4913
S'AP53_1395'
p4914
tp4915
(lp4916
(I1369410
I1369736
g14
S'gpsB'
p4917
tp4918
as(S'AP53'
p4919
S'AP53_1465'
p4920
S'AP53_1465'
p4921
tp4922
(lp4923
(I1439331
I1439687
g6
g14
tp4924
as(S'AP53'
p4925
S'AP53_1439'
p4926
S'AP53_1439'
p4927
tp4928
(lp4929
(I1416953
I1417570
g14
g14
tp4930
as(S'AP53'
p4931
S'AP53_437'
p4932
S'AP53_437'
p4933
tp4934
(lp4935
(I442006
I445545
g6
S'smc'
p4936
tp4937
as(S'AP53'
p4938
S'AP53_1479'
p4939
S'AP53_1479'
p4940
tp4941
(lp4942
(I1453242
I1454606
g14
S'accC'
p4943
tp4944
as(S'AP53'
p4945
S'AP53_1066'
p4946
S'AP53_1066'
p4947
tp4948
(lp4949
(I1051995
I1053242
g6
S'malE'
p4950
tp4951
as(S'AP53'
p4952
S'AP53_542'
p4953
S'AP53_542'
p4954
tp4955
(lp4956
(I548695
I550647
g6
S'gyrB'
p4957
tp4958
as(S'AP53'
p4959
S'AP53_1157'
p4960
S'AP53_1157'
p4961
tp4962
(lp4963
(I1142273
I1144516
g14
S'comEC'
p4964
tp4965
as(S'AP53'
p4966
S'AP53_1191'
p4967
S'AP53_1191'
p4968
tp4969
(lp4970
(I1177721
I1178092
g14
g14
tp4971
as(S'AP53'
p4972
S'AP53_640'
p4973
S'AP53_640'
p4974
tp4975
(lp4976
(I639870
I640019
g14
g14
tp4977
as(S'AP53'
p4978
S'AP53_245'
p4979
S'AP53_245'
p4980
tp4981
(lp4982
(I269677
I270810
g6
g14
tp4983
as(S'AP53'
p4984
S'AP53_838'
p4985
S'AP53_838'
p4986
tp4987
(lp4988
(I839262
I839621
g6
S'folQ'
p4989
tp4990
as(S'AP53'
p4991
S'AP53_187'
p4992
S'AP53_187'
p4993
tp4994
(lp4995
(I202771
I203508
g6
g14
tp4996
as(S'AP53'
p4997
S'AP53_1644'
p4998
S'AP53_1644'
p4999
tp5000
(lp5001
(I1626492
I1627220
g14
S'mipB'
p5002
tp5003
as(S'AP53'
p5004
S'AP53_188'
p5005
S'AP53_188'
p5006
tp5007
(lp5008
(I203618
I204064
g6
S'dut'
p5009
tp5010
as(S'AP53'
p5011
S'AP53_1480'
p5012
S'AP53_1480'
p5013
tp5014
(lp5015
(I1454638
I1455060
g14
S'fabZ'
p5016
tp5017
as(S'AP53'
p5018
S'AP53_426'
p5019
S'AP53_426'
p5020
tp5021
(lp5022
(I431065
I432057
g6
S'tagH'
p5023
tp5024
as(S'AP53'
p5025
S'AP53_696'
p5026
S'AP53_696'
p5027
tp5028
(lp5029
(I690747
I690986
g6
g14
tp5030
as(S'AP53'
p5031
S'AP53_211'
p5032
S'AP53_211'
p5033
tp5034
(lp5035
(I225069
I225941
g6
S'ksgA'
p5036
tp5037
as(S'AP53'
p5038
S'AP53_170'
p5039
S'AP53_170'
p5040
tp5041
(lp5042
(I186399
I186938
g6
S'bioY'
p5043
tp5044
as(S'AP53'
p5045
S'AP53_1416'
p5046
S'AP53_1416'
p5047
tp5048
(lp5049
(I1390966
I1392594
g14
S'proB'
p5050
tp5051
as(S'AP53'
p5052
S'AP53_814'
p5053
S'AP53_814'
p5054
tp5055
(lp5056
(I812242
I813375
g6
g14
tp5057
as(S'AP53'
p5058
S'AP53_243'
p5059
S'AP53_243'
p5060
tp5061
(lp5062
(I262427
I262606
g14
g14
tp5063
as(S'AP53'
p5064
S'AP53_1063'
p5065
S'AP53_1063'
p5066
tp5067
(lp5068
(I1046825
I1049089
g14
S'glgP'
p5069
tp5070
as(S'AP53'
p5071
S'AP53_1521'
p5072
S'AP53_1521'
p5073
tp5074
(lp5075
(I1495810
I1496637
g14
S'shp'
p5076
tp5077
as(S'AP53'
p5078
S'AP53_552'
p5079
S'AP53_552'
p5080
tp5081
(lp5082
(I561585
I562712
g6
S'sagH'
p5083
tp5084
as(S'AP53'
p5085
S'AP53_896'
p5086
S'AP53_896'
p5087
tp5088
(lp5089
(I895313
I896161
g6
S'rbgA'
p5090
tp5091
as(S'AP53'
p5092
S'AP53_558'
p5093
S'AP53_558'
p5094
tp5095
(lp5096
(I570075
I571097
g6
S'dagK'
p5097
tp5098
as(S'AP53'
p5099
S'AP53_365'
p5100
S'AP53_365'
p5101
tp5102
(lp5103
(I380865
I381374
g6
S'msrA'
p5104
tp5105
as(S'AP53'
p5106
S'AP53_1561'
p5107
S'AP53_1561'
p5108
tp5109
(lp5110
(I1543095
I1544045
g14
g14
tp5111
as(S'AP53'
p5112
S'AP53_1360'
p5113
S'AP53_1360'
p5114
tp5115
(lp5116
(I1327708
I1327920
g14
g14
tp5117
as(S'AP53'
p5118
S'AP53_966'
p5119
S'AP53_966'
p5120
tp5121
(lp5122
(I968934
I969152
g14
g14
tp5123
as(S'AP53'
p5124
S'AP53_1176'
p5125
S'AP53_1176'
p5126
tp5127
(lp5128
(I1162185
I1162358
g14
g14
tp5129
as(S'AP53'
p5130
S'AP53_126'
p5131
S'AP53_126'
p5132
tp5133
(lp5134
(I140121
I141896
g6
S'ntpA'
p5135
tp5136
as(S'AP53'
p5137
S'AP53_839'
p5138
S'AP53_839'
p5139
tp5140
(lp5141
(I839618
I840118
g6
S'folK'
p5142
tp5143
as(S'AP53'
p5144
S'AP53_666'
p5145
S'AP53_666'
p5146
tp5147
(lp5148
(I658765
I659295
g6
S'infC'
p5149
tp5150
as(S'AP53'
p5151
S'AP53_1164'
p5152
S'AP53_1164'
p5153
tp5154
(lp5155
(I1151338
I1152882
g14
S'prfC'
p5156
tp5157
as(S'AP53'
p5158
S'AP53_465'
p5159
S'AP53_465'
p5160
tp5161
(lp5162
(I469407
I471269
g6
g14
tp5163
as(S'AP53'
p5164
S'AP53_1281'
p5165
S'AP53_1281'
p5166
tp5167
(lp5168
(I1258358
I1258921
g14
g14
tp5169
as(S'AP53'
p5170
S'AP53_1096'
p5171
S'AP53_1096'
p5172
tp5173
(lp5174
(I1080088
I1080960
g14
S'nadC'
p5175
tp5176
as(S'AP53'
p5177
S'AP53_1366'
p5178
S'AP53_1366'
p5179
tp5180
(lp5181
(I1332617
I1333150
g6
g14
tp5182
as(S'AP53'
p5183
S'AP53_568'
p5184
S'AP53_568'
p5185
tp5186
(lp5187
(I578486
I579757
g6
S'murA1'
p5188
tp5189
as(S'AP53'
p5190
S'AP53_934'
p5191
S'AP53_934'
p5192
tp5193
(lp5194
(I934790
I936367
g14
S'cls'
p5195
tp5196
as(S'AP53'
p5197
S'AP53_764'
p5198
S'AP53_764'
p5199
tp5200
(lp5201
(I759529
I759915
g6
g14
tp5202
as(S'AP53'
p5203
S'AP53_137'
p5204
S'AP53_137'
p5205
tp5206
(lp5207
(I154196
I154417
g14
S'hypo3'
p5208
tp5209
as(S'AP53'
p5210
S'AP53_1806'
p5211
S'AP53_1806'
p5212
tp5213
(lp5214
(I1797803
I1798240
g14
S'argR2'
p5215
tp5216
as(S'AP53'
p5217
S'AP53_1385'
p5218
S'AP53_1385'
p5219
tp5220
(lp5221
(I1359795
I1360691
g14
g14
tp5222
as(S'AP53'
p5223
S'AP53_1320'
p5224
S'AP53_1320'
p5225
tp5226
(lp5227
(I1302515
I1305775
g14
g14
tp5228
as(S'AP53'
p5229
S'AP53_28'
p5230
S'AP53_28'
p5231
tp5232
(lp5233
(I47148
I48413
g6
S'purD'
p5234
tp5235
as(S'AP53'
p5236
S'AP53_840'
p5237
S'AP53_840'
p5238
tp5239
(lp5240
(I840268
I841155
g6
S'murB'
p5241
tp5242
as(S'AP53'
p5243
S'AP53_183'
p5244
S'AP53_183'
p5245
tp5246
(lp5247
(I197376
I198392
g14
S'gpsA'
p5248
tp5249
as(S'AP53'
p5250
S'AP53_372'
p5251
S'AP53_372'
p5252
tp5253
(lp5254
(I387480
I387887
g6
S'dgk'
p5255
tp5256
as(S'AP53'
p5257
S'AP53_898'
p5258
S'AP53_898'
p5259
tp5260
(lp5261
(I897007
I897843
g6
S'smf'
p5262
tp5263
as(S'AP53'
p5264
S'AP53_1555'
p5265
S'AP53_1555'
p5266
tp5267
(lp5268
(I1535514
I1536107
g6
S'spi'
p5269
tp5270
as(S'AP53'
p5271
S'AP53_1085'
p5272
S'AP53_1085'
p5273
tp5274
(lp5275
(I1070648
I1070959
g14
S'celA'
p5276
tp5277
as(S'AP53'
p5278
S'AP53_1166'
p5279
S'AP53_1166'
p5280
tp5281
(lp5282
(I1153929
I1155296
g14
S'murF'
p5283
tp5284
as(S'AP53'
p5285
S'AP53_36'
p5286
S'AP53_36'
p5287
tp5288
(lp5289
(I55663
I56100
g6
g14
tp5290
as(S'AP53'
p5291
S'AP53_60'
p5292
S'AP53_60'
p5293
tp5294
(lp5295
(I73042
I73536
g6
S'rpsE'
p5296
tp5297
as(S'AP53'
p5298
S'AP53_252'
p5299
S'AP53_252'
p5300
tp5301
(lp5302
(I274667
I275410
g6
g14
tp5303
as(S'AP53'
p5304
S'AP53_92'
p5305
S'AP53_92'
p5306
tp5307
(lp5308
(I108274
I108576
g6
g14
tp5309
as(S'AP53'
p5310
S'AP53_361'
p5311
S'AP53_361'
p5312
tp5313
(lp5314
(I377500
I378189
g6
S'rplA'
p5315
tp5316
as(S'AP53'
p5317
S'AP53_609'
p5318
S'AP53_609'
p5319
tp5320
(lp5321
(I619800
I620570
g14
g14
tp5322
as(S'AP53'
p5323
S'AP53_639'
p5324
S'AP53_639'
p5325
tp5326
(lp5327
(I639410
I639853
g14
g14
tp5328
as(S'AP53'
p5329
S'AP53_1197'
p5330
S'AP53_1197'
p5331
tp5332
(lp5333
(I1179951
I1180268
g14
g14
tp5334
as(S'AP53'
p5335
S'AP53_844'
p5336
S'AP53_844'
p5337
tp5338
(lp5339
(I843899
I844972
g6
S'potD'
p5340
tp5341
as(S'AP53'
p5342
S'AP53_1256'
p5343
S'AP53_1256'
p5344
tp5345
(lp5346
(I1231023
I1231142
g14
g14
tp5347
as(S'AP53'
p5348
S'AP53_855'
p5349
S'AP53_855'
p5350
tp5351
(lp5352
(I855994
I857121
g6
g14
tp5353
as(S'AP53'
p5354
S'AP53_133'
p5355
S'AP53_133'
p5356
tp5357
(lp5358
(I149529
I150068
g6
S'nusG'
p5359
tp5360
as(S'AP53'
p5361
S'AP53_1257'
p5362
S'AP53_1257'
p5363
tp5364
(lp5365
(I1231176
I1232153
g14
g14
tp5366
as(S'AP53'
p5367
S'AP53_628'
p5368
S'AP53_628'
p5369
tp5370
(lp5371
(I634634
I635209
g14
g14
tp5372
as(S'AP53'
p5373
S'AP53_1685'
p5374
S'AP53_1685'
p5375
tp5376
(lp5377
(I1678006
I1678632
g6
S'dppE'
p5378
tp5379
as(S'AP53'
p5380
S'AP53_1076'
p5381
S'AP53_1076'
p5382
tp5383
(lp5384
(I1060955
I1062493
g14
S'dltA'
p5385
tp5386
as(S'AP53'
p5387
S'AP53_1643'
p5388
S'AP53_1643'
p5389
tp5390
(lp5391
(I1624080
I1626212
g14
S'pnp'
p5392
tp5393
as(S'AP53'
p5394
S'AP53_1177'
p5395
S'AP53_1177'
p5396
tp5397
(lp5398
(I1162430
I1164292
g14
S'zntA'
p5399
tp5400
as(S'AP53'
p5401
S'AP53_143'
p5402
S'AP53_143'
p5403
tp5404
(lp5405
(I161963
I162448
g6
S'ulaC'
p5406
tp5407
as(S'AP53'
p5408
S'AP53_376'
p5409
S'AP53_376'
p5410
tp5411
(lp5412
(I390560
I391006
g14
g14
tp5413
as(S'AP53'
p5414
S'AP53_190'
p5415
S'AP53_190'
p5416
tp5417
(lp5418
(I205695
I206192
g6
g14
tp5419
as(S'AP53'
p5420
S'AP53_1764'
p5421
S'AP53_1764'
p5422
tp5423
(lp5424
(I1763570
I1764301
g6
S'yaaA'
p5425
tp5426
as(S'AP53'
p5427
S'AP53_199'
p5428
S'AP53_199'
p5429
tp5430
(lp5431
(I215128
I215250
g6
g14
tp5432
as(S'AP53'
p5433
S'AP53_800'
p5434
S'AP53_800'
p5435
tp5436
(lp5437
(I799348
I800139
g14
S'cobQ'
p5438
tp5439
as(S'AP53'
p5440
S'AP53_792'
p5441
S'AP53_792'
p5442
tp5443
(lp5444
(I786653
I786979
g6
g14
tp5445
as(S'AP53'
p5446
S'AP53_416'
p5447
S'AP53_416'
p5448
tp5449
(lp5450
(I420767
I421450
g14
g14
tp5451
as(S'AP53'
p5452
S'AP53_1546'
p5453
S'AP53_1546'
p5454
tp5455
(lp5456
(I1527871
I1528029
g14
g14
tp5457
as(S'AP53'
p5458
S'AP53_1120'
p5459
S'AP53_1120'
p5460
tp5461
(lp5462
(I1106113
I1106316
g14
g14
tp5463
as(S'AP53'
p5464
S'AP53_195'
p5465
S'AP53_195'
p5466
tp5467
(lp5468
(I211685
I212425
g6
S'fasA'
p5469
tp5470
as(S'AP53'
p5471
S'AP53_1435'
p5472
S'AP53_1435'
p5473
tp5474
(lp5475
(I1413548
I1414270
g6
g14
tp5476
as(S'AP53'
p5477
S'AP53_395'
p5478
S'AP53_395'
p5479
tp5480
(lp5481
(I404162
I404389
g6
S'blpM'
p5482
tp5483
as(S'AP53'
p5484
S'AP53_1058'
p5485
S'AP53_1058'
p5486
tp5487
(lp5488
(I1042986
I1043153
g6
g14
tp5489
as(S'AP53'
p5490
S'AP53_198'
p5491
S'AP53_198'
p5492
tp5493
(lp5494
(I214129
I215043
g6
g14
tp5495
as(S'AP53'
p5496
S'AP53_808'
p5497
S'AP53_808'
p5498
tp5499
(lp5500
(I807522
I808286
g6
g14
tp5501
as(S'AP53'
p5502
S'AP53_842'
p5503
S'AP53_842'
p5504
tp5505
(lp5506
(I842339
I843133
g6
S'potB'
p5507
tp5508
as(S'AP53'
p5509
S'AP53_1501'
p5510
S'AP53_1501'
p5511
tp5512
(lp5513
(I1473587
I1473889
g14
S'gatC'
p5514
tp5515
as(S'AP53'
p5516
S'AP53_993'
p5517
S'AP53_993'
p5518
tp5519
(lp5520
(I995005
I996507
g14
S'pyk'
p5521
tp5522
as(S'AP53'
p5523
S'AP53_323'
p5524
S'AP53_323'
p5525
tp5526
(lp5527
(I339126
I339953
g14
g14
tp5528
as(S'AP53'
p5529
S'AP53_1781'
p5530
S'AP53_1781'
p5531
tp5532
(lp5533
(I1777936
I1779918
g14
S'mutL'
p5534
tp5535
as(S'AP53'
p5536
S'AP53_1823'
p5537
S'AP53_1823'
p5538
tp5539
(lp5540
(I1813073
I1813714
g14
g14
tp5541
as(S'AP53'
p5542
S'AP53_744'
p5543
S'AP53_744'
p5544
tp5545
(lp5546
(I739135
I739923
g6
S'cpsX'
p5547
tp5548
as(S'AP53'
p5549
S'AP53_520'
p5550
S'AP53_520'
p5551
tp5552
(lp5553
(I523787
I524479
g6
S'ftsE'
p5554
tp5555
as(S'AP53'
p5556
S'AP53_541'
p5557
S'AP53_541'
p5558
tp5559
(lp5560
(I548125
I548694
g6
g14
tp5561
as(S'AP53'
p5562
S'AP53_917'
p5563
S'AP53_917'
p5564
tp5565
(lp5566
(I915439
I916833
g6
S'oadA1'
p5567
tp5568
as(S'AP53'
p5569
S'AP53_451'
p5570
S'AP53_451'
p5571
tp5572
(lp5573
(I458641
I458865
g14
g14
tp5574
as(S'AP53'
p5575
S'AP53_1098'
p5576
S'AP53_1098'
p5577
tp5578
(lp5579
(I1082572
I1082865
g6
g14
tp5580
as(S'AP53'
p5581
S'AP53_1749'
p5582
S'AP53_1749'
p5583
tp5584
(lp5585
(I1744728
I1745324
g6
g14
tp5586
as(S'AP53'
p5587
S'AP53_657'
p5588
S'AP53_657'
p5589
tp5590
(lp5591
(I651559
I652254
g6
g14
tp5592
as(S'AP53'
p5593
S'AP53_1065'
p5594
S'AP53_1065'
p5595
tp5596
(lp5597
(I1050732
I1051751
g14
S'malR'
p5598
tp5599
as(S'AP53'
p5600
S'AP53_1787'
p5601
S'AP53_1787'
p5602
tp5603
(lp5604
(I1784365
I1784988
g6
g14
tp5605
as(S'AP53'
p5606
S'AP53_467'
p5607
S'AP53_467'
p5608
tp5609
(lp5610
(I472811
I473626
g14
g14
tp5611
as(S'AP53'
p5612
S'AP53_1335'
p5613
S'AP53_1335'
p5614
tp5615
(lp5616
(I1315282
I1315758
g14
g14
tp5617
as(S'AP53'
p5618
S'AP53_703'
p5619
S'AP53_703'
p5620
tp5621
(lp5622
(I698548
I699540
g6
S'trxB'
p5623
tp5624
as(S'AP53'
p5625
S'AP53_660'
p5626
S'AP53_660'
p5627
tp5628
(lp5629
(I653857
I655353
g6
g14
tp5630
as(S'AP53'
p5631
S'AP53_27'
p5632
S'AP53_27'
p5633
tp5634
(lp5635
(I45771
I46895
g14
g14
tp5636
as(S'AP53'
p5637
S'AP53_1240'
p5638
S'AP53_1240'
p5639
tp5640
(lp5641
(I1215240
I1215896
g14
g14
tp5642
as(S'AP53'
p5643
S'AP53_408'
p5644
S'AP53_408'
p5645
tp5646
(lp5647
(I412163
I413665
g6
S'ATPase'
p5648
tp5649
as(S'AP53'
p5650
S'AP53_1508'
p5651
S'AP53_1508'
p5652
tp5653
(lp5654
(I1479929
I1481317
g14
g14
tp5655
as(S'AP53'
p5656
S'AP53_1128'
p5657
S'AP53_1128'
p5658
tp5659
(lp5660
(I1113217
I1114644
g14
S'gapN'
p5661
tp5662
as(S'AP53'
p5663
S'AP53_478'
p5664
S'AP53_478'
p5665
tp5666
(lp5667
(I481522
I482448
g6
g14
tp5668
as(S'AP53'
p5669
S'AP53_797'
p5670
S'AP53_797'
p5671
tp5672
(lp5673
(I793163
I794926
g6
S'acoL'
p5674
tp5675
as(S'AP53'
p5676
S'AP53_1208'
p5677
S'AP53_1208'
p5678
tp5679
(lp5680
(I1185912
I1186145
g14
g14
tp5681
as(S'AP53'
p5682
S'AP53_433'
p5683
S'AP53_433'
p5684
tp5685
(lp5686
(I438013
I438723
g6
S'vicR'
p5687
tp5688
as(S'AP53'
p5689
S'AP53_665'
p5690
S'AP53_665'
p5691
tp5692
(lp5693
(I657923
I658603
g6
S'cmk'
p5694
tp5695
as(S'AP53'
p5696
S'AP53_475'
p5697
S'AP53_475'
p5698
tp5699
(lp5700
(I480052
I480459
g6
g14
tp5701
as(S'AP53'
p5702
S'AP53_118'
p5703
S'AP53_118'
p5704
tp5705
(lp5706
(I133673
I134692
g6
S'sloR'
p5707
tp5708
as(S'AP53'
p5709
S'AP53_1036'
p5710
S'AP53_1036'
p5711
tp5712
(lp5713
(I1032585
I1032869
g14
g14
tp5714
as(S'AP53'
p5715
S'AP53_391'
p5716
S'AP53_391'
p5717
tp5718
(lp5719
(I398662
I399996
g6
g14
tp5720
as(S'AP53'
p5721
S'AP53_776'
p5722
S'AP53_776'
p5723
tp5724
(lp5725
(I770221
I770907
g6
g14
tp5726
as(S'AP53'
p5727
S'AP53_1333'
p5728
S'AP53_1333'
p5729
tp5730
(lp5731
(I1312472
I1313974
g14
g14
tp5732
as(S'AP53'
p5733
S'AP53_418'
p5734
S'AP53_418'
p5735
tp5736
(lp5737
(I422732
I423109
g14
S'gloA'
p5738
tp5739
as(S'AP53'
p5740
S'AP53_1623'
p5741
S'AP53_1623'
p5742
tp5743
(lp5744
(I1610911
I1611339
g14
S'lacA2'
p5745
tp5746
as(S'AP53'
p5747
S'AP53_735'
p5748
S'AP53_735'
p5749
tp5750
(lp5751
(I729279
I730508
g6
S'clpX'
p5752
tp5753
as(S'AP53'
p5754
S'AP53_320'
p5755
S'AP53_320'
p5756
tp5757
(lp5758
(I337769
I338398
g14
g14
tp5759
as(S'AP53'
p5760
S'AP53_1692'
p5761
S'AP53_1692'
p5762
tp5763
(lp5764
(I1687800
I1688870
g14
S'emm49'
p5765
tp5766
as(S'AP53'
p5767
S'AP53_1848'
p5768
S'AP53_1848'
p5769
tp5770
(lp5771
(I1840519
I1841778
g6
S'hasA'
p5772
tp5773
as(S'AP53'
p5774
S'AP53_112'
p5775
S'AP53_112'
p5776
tp5777
(lp5778
(I128757
I129668
g14
g14
tp5779
as(S'AP53'
p5780
S'AP53_920'
p5781
S'AP53_920'
p5782
tp5783
(lp5784
(I919265
I920335
g14
S'xerS'
p5785
tp5786
as(S'AP53'
p5787
S'AP53_943'
p5788
S'AP53_943'
p5789
tp5790
(lp5791
(I944592
I945284
g6
S'dpfB'
p5792
tp5793
as(S'AP53'
p5794
S'AP53_1778'
p5795
S'AP53_1778'
p5796
tp5797
(lp5798
(I1775537
I1776097
g14
S'tag'
p5799
tp5800
as(S'AP53'
p5801
S'AP53_524'
p5802
S'AP53_524'
p5803
tp5804
(lp5805
(I527538
I528671
g6
g14
tp5806
as(S'AP53'
p5807
S'AP53_1607'
p5808
S'AP53_1607'
p5809
tp5810
(lp5811
(I1591223
I1592296
g14
g14
tp5812
as(S'AP53'
p5813
S'AP53_980'
p5814
S'AP53_980'
p5815
tp5816
(lp5817
(I980974
I981162
g14
S'hypo-high3'
p5818
tp5819
as(S'AP53'
p5820
S'AP53_152'
p5821
S'AP53_152'
p5822
tp5823
(lp5824
(I174477
I174932
g6
g14
tp5825
as(S'AP53'
p5826
S'AP53_1842'
p5827
S'AP53_1842'
p5828
tp5829
(lp5830
(I1834256
I1835098
g14
S'cbiO'
p5831
tp5832
as(S'AP53'
p5833
S'AP53_1228'
p5834
S'AP53_1228'
p5835
tp5836
(lp5837
(I1201360
I1203054
g14
S'pgcA'
p5838
tp5839
as(S'AP53'
p5840
S'AP53_235'
p5841
S'AP53_235'
p5842
tp5843
(lp5844
(I251339
I252757
g6
S'sufB'
p5845
tp5846
as(S'AP53'
p5847
S'AP53_981'
p5848
S'AP53_981'
p5849
tp5850
(lp5851
(I981173
I981631
g14
S'hypo-high2'
p5852
tp5853
as(S'AP53'
p5854
S'AP53_746'
p5855
S'AP53_746'
p5856
tp5857
(lp5858
(I740002
I740907
g14
S'cpsY'
p5859
tp5860
as(S'AP53'
p5861
S'AP53_168'
p5862
S'AP53_168'
p5863
tp5864
(lp5865
(I184725
I185867
g6
S'tgt'
p5866
tp5867
as(S'AP53'
p5868
S'AP53_587'
p5869
S'AP53_587'
p5870
tp5871
(lp5872
(I600564
I600902
g6
g14
tp5873
as(S'AP53'
p5874
S'AP53_757'
p5875
S'AP53_757'
p5876
tp5877
(lp5878
(I751689
I754148
g6
S'parC'
p5879
tp5880
as(S'AP53'
p5881
S'AP53_499'
p5882
S'AP53_499'
p5883
tp5884
(lp5885
(I501082
I502317
g14
S'murN'
p5886
tp5887
as(S'AP53'
p5888
S'AP53_791'
p5889
S'AP53_791'
p5890
tp5891
(lp5892
(I785838
I786623
g6
S'estA'
p5893
tp5894
as(S'AP53'
p5895
S'AP53_1211'
p5896
S'AP53_1211'
p5897
tp5898
(lp5899
(I1187203
I1187514
g14
S'xis'
p5900
tp5901
as(S'AP53'
p5902
S'AP53_1649'
p5903
S'AP53_1649'
p5904
tp5905
(lp5906
(I1631773
I1631973
g14
S'hypo22'
p5907
tp5908
as(S'AP53'
p5909
S'AP53_1220'
p5910
S'AP53_1220'
p5911
tp5912
(lp5913
(I1193679
I1194608
g14
g14
tp5914
as(S'AP53'
p5915
S'AP53_1748'
p5916
S'AP53_1748'
p5917
tp5918
(lp5919
(I1743033
I1744706
g6
S'fhs2'
p5920
tp5921
as(S'AP53'
p5922
S'AP53_508'
p5923
S'AP53_508'
p5924
tp5925
(lp5926
(I512610
I513431
g14
S'agaD'
p5927
tp5928
as(S'AP53'
p5929
S'AP53_1496'
p5930
S'AP53_1496'
p5931
tp5932
(lp5933
(I1468913
I1469620
g14
g14
tp5934
as(S'AP53'
p5935
S'AP53_242'
p5936
S'AP53_242'
p5937
tp5938
(lp5939
(I261356
I262279
g6
S'oppF'
p5940
tp5941
as(S'AP53'
p5942
S'AP53_1669'
p5943
S'AP53_1669'
p5944
tp5945
(lp5946
(I1659119
I1659601
g6
g14
tp5947
as(S'AP53'
p5948
S'AP53_1734'
p5949
S'AP53_1734'
p5950
tp5951
(lp5952
(I1728692
I1728958
g14
g14
tp5953
as(S'AP53'
p5954
S'AP53_1502'
p5955
S'AP53_1502'
p5956
tp5957
(lp5958
(I1474135
I1475268
g14
g14
tp5959
as(S'AP53'
p5960
S'AP53_902'
p5961
S'AP53_902'
p5962
tp5963
(lp5964
(I903063
I904445
g6
S'oadA2'
p5965
tp5966
as(S'AP53'
p5967
S'AP53_1196'
p5968
S'AP53_1196'
p5969
tp5970
(lp5971
(I1179799
I1179954
g14
g14
tp5972
as(S'AP53'
p5973
S'AP53_260'
p5974
S'AP53_260'
p5975
tp5976
(lp5977
(I283847
I285061
g6
g14
tp5978
as(S'AP53'
p5979
S'AP53_42'
p5980
S'AP53_42'
p5981
tp5982
(lp5983
(I64392
I64700
g6
S'rpsJ'
p5984
tp5985
as(S'AP53'
p5986
S'AP53_280'
p5987
S'AP53_280'
p5988
tp5989
(lp5990
(I306912
I307190
g14
S'acyP'
p5991
tp5992
as(S'AP53'
p5993
S'AP53_91'
p5994
S'AP53_91'
p5995
tp5996
(lp5997
(I106885
I108081
g6
S'ackA'
p5998
tp5999
as(S'AP53'
p6000
S'AP53_1533'
p6001
S'AP53_1533'
p6002
tp6003
(lp6004
(I1515826
I1517265
g6
S'scrB'
p6005
tp6006
as(S'AP53'
p6007
S'AP53_403'
p6008
S'AP53_403'
p6009
tp6010
(lp6011
(I408569
I408682
g14
g14
tp6012
as(S'AP53'
p6013
S'AP53_329'
p6014
S'AP53_329'
p6015
tp6016
(lp6017
(I347332
I348063
g6
g14
tp6018
as(S'AP53'
p6019
S'AP53_613'
p6020
S'AP53_613'
p6021
tp6022
(lp6023
(I625304
I625888
g14
g14
tp6024
as(S'AP53'
p6025
S'AP53_306'
p6026
S'AP53_306'
p6027
tp6028
(lp6029
(I327097
I327879
g14
S'fhuA'
p6030
tp6031
as(S'AP53'
p6032
S'AP53_1386'
p6033
S'AP53_1386'
p6034
tp6035
(lp6036
(I1360890
I1362077
g6
S'atoB'
p6037
tp6038
as(S'AP53'
p6039
S'AP53_1638'
p6040
S'AP53_1638'
p6041
tp6042
(lp6043
(I1620259
I1620672
g14
g14
tp6044
as(S'AP53'
p6045
S'AP53_994'
p6046
S'AP53_994'
p6047
tp6048
(lp6049
(I996570
I997583
g14
S'pfk'
p6050
tp6051
as(S'AP53'
p6052
S'AP53_348'
p6053
S'AP53_348'
p6054
tp6055
(lp6056
(I365833
I367215
g6
S'glmU'
p6057
tp6058
as(S'AP53'
p6059
S'AP53_1796'
p6060
S'AP53_1796'
p6061
tp6062
(lp6063
(I1789025
I1790713
g6
g14
tp6064
as(S'AP53'
p6065
S'AP53_122'
p6066
S'AP53_122'
p6067
tp6068
(lp6069
(I138005
I138589
g6
S'ntpE'
p6070
tp6071
as(S'AP53'
p6072
S'AP53_1305'
p6073
S'AP53_1305'
p6074
tp6075
(lp6076
(I1286835
I1288190
g14
S'rocA'
p6077
tp6078
as(S'AP53'
p6079
S'AP53_1104'
p6080
S'AP53_1104'
p6081
tp6082
(lp6083
(I1086562
I1088046
g6
g14
tp6084
as(S'AP53'
p6085
S'AP53_1003'
p6086
S'AP53_1003'
p6087
tp6088
(lp6089
(I1005744
I1006523
g14
S'speK'
p6090
tp6091
as(S'AP53'
p6092
S'AP53_985'
p6093
S'AP53_985'
p6094
tp6095
(lp6096
(I986722
I987957
g6
S'czc'
p6097
tp6098
as(S'AP53'
p6099
S'AP53_1709'
p6100
S'AP53_1709'
p6101
tp6102
(lp6103
(I1705186
I1706382
g14
S'speB'
p6104
tp6105
as(S'AP53'
p6106
S'AP53_1290'
p6107
S'AP53_1290'
p6108
tp6109
(lp6110
(I1264685
I1265563
g14
S'aroE'
p6111
tp6112
as(S'AP53'
p6113
S'AP53_1317'
p6114
S'AP53_1317'
p6115
tp6116
(lp6117
(I1298654
I1299625
g14
g14
tp6118
as(S'AP53'
p6119
S'AP53_1688'
p6120
S'AP53_1688'
p6121
tp6122
(lp6123
(I1681567
I1682487
g14
S'lmb'
p6124
tp6125
as(S'AP53'
p6126
S'AP53_1380'
p6127
S'AP53_1380'
p6128
tp6129
(lp6130
(I1353534
I1354469
g14
S'fmt'
p6131
tp6132
as(S'AP53'
p6133
S'AP53_1549'
p6134
S'AP53_1549'
p6135
tp6136
(lp6137
(I1530201
I1530515
g14
S'trxA'
p6138
tp6139
as(S'AP53'
p6140
S'AP53_67'
p6141
S'AP53_67'
p6142
tp6143
(lp6144
(I76993
I77358
g6
S'rpsM'
p6145
tp6146
as(S'AP53'
p6147
S'AP53_567'
p6148
S'AP53_567'
p6149
tp6150
(lp6151
(I578197
I578421
g6
g14
tp6152
as(S'AP53'
p6153
S'AP53_1440'
p6154
S'AP53_1440'
p6155
tp6156
(lp6157
(I1417589
I1417708
g14
g14
tp6158
as(S'AP53'
p6159
S'AP53_1382'
p6160
S'AP53_1382'
p6161
tp6162
(lp6163
(I1356980
I1357294
g14
S'rpoZ'
p6164
tp6165
as(S'AP53'
p6166
S'AP53_858'
p6167
S'AP53_858'
p6168
tp6169
(lp6170
(I858557
I859201
g14
S'rex'
p6171
tp6172
as(S'AP53'
p6173
S'AP53_938'
p6174
S'AP53_938'
p6175
tp6176
(lp6177
(I940190
I940972
g14
g14
tp6178
as(S'AP53'
p6179
S'AP53_1318'
p6180
S'AP53_1318'
p6181
tp6182
(lp6183
(I1299661
I1301805
g14
g14
tp6184
as(S'AP53'
p6185
S'AP53_1710'
p6186
S'AP53_1710'
p6187
tp6188
(lp6189
(I1706654
I1706824
g14
S'hypo8'
p6190
tp6191
as(S'AP53'
p6192
S'AP53_1260'
p6193
S'AP53_1260'
p6194
tp6195
(lp6196
(I1234063
I1234500
g14
S'rsmD'
p6197
tp6198
as(S'AP53'
p6199
S'AP53_647'
p6200
S'AP53_647'
p6201
tp6202
(lp6203
(I643722
I643979
g14
g14
tp6204
as(S'AP53'
p6205
S'AP53_1603'
p6206
S'AP53_1603'
p6207
tp6208
(lp6209
(I1582886
I1583332
g14
g14
tp6210
as(S'AP53'
p6211
S'AP53_1179'
p6212
S'AP53_1179'
p6213
tp6214
(lp6215
(I1165245
I1166003
g6
S'spd1'
p6216
tp6217
as(S'AP53'
p6218
S'AP53_1409'
p6219
S'AP53_1409'
p6220
tp6221
(lp6222
(I1383759
I1384769
g14
S'mraY'
p6223
tp6224
as(S'AP53'
p6225
S'AP53_904'
p6226
S'AP53_904'
p6227
tp6228
(lp6229
(I904802
I905152
g6
S'gcdC'
p6230
tp6231
as(S'AP53'
p6232
S'AP53_1150'
p6233
S'AP53_1150'
p6234
tp6235
(lp6236
(I1136876
I1137904
g6
S'queA'
p6237
tp6238
as(S'AP53'
p6239
S'AP53_1826'
p6240
S'AP53_1826'
p6241
tp6242
(lp6243
(I1814818
I1815897
g6
g14
tp6244
as(S'AP53'
p6245
S'AP53_538'
p6246
S'AP53_538'
p6247
tp6248
(lp6249
(I545108
I545392
g6
g14
tp6250
as(S'AP53'
p6251
S'AP53_158'
p6252
S'AP53_158'
p6253
tp6254
(lp6255
(I178313
I178492
g14
g14
tp6256
as(S'AP53'
p6257
S'AP53_1396'
p6258
S'AP53_1396'
p6259
tp6260
(lp6261
(I1369855
I1370370
g14
g14
tp6262
as(S'AP53'
p6263
S'AP53_207'
p6264
S'AP53_207'
p6265
tp6266
(lp6267
(I221438
I222376
g6
g14
tp6268
as(S'AP53'
p6269
S'AP53_1520'
p6270
S'AP53_1520'
p6271
tp6272
(lp6273
(I1494942
I1495826
g14
S'fhuD2-htsA'
p6274
tp6275
as(S'AP53'
p6276
S'AP53_1020'
p6277
S'AP53_1020'
p6278
tp6279
(lp6280
(I1022959
I1023306
g14
g14
tp6281
as(S'AP53'
p6282
S'AP53_947'
p6283
S'AP53_947'
p6284
tp6285
(lp6286
(I948558
I949514
g14
g14
tp6287
as(S'AP53'
p6288
S'AP53_1585'
p6289
S'AP53_1585'
p6290
tp6291
(lp6292
(I1565837
I1567183
g14
S'glnA'
p6293
tp6294
as(S'AP53'
p6295
S'AP53_1517'
p6296
S'AP53_1517'
p6297
tp6298
(lp6299
(I1491325
I1493043
g14
S'cycD'
p6300
tp6301
as(S'AP53'
p6302
S'AP53_1632'
p6303
S'AP53_1632'
p6304
tp6305
(lp6306
(I1616149
I1616355
g14
g14
tp6307
as(S'AP53'
p6308
S'AP53_702'
p6309
S'AP53_702'
p6310
tp6311
(lp6312
(I697817
I698548
g6
S'trmD'
p6313
tp6314
as(S'AP53'
p6315
S'AP53_1489'
p6316
S'AP53_1489'
p6317
tp6318
(lp6319
(I1461436
I1462227
g14
S'phaB'
p6320
tp6321
as(S'AP53'
p6322
S'AP53_480'
p6323
S'AP53_480'
p6324
tp6325
(lp6326
(I483849
I483977
g14
g14
tp6327
as(S'AP53'
p6328
S'AP53_1447'
p6329
S'AP53_1447'
p6330
tp6331
(lp6332
(I1422241
I1422714
g14
S'gatA'
p6333
tp6334
as(S'AP53'
p6335
S'AP53_1015'
p6336
S'AP53_1015'
p6337
tp6338
(lp6339
(I1020962
I1021129
g14
g14
tp6340
as(S'AP53'
p6341
S'AP53_419'
p6342
S'AP53_419'
p6343
tp6344
(lp6345
(I423120
I423785
g14
S'yfkO'
p6346
tp6347
as(S'AP53'
p6348
S'AP53_128'
p6349
S'AP53_128'
p6350
tp6351
(lp6352
(I143357
I143983
g6
S'ntpD'
p6353
tp6354
as(S'AP53'
p6355
S'AP53_1254'
p6356
S'AP53_1254'
p6357
tp6358
(lp6359
(I1229025
I1230104
g14
g14
tp6360
as(S'AP53'
p6361
S'AP53_464'
p6362
S'AP53_464'
p6363
tp6364
(lp6365
(I468563
I469405
g6
S'bglG'
p6366
tp6367
as(S'AP53'
p6368
S'AP53_957'
p6369
S'AP53_957'
p6370
tp6371
(lp6372
(I958962
I961499
g14
S'pepN'
p6373
tp6374
as(S'AP53'
p6375
S'AP53_655'
p6376
S'AP53_655'
p6377
tp6378
(lp6379
(I648271
I649467
g6
g14
tp6380
as(S'AP53'
p6381
S'AP53_1577'
p6382
S'AP53_1577'
p6383
tp6384
(lp6385
(I1558831
I1559610
g14
S'udp'
p6386
tp6387
as(S'AP53'
p6388
S'AP53_1690'
p6389
S'AP53_1690'
p6390
tp6391
(lp6392
(I1682723
I1683874
g14
S'fbaA'
p6393
tp6394
as(S'AP53'
p6395
S'AP53_767'
p6396
S'AP53_767'
p6397
tp6398
(lp6399
(I761310
I762209
g6
S'miaA'
p6400
tp6401
as(S'AP53'
p6402
S'AP53_847'
p6403
S'AP53_847'
p6404
tp6405
(lp6406
(I847375
I848706
g6
S'malP'
p6407
tp6408
as(S'AP53'
p6409
S'AP53_1300'
p6410
S'AP53_1300'
p6411
tp6412
(lp6413
(I1278343
I1279785
g14
S'bglB'
p6414
tp6415
as(S'AP53'
p6416
S'AP53_1576'
p6417
S'AP53_1576'
p6418
tp6419
(lp6420
(I1557608
I1558810
g14
S'nupC'
p6421
tp6422
as(S'AP53'
p6423
S'AP53_194'
p6424
S'AP53_194'
p6425
tp6426
(lp6427
(I210398
I211681
g6
S'fasC'
p6428
tp6429
as(S'AP53'
p6430
S'AP53_1583'
p6431
S'AP53_1583'
p6432
tp6433
(lp6434
(I1563695
I1563925
g6
g14
tp6435
as(S'AP53'
p6436
S'AP53_1760'
p6437
S'AP53_1760'
p6438
tp6439
(lp6440
(I1761838
I1761969
g14
g14
tp6441
as(S'AP53'
p6442
S'AP53_1432'
p6443
S'AP53_1432'
p6444
tp6445
(lp6446
(I1409488
I1410327
g14
S'AKR'
p6447
tp6448
as(S'AP53'
p6449
S'AP53_556'
p6450
S'AP53_556'
p6451
tp6452
(lp6453
(I567409
I567909
g6
g14
tp6454
as(S'AP53'
p6455
S'AP53_1408'
p6456
S'AP53_1408'
p6457
tp6458
(lp6459
(I1382258
I1383601
g14
g14
tp6460
as(S'AP53'
p6461
S'AP53_364'
p6462
S'AP53_364'
p6463
tp6464
(lp6465
(I379935
I380792
g6
g14
tp6466
as(S'AP53'
p6467
S'AP53_597'
p6468
S'AP53_597'
p6469
tp6470
(lp6471
(I610356
I610502
g6
g14
tp6472
as(S'AP53'
p6473
S'AP53_1661'
p6474
S'AP53_1661'
p6475
tp6476
(lp6477
(I1645123
I1648620
g14
S'pulA'
p6478
tp6479
as(S'AP53'
p6480
S'AP53_1010'
p6481
S'AP53_1010'
p6482
tp6483
(lp6484
(I1011257
I1013164
g14
g14
tp6485
as(S'AP53'
p6486
S'AP53_1849'
p6487
S'AP53_1849'
p6488
tp6489
(lp6490
(I1841814
I1843022
g6
S'hasB'
p6491
tp6492
as(S'AP53'
p6493
S'AP53_443'
p6494
S'AP53_443'
p6495
tp6496
(lp6497
(I450353
I451552
g6
S'metK1'
p6498
tp6499
as(S'AP53'
p6500
S'AP53_1118'
p6501
S'AP53_1118'
p6502
tp6503
(lp6504
(I1102636
I1104993
g14
S'inlA'
p6505
tp6506
as(S'AP53'
p6507
S'AP53_1718'
p6508
S'AP53_1718'
p6509
tp6510
(lp6511
(I1712002
I1714419
g14
S'pflD'
p6512
tp6513
as(S'AP53'
p6514
S'AP53_929'
p6515
S'AP53_929'
p6516
tp6517
(lp6518
(I929205
I930749
g14
g14
tp6519
as(S'AP53'
p6520
S'AP53_1466'
p6521
S'AP53_1466'
p6522
tp6523
(lp6524
(I1439798
I1441081
g14
S'lytR-F2'
p6525
tp6526
as(S'AP53'
p6527
S'AP53_1738'
p6528
S'AP53_1738'
p6529
tp6530
(lp6531
(I1731344
I1733788
g14
S'clpC'
p6532
tp6533
as(S'AP53'
p6534
S'AP53_219'
p6535
S'AP53_219'
p6536
tp6537
(lp6538
(I234662
I235075
g6
S'rpsL'
p6539
tp6540
as(S'AP53'
p6541
S'AP53_1711'
p6542
S'AP53_1711'
p6543
tp6544
(lp6545
(I1706908
I1707039
g6
S'hypo9'
p6546
tp6547
as(S'AP53'
p6548
S'AP53_743'
p6549
S'AP53_743'
p6550
tp6551
(lp6552
(I738429
I739142
g6
S'deoD'
p6553
tp6554
as(S'AP53'
p6555
S'AP53_175'
p6556
S'AP53_175'
p6557
tp6558
(lp6559
(I191409
I191528
g6
g14
tp6560
as(S'AP53'
p6561
S'AP53_854'
p6562
S'AP53_854'
p6563
tp6564
(lp6565
(I855860
I855973
g6
g14
tp6566
as(S'AP53'
p6567
S'AP53_1545'
p6568
S'AP53_1545'
p6569
tp6570
(lp6571
(I1527408
I1527698
g14
S'rpsF'
p6572
tp6573
as(S'AP53'
p6574
S'AP53_1159'
p6575
S'AP53_1159'
p6576
tp6577
(lp6578
(I1145359
I1146099
g14
S'plsC'
p6579
tp6580
as(S'AP53'
p6581
S'AP53_1127'
p6582
S'AP53_1127'
p6583
tp6584
(lp6585
(I1111848
I1113122
g14
S'deadD2'
p6586
tp6587
as(S'AP53'
p6588
S'AP53_1185'
p6589
S'AP53_1185'
p6590
tp6591
(lp6592
(I1169369
I1169797
g14
g14
tp6593
as(S'AP53'
p6594
S'AP53_69'
p6595
S'AP53_69'
p6596
tp6597
(lp6598
(I77805
I78743
g6
S'rpoA'
p6599
tp6600
as(S'AP53'
p6601
S'AP53_1660'
p6602
S'AP53_1660'
p6603
tp6604
(lp6605
(I1644634
I1644981
g14
S'bta'
p6606
tp6607
as(S'AP53'
p6608
S'AP53_277'
p6609
S'AP53_277'
p6610
tp6611
(lp6612
(I303159
I304727
g6
g14
tp6613
as(S'AP53'
p6614
S'AP53_1467'
p6615
S'AP53_1467'
p6616
tp6617
(lp6618
(I1441090
I1441614
g14
g14
tp6619
as(S'AP53'
p6620
S'AP53_1018'
p6621
S'AP53_1018'
p6622
tp6623
(lp6624
(I1022163
I1022588
g14
g14
tp6625
as(S'AP53'
p6626
S'AP53_704'
p6627
S'AP53_704'
p6628
tp6629
(lp6630
(I699718
I700776
g6
g14
tp6631
as(S'AP53'
p6632
S'AP53_382'
p6633
S'AP53_382'
p6634
tp6635
(lp6636
(I394170
I394400
g6
g14
tp6637
as(S'AP53'
p6638
S'AP53_1472'
p6639
S'AP53_1472'
p6640
tp6641
(lp6642
(I1446173
I1446982
g6
S'manM'
p6643
tp6644
as(S'AP53'
p6645
S'AP53_121'
p6646
S'AP53_121'
p6647
tp6648
(lp6649
(I137458
I137937
g6
S'ntpK'
p6650
tp6651
as(S'AP53'
p6652
S'AP53_393'
p6653
S'AP53_393'
p6654
tp6655
(lp6656
(I400346
I401710
g14
g14
tp6657
as(S'AP53'
p6658
S'AP53_466'
p6659
S'AP53_466'
p6660
tp6661
(lp6662
(I471288
I472712
g6
S'bglA'
p6663
tp6664
as(S'AP53'
p6665
S'AP53_1299'
p6666
S'AP53_1299'
p6667
tp6668
(lp6669
(I1277875
I1277997
g6
S'hypo16'
p6670
tp6671
as(S'AP53'
p6672
S'AP53_1544'
p6673
S'AP53_1544'
p6674
tp6675
(lp6676
(I1526895
I1527386
g14
S'ssb2'
p6677
tp6678
as(S'AP53'
p6679
S'AP53_1180'
p6680
S'AP53_1180'
p6681
tp6682
(lp6683
(I1166114
I1166821
g6
S'speC'
p6684
tp6685
as(S'AP53'
p6686
S'AP53_802'
p6687
S'AP53_802'
p6688
tp6689
(lp6690
(I801589
I802440
g6
g14
tp6691
as(S'AP53'
p6692
S'AP53_1221'
p6693
S'AP53_1221'
p6694
tp6695
(lp6696
(I1194780
I1196441
g14
S'recN'
p6697
tp6698
as(S'AP53'
p6699
S'AP53_990'
p6700
S'AP53_990'
p6701
tp6702
(lp6703
(I991709
I992044
g14
S'PhnA'
p6704
tp6705
as(S'AP53'
p6706
S'AP53_1801'
p6707
S'AP53_1801'
p6708
tp6709
(lp6710
(I1792829
I1793191
g6
g14
tp6711
as(S'AP53'
p6712
S'AP53_1598'
p6713
S'AP53_1598'
p6714
tp6715
(lp6716
(I1579006
I1579581
g14
S'rpoE'
p6717
tp6718
as(S'AP53'
p6719
S'AP53_1028'
p6720
S'AP53_1028'
p6721
tp6722
(lp6723
(I1027241
I1028995
g14
g14
tp6724
as(S'AP53'
p6725
S'AP53_500'
p6726
S'AP53_500'
p6727
tp6728
(lp6729
(I502330
I503529
g14
S'femB'
p6730
tp6731
as(S'AP53'
p6732
S'AP53_432'
p6733
S'AP53_432'
p6734
tp6735
(lp6736
(I436856
I437851
g6
g14
tp6737
as(S'AP53'
p6738
S'AP53_1640'
p6739
S'AP53_1640'
p6740
tp6741
(lp6742
(I1622036
I1622266
g14
S'hypo27'
p6743
tp6744
as(S'AP53'
p6745
S'AP53_843'
p6746
S'AP53_843'
p6747
tp6748
(lp6749
(I843130
I843906
g6
S'potC'
p6750
tp6751
as(S'AP53'
p6752
S'AP53_1373'
p6753
S'AP53_1373'
p6754
tp6755
(lp6756
(I1345662
I1347062
g14
g14
tp6757
as(S'AP53'
p6758
S'AP53_536'
p6759
S'AP53_536'
p6760
tp6761
(lp6762
(I543149
I544090
g14
g14
tp6763
as(S'AP53'
p6764
S'AP53_429'
p6765
S'AP53_429'
p6766
tp6767
(lp6768
(I433865
I434014
g6
g14
tp6769
as(S'AP53'
p6770
S'AP53_528'
p6771
S'AP53_528'
p6772
tp6773
(lp6774
(I534587
I535477
g6
g14
tp6775
as(S'AP53'
p6776
S'AP53_1280'
p6777
S'AP53_1280'
p6778
tp6779
(lp6780
(I1255708
I1258356
g14
S'valS'
p6781
tp6782
as(S'AP53'
p6783
S'AP53_722'
p6784
S'AP53_722'
p6785
tp6786
(lp6787
(I715791
I717803
g14
g14
tp6788
as(S'AP53'
p6789
S'AP53_172'
p6790
S'AP53_172'
p6791
tp6792
(lp6793
(I187857
I188372
g6
S'tadA'
p6794
tp6795
as(S'AP53'
p6796
S'AP53_1130'
p6797
S'AP53_1130'
p6798
tp6799
(lp6800
(I1116567
I1116830
g14
S'ptsH'
p6801
tp6802
as(S'AP53'
p6803
S'AP53_1702'
p6804
S'AP53_1702'
p6805
tp6806
(lp6807
(I1699640
I1700314
g14
S'salX'
p6808
tp6809
as(S'AP53'
p6810
S'AP53_817'
p6811
S'AP53_817'
p6812
tp6813
(lp6814
(I817224
I817661
g6
S'msrB'
p6815
tp6816
as(S'AP53'
p6817
S'AP53_1813'
p6818
S'AP53_1813'
p6819
tp6820
(lp6821
(I1805478
I1806758
g14
S'hisS'
p6822
tp6823
as(S'AP53'
p6824
S'AP53_384'
p6825
S'AP53_384'
p6826
tp6827
(lp6828
(I394832
I395113
g6
g14
tp6829
as(S'AP53'
p6830
S'AP53_686'
p6831
S'AP53_686'
p6832
tp6833
(lp6834
(I677592
I678113
g6
S'pyrR'
p6835
tp6836
as(S'AP53'
p6837
S'AP53_795'
p6838
S'AP53_795'
p6839
tp6840
(lp6841
(I790241
I791242
g6
S'acoB'
p6842
tp6843
as(S'AP53'
p6844
S'AP53_916'
p6845
S'AP53_916'
p6846
tp6847
(lp6848
(I914846
I915424
g6
S'citX'
p6849
tp6850
as(S'AP53'
p6851
S'AP53_522'
p6852
S'AP53_522'
p6853
tp6854
(lp6855
(I525711
I526346
g14
g14
tp6856
as(S'AP53'
p6857
S'AP53_619'
p6858
S'AP53_619'
p6859
tp6860
(lp6861
(I627523
I628656
g14
g14
tp6862
as(S'AP53'
p6863
S'AP53_1357'
p6864
S'AP53_1357'
p6865
tp6866
(lp6867
(I1326272
I1326457
g14
g14
tp6868
as(S'AP53'
p6869
S'AP53_236'
p6870
S'AP53_236'
p6871
tp6872
(lp6873
(I252909
I254090
g14
S'pbp7'
p6874
tp6875
as(S'AP53'
p6876
S'AP53_523'
p6877
S'AP53_523'
p6878
tp6879
(lp6880
(I526577
I527341
g6
S'budC'
p6881
tp6882
as(S'AP53'
p6883
S'AP53_1837'
p6884
S'AP53_1837'
p6885
tp6886
(lp6887
(I1829090
I1830211
g14
S'mnmA'
p6888
tp6889
as(S'AP53'
p6890
S'AP53_1319'
p6891
S'AP53_1319'
p6892
tp6893
(lp6894
(I1301802
I1302518
g14
g14
tp6895
as(S'AP53'
p6896
S'AP53_1064'
p6897
S'AP53_1064'
p6898
tp6899
(lp6900
(I1049124
I1050617
g14
S'malM'
p6901
tp6902
as(S'AP53'
p6903
S'AP53_635'
p6904
S'AP53_635'
p6905
tp6906
(lp6907
(I637853
I638338
g14
g14
tp6908
as(S'AP53'
p6909
S'AP53_772'
p6910
S'AP53_772'
p6911
tp6912
(lp6913
(I765853
I768063
g6
S'recJ'
p6914
tp6915
as(S'AP53'
p6916
S'AP53_166'
p6917
S'AP53_166'
p6918
tp6919
(lp6920
(I183643
I184506
g14
g14
tp6921
as(S'AP53'
p6922
S'AP53_343'
p6923
S'AP53_343'
p6924
tp6925
(lp6926
(I361177
I361677
g14
g14
tp6927
as(S'AP53'
p6928
S'AP53_78'
p6929
S'AP53_78'
p6930
tp6931
(lp6932
(I90343
I91599
g14
S'tyrS'
p6933
tp6934
as(S'AP53'
p6935
S'AP53_288'
p6936
S'AP53_288'
p6937
tp6938
(lp6939
(I312303
I312764
g6
g14
tp6940
as(S'AP53'
p6941
S'AP53_535'
p6942
S'AP53_535'
p6943
tp6944
(lp6945
(I542774
I543034
g14
S'rpmE2'
p6946
tp6947
as(S'AP53'
p6948
S'AP53_662'
p6949
S'AP53_662'
p6950
tp6951
(lp6952
(I656711
I657199
g6
S'ebsA'
p6953
tp6954
as(S'AP53'
p6955
S'AP53_1014'
p6956
S'AP53_1014'
p6957
tp6958
(lp6959
(I1017026
I1020949
g14
g14
tp6960
as(S'AP53'
p6961
S'AP53_46'
p6962
S'AP53_46'
p6963
tp6964
(lp6965
(I66535
I67368
g6
S'rplB'
p6966
tp6967
as(S'AP53'
p6968
S'AP53_682'
p6969
S'AP53_682'
p6970
tp6971
(lp6972
(I674296
I674589
g6
S'rpmA'
p6973
tp6974
as(S'AP53'
p6975
S'AP53_958'
p6976
S'AP53_958'
p6977
tp6978
(lp6979
(I961704
I962357
g14
S'phoU'
p6980
tp6981
as(S'AP53'
p6982
S'AP53_309'
p6983
S'AP53_309'
p6984
tp6985
(lp6986
(I331460
I332089
g6
S'upp'
p6987
tp6988
as(S'AP53'
p6989
S'AP53_367'
p6990
S'AP53_367'
p6991
tp6992
(lp6993
(I381742
I382923
g6
g14
tp6994
as(S'AP53'
p6995
S'AP53_1225'
p6996
S'AP53_1225'
p6997
tp6998
(lp6999
(I1198612
I1198827
g14
S'xseB'
p7000
tp7001
as(S'AP53'
p7002
S'AP53_518'
p7003
S'AP53_518'
p7004
tp7005
(lp7006
(I521426
I522601
g6
S'QueG'
p7007
tp7008
as(S'AP53'
p7009
S'AP53_476'
p7010
S'AP53_476'
p7011
tp7012
(lp7013
(I480452
I480880
g6
g14
tp7014
as(S'AP53'
p7015
S'AP53_942'
p7016
S'AP53_942'
p7017
tp7018
(lp7019
(I943560
I944396
g14
g14
tp7020
as(S'AP53'
p7021
S'AP53_1252'
p7022
S'AP53_1252'
p7023
tp7024
(lp7025
(I1227562
I1228089
g14
S'dpr'
p7026
tp7027
as(S'AP53'
p7028
S'AP53_531'
p7029
S'AP53_531'
p7030
tp7031
(lp7032
(I537492
I538889
g6
S'pepD'
p7033
tp7034
as(S'AP53'
p7035
S'AP53_1732'
p7036
S'AP53_1732'
p7037
tp7038
(lp7039
(I1726465
I1727964
g6
g14
tp7040
as(S'AP53'
p7041
S'AP53_1759'
p7042
S'AP53_1759'
p7043
tp7044
(lp7045
(I1761162
I1761875
g6
S'treR'
p7046
tp7047
as(S'AP53'
p7048
S'AP53_1707'
p7049
S'AP53_1707'
p7050
tp7051
(lp7052
(I1703470
I1704423
g14
S'ropA;prsA'
p7053
tp7054
as(S'AP53'
p7055
S'AP53_1374'
p7056
S'AP53_1374'
p7057
tp7058
(lp7059
(I1347099
I1347740
g14
S'yvqC'
p7060
tp7061
as(S'AP53'
p7062
S'AP53_1110'
p7063
S'AP53_1110'
p7064
tp7065
(lp7066
(I1093150
I1094433
g14
S'aroA'
p7067
tp7068
as(S'AP53'
p7069
S'AP53_497'
p7070
S'AP53_497'
p7071
tp7072
(lp7073
(I500225
I500983
g6
S'tpiA'
p7074
tp7075
as(S'AP53'
p7076
S'AP53_982'
p7077
S'AP53_982'
p7078
tp7079
(lp7080
(I981821
I982069
g14
S'hypo-high1'
p7081
tp7082
as(S'AP53'
p7083
S'AP53_1754'
p7084
S'AP53_1754'
p7085
tp7086
(lp7087
(I1753021
I1753788
g6
S'rpsB'
p7088
tp7089
as(S'AP53'
p7090
S'AP53_401'
p7091
S'AP53_401'
p7092
tp7093
(lp7094
(I407384
I407830
g6
g14
tp7095
as(S'AP53'
p7096
S'AP53_869'
p7097
S'AP53_869'
p7098
tp7099
(lp7100
(I868271
I868999
g6
S'proV'
p7101
tp7102
as(S'AP53'
p7103
S'AP53_1846'
p7104
S'AP53_1846'
p7105
tp7106
(lp7107
(I1837546
I1838835
g14
S'pqqL'
p7108
tp7109
as(S'AP53'
p7110
S'AP53_23'
p7111
S'AP53_23'
p7112
tp7113
(lp7114
(I40755
I42209
g6
S'purF'
p7115
tp7116
as(S'AP53'
p7117
S'AP53_40'
p7118
S'AP53_40'
p7119
tp7120
(lp7121
(I61500
I62516
g6
S'adhP'
p7122
tp7123
as(S'AP53'
p7124
S'AP53_991'
p7125
S'AP53_991'
p7126
tp7127
(lp7128
(I992240
I994054
g14
S'glmS'
p7129
tp7130
as(S'AP53'
p7131
S'AP53_851'
p7132
S'AP53_851'
p7133
tp7134
(lp7135
(I852734
I853327
g6
S'aphA'
p7136
tp7137
as(S'AP53'
p7138
S'AP53_760'
p7139
S'AP53_760'
p7140
tp7141
(lp7142
(I755977
I757182
g6
S'rpsA'
p7143
tp7144
as(S'AP53'
p7145
S'AP53_1503'
p7146
S'AP53_1503'
p7147
tp7148
(lp7149
(I1475446
I1475670
g14
g14
tp7150
as(S'AP53'
p7151
S'AP53_1518'
p7152
S'AP53_1518'
p7153
tp7154
(lp7155
(I1493085
I1493921
g14
S'fhuC-htsC'
p7156
tp7157
as(S'AP53'
p7158
S'AP53_1650'
p7159
S'AP53_1650'
p7160
tp7161
(lp7162
(I1632099
I1632356
g6
g14
tp7163
as(S'AP53'
p7164
S'AP53_978'
p7165
S'AP53_978'
p7166
tp7167
(lp7168
(I980181
I980381
g14
S'hypo15'
p7169
tp7170
as(S'AP53'
p7171
S'AP53_562'
p7172
S'AP53_562'
p7173
tp7174
(lp7175
(I572950
I573486
g6
S'atpH'
p7176
tp7177
as(S'AP53'
p7178
S'AP53_1543'
p7179
S'AP53_1543'
p7180
tp7181
(lp7182
(I1526491
I1526730
g14
S'rpsR'
p7183
tp7184
as(S'AP53'
p7185
S'AP53_940'
p7186
S'AP53_940'
p7187
tp7188
(lp7189
(I941369
I942367
g14
g14
tp7190
as(S'AP53'
p7191
S'AP53_275'
p7192
S'AP53_275'
p7193
tp7194
(lp7195
(I301185
I302513
g6
S'murC'
p7196
tp7197
as(S'AP53'
p7198
S'AP53_1657'
p7199
S'AP53_1657'
p7200
tp7201
(lp7202
(I1642378
I1643172
g14
S'cdsA'
p7203
tp7204
as(S'AP53'
p7205
S'AP53_1231'
p7206
S'AP53_1231'
p7207
tp7208
(lp7209
(I1205524
I1206210
g14
S'hisM/glnH'
p7210
tp7211
as(S'AP53'
p7212
S'AP53_1540'
p7213
S'AP53_1540'
p7214
tp7215
(lp7216
(I1521594
I1524452
g14
S'uvrA'
p7217
tp7218
as(S'AP53'
p7219
S'AP53_1856'
p7220
S'AP53_1856'
p7221
tp7222
(lp7223
(I1848859
I1849881
g14
S'trsA'
p7224
tp7225
as(S'AP53'
p7226
S'AP53_769'
p7227
S'AP53_769'
p7228
tp7229
(lp7230
(I763513
I764148
g6
g14
tp7231
as(S'AP53'
p7232
S'AP53_1468'
p7233
S'AP53_1468'
p7234
tp7235
(lp7236
(I1441589
I1442050
g14
g14
tp7237
as(S'AP53'
p7238
S'AP53_1825'
p7239
S'AP53_1825'
p7240
tp7241
(lp7242
(I1814234
I1814821
g6
g14
tp7243
as(S'AP53'
p7244
S'AP53_1560'
p7245
S'AP53_1560'
p7246
tp7247
(lp7248
(I1542978
I1543091
g6
g14
tp7249
as(S'AP53'
p7250
S'AP53_1107'
p7251
S'AP53_1107'
p7252
tp7253
(lp7254
(I1089567
I1090925
g14
g14
tp7255
as(S'AP53'
p7256
S'AP53_1485'
p7257
S'AP53_1485'
p7258
tp7259
(lp7260
(I1458493
I1459464
g14
S'fabK'
p7261
tp7262
as(S'AP53'
p7263
S'AP53_246'
p7264
S'AP53_246'
p7265
tp7266
(lp7267
(I270916
I271500
g6
g14
tp7268
as(S'AP53'
p7269
S'AP53_392'
p7270
S'AP53_392'
p7271
tp7272
(lp7273
(I400144
I400269
g14
g14
tp7274
as(S'AP53'
p7275
S'AP53_1486'
p7276
S'AP53_1486'
p7277
tp7278
(lp7279
(I1459665
I1459889
g14
S'acpP'
p7280
tp7281
as(S'AP53'
p7282
S'AP53_606'
p7283
S'AP53_606'
p7284
tp7285
(lp7286
(I614834
I616738
g14
g14
tp7287
as(S'AP53'
p7288
S'AP53_1656'
p7289
S'AP53_1656'
p7290
tp7291
(lp7292
(I1641046
I1642305
g14
S'eep'
p7293
tp7294
as(S'AP53'
p7295
S'AP53_1203'
p7296
S'AP53_1203'
p7297
tp7298
(lp7299
(I1184049
I1184249
g14
g14
tp7300
as(S'AP53'
p7301
S'AP53_527'
p7302
S'AP53_527'
p7303
tp7304
(lp7305
(I532825
I534171
g6
S'asnC'
p7306
tp7307
as(S'AP53'
p7308
S'AP53_272'
p7309
S'AP53_272'
p7310
tp7311
(lp7312
(I295684
I296994
g6
S'engA'
p7313
tp7314
as(S'AP53'
p7315
S'AP53_755'
p7316
S'AP53_755'
p7317
tp7318
(lp7319
(I748873
I749514
g14
S'plsY'
p7320
tp7321
as(S'AP53'
p7322
S'AP53_850'
p7323
S'AP53_850'
p7324
tp7325
(lp7326
(I851306
I852439
g6
g14
tp7327
as(S'AP53'
p7328
S'AP53_1557'
p7329
S'AP53_1557'
p7330
tp7331
(lp7332
(I1538709
I1539191
g6
g14
tp7333
as(S'AP53'
p7334
S'AP53_1045'
p7335
S'AP53_1045'
p7336
tp7337
(lp7338
(I1039247
I1039441
g14
g14
tp7339
as(S'AP53'
p7340
S'AP53_781'
p7341
S'AP53_781'
p7342
tp7343
(lp7344
(I774595
I775635
g6
S'rmlB'
p7345
tp7346
as(S'AP53'
p7347
S'AP53_908'
p7348
S'AP53_908'
p7349
tp7350
(lp7351
(I908223
I909626
g14
S'citN'
p7352
tp7353
as(S'AP53'
p7354
S'AP53_273'
p7355
S'AP53_273'
p7356
tp7357
(lp7358
(I297201
I300299
g6
S'snf'
p7359
tp7360
as(S'AP53'
p7361
S'AP53_340'
p7362
S'AP53_340'
p7363
tp7364
(lp7365
(I358749
I359360
g14
g14
tp7366
as(S'AP53'
p7367
S'AP53_373'
p7368
S'AP53_373'
p7369
tp7370
(lp7371
(I388007
I388903
g6
S'era'
p7372
tp7373
as(S'AP53'
p7374
S'AP53_434'
p7375
S'AP53_434'
p7376
tp7377
(lp7378
(I438716
I440068
g6
S'vicK'
p7379
tp7380
as(S'AP53'
p7381
S'AP53_1205'
p7382
S'AP53_1205'
p7383
tp7384
(lp7385
(I1185175
I1185504
g14
g14
tp7386
as(S'AP53'
p7387
S'AP53_526'
p7388
S'AP53_526'
p7389
tp7390
(lp7391
(I531611
I532804
g6
S'aspC'
p7392
tp7393
as(S'AP53'
p7394
S'AP53_1515'
p7395
S'AP53_1515'
p7396
tp7397
(lp7398
(I1489072
I1489665
g14
S'cbiMN'
p7399
tp7400
as(S'AP53'
p7401
S'AP53_822'
p7402
S'AP53_822'
p7403
tp7404
(lp7405
(I820783
I821610
g6
S'ptsD'
p7406
tp7407
as(S'AP53'
p7408
S'AP53_649'
p7409
S'AP53_649'
p7410
tp7411
(lp7412
(I645444
I645578
g14
g14
tp7413
as(S'AP53'
p7414
S'AP53_1372'
p7415
S'AP53_1372'
p7416
tp7417
(lp7418
(I1345285
I1345662
g14
g14
tp7419
as(S'AP53'
p7420
S'AP53_578'
p7421
S'AP53_578'
p7422
tp7423
(lp7424
(I586816
I587484
g6
g14
tp7425
as(S'AP53'
p7426
S'AP53_826'
p7427
S'AP53_826'
p7428
tp7429
(lp7430
(I825342
I826739
g6
S'gabD'
p7431
tp7432
as(S'AP53'
p7433
S'AP53_331'
p7434
S'AP53_331'
p7435
tp7436
(lp7437
(I350666
I350797
g6
g14
tp7438
as(S'AP53'
p7439
S'AP53_690'
p7440
S'AP53_690'
p7441
tp7442
(lp7443
(I681756
I684932
g6
S'carB'
p7444
tp7445
as(S'AP53'
p7446
S'AP53_278'
p7447
S'AP53_278'
p7448
tp7449
(lp7450
(I304800
I305282
g6
S'greA'
p7451
tp7452
as(S'AP53'
p7453
S'AP53_1666'
p7454
S'AP53_1666'
p7455
tp7456
(lp7457
(I1654599
I1655042
g14
S'dtd'
p7458
tp7459
as(S'AP53'
p7460
S'AP53_241'
p7461
S'AP53_241'
p7462
tp7463
(lp7464
(I260293
I261363
g6
S'oppD'
p7465
tp7466
as(S'AP53'
p7467
S'AP53_1194'
p7468
S'AP53_1194'
p7469
tp7470
(lp7471
(I1178971
I1179306
g14
g14
tp7472
as(S'AP53'
p7473
S'AP53_366'
p7474
S'AP53_366'
p7475
tp7476
(lp7477
(I381371
I381586
g6
g14
tp7478
as(S'AP53'
p7479
S'AP53_1316'
p7480
S'AP53_1316'
p7481
tp7482
(lp7483
(I1296755
I1298641
g14
g14
tp7484
as(S'AP53'
p7485
S'AP53_1087'
p7486
S'AP53_1087'
p7487
tp7488
(lp7489
(I1073082
I1074176
g14
g14
tp7490
as(S'AP53'
p7491
S'AP53_1779'
p7492
S'AP53_1779'
p7493
tp7494
(lp7495
(I1776107
I1776703
g14
S'ruvA'
p7496
tp7497
as(S'AP53'
p7498
S'AP53_353'
p7499
S'AP53_353'
p7500
tp7501
(lp7502
(I369357
I370004
g14
S'scaR'
p7503
tp7504
as(S'AP53'
p7505
S'AP53_529'
p7506
S'AP53_529'
p7507
tp7508
(lp7509
(I535474
I536451
g6
g14
tp7510
as(S'AP53'
p7511
S'AP53_759'
p7512
S'AP53_759'
p7513
tp7514
(lp7515
(I755357
I755587
g6
g14
tp7516
as(S'AP53'
p7517
S'AP53_1403'
p7518
S'AP53_1403'
p7519
tp7520
(lp7521
(I1379208
I1380125
g14
S'trxB'
p7522
tp7523
as(S'AP53'
p7524
S'AP53_1841'
p7525
S'AP53_1841'
p7526
tp7527
(lp7528
(I1833463
I1834263
g14
S'cbiQ'
p7529
tp7530
as(S'AP53'
p7531
S'AP53_1379'
p7532
S'AP53_1379'
p7533
tp7534
(lp7535
(I1352222
I1353544
g14
S'sunL'
p7536
tp7537
as(S'AP53'
p7538
S'AP53_1354'
p7539
S'AP53_1354'
p7540
tp7541
(lp7542
(I1324927
I1325688
g14
g14
tp7543
as(S'AP53'
p7544
S'AP53_1011'
p7545
S'AP53_1011'
p7546
tp7547
(lp7548
(I1013174
I1014181
g14
S'hylP'
p7549
tp7550
as(S'AP53'
p7551
S'AP53_700'
p7552
S'AP53_700'
p7553
tp7554
(lp7555
(I696573
I697094
g6
g14
tp7556
as(S'AP53'
p7557
S'AP53_8'
p7558
S'AP53_8'
p7559
tp7560
(lp7561
(I8902
I9174
g6
g14
tp7562
as(S'AP53'
p7563
S'AP53_351'
p7564
S'AP53_351'
p7565
tp7566
(lp7567
(I368071
I368766
g6
S'pfs'
p7568
tp7569
as(S'AP53'
p7570
S'AP53_1419'
p7571
S'AP53_1419'
p7572
tp7573
(lp7574
(I1393827
I1395812
g14
S'tkt'
p7575
tp7576
as(S'AP53'
p7577
S'AP53_701'
p7578
S'AP53_701'
p7579
tp7580
(lp7581
(I697309
I697827
g6
S'rimM'
p7582
tp7583
as(S'AP53'
p7584
S'AP53_1078'
p7585
S'AP53_1078'
p7586
tp7587
(lp7588
(I1062912
I1064903
g14
S'uvrB'
p7589
tp7590
as(S'AP53'
p7591
S'AP53_229'
p7592
S'AP53_229'
p7593
tp7594
(lp7595
(I246256
I247374
g6
S'rgpG'
p7596
tp7597
as(S'AP53'
p7598
S'AP53_927'
p7599
S'AP53_927'
p7600
tp7601
(lp7602
(I927630
I927911
g14
g14
tp7603
as(S'AP53'
p7604
S'AP53_1513'
p7605
S'AP53_1513'
p7606
tp7607
(lp7608
(I1487004
I1488398
g14
S'cbiO'
p7609
tp7610
as(S'AP53'
p7611
S'AP53_876'
p7612
S'AP53_876'
p7613
tp7614
(lp7615
(I875326
I875895
g6
S'tdk2'
p7616
tp7617
as(S'AP53'
p7618
S'AP53_1121'
p7619
S'AP53_1121'
p7620
tp7621
(lp7622
(I1106412
I1108082
g14
S'dnaX'
p7623
tp7624
as(S'AP53'
p7625
S'AP53_733'
p7626
S'AP53_733'
p7627
tp7628
(lp7629
(I728462
I728959
g6
S'dfr'
p7630
tp7631
as(S'AP53'
p7632
S'AP53_200'
p7633
S'AP53_200'
p7634
tp7635
(lp7636
(I215358
I215492
g6
S'rpmH'
p7637
tp7638
as(S'AP53'
p7639
S'AP53_577'
p7640
S'AP53_577'
p7641
tp7642
(lp7643
(I585730
I586806
g6
g14
tp7644
as(S'AP53'
p7645
S'AP53_1766'
p7646
S'AP53_1766'
p7647
tp7648
(lp7649
(I1765104
I1765598
g14
g14
tp7650
as(S'AP53'
p7651
S'AP53_1474'
p7652
S'AP53_1474'
p7653
tp7654
(lp7655
(I1448024
I1448383
g6
g14
tp7656
as(S'AP53'
p7657
S'AP53_52'
p7658
S'AP53_52'
p7659
tp7660
(lp7661
(I69470
I69730
g6
S'rpsQ'
p7662
tp7663
as(S'AP53'
p7664
S'AP53_962'
p7665
S'AP53_962'
p7666
tp7667
(lp7668
(I964892
I965827
g14
S'pstC'
p7669
tp7670
as(S'AP53'
p7671
S'AP53_284'
p7672
S'AP53_284'
p7673
tp7674
(lp7675
(I309609
I309851
g6
g14
tp7676
as(S'AP53'
p7677
S'AP53_986'
p7678
S'AP53_986'
p7679
tp7680
(lp7681
(I988327
I989100
g14
S'cfa'
p7682
tp7683
as(S'AP53'
p7684
S'AP53_1324'
p7685
S'AP53_1324'
p7686
tp7687
(lp7688
(I1307289
I1307687
g14
g14
tp7689
as(S'AP53'
p7690
S'AP53_616'
p7691
S'AP53_616'
p7692
tp7693
(lp7694
(I626673
I627035
g14
g14
tp7695
as(S'AP53'
p7696
S'AP53_658'
p7697
S'AP53_658'
p7698
tp7699
(lp7700
(I652256
I652597
g6
g14
tp7701
as(S'AP53'
p7702
S'AP53_1626'
p7703
S'AP53_1626'
p7704
tp7705
(lp7706
(I1613484
I1613819
g6
g14
tp7707
as(S'AP53'
p7708
S'AP53_1264'
p7709
S'AP53_1264'
p7710
tp7711
(lp7712
(I1238348
I1239841
g14
S'arcD'
p7713
tp7714
as(S'AP53'
p7715
S'AP53_1206'
p7716
S'AP53_1206'
p7717
tp7718
(lp7719
(I1185560
I1185766
g14
g14
tp7720
as(S'AP53'
p7721
S'AP53_1865'
p7722
S'AP53_1865'
p7723
tp7724
(lp7725
(I555538
I555699
g6
S'sagA'
p7726
tp7727
as(S'AP53'
p7728
S'AP53_992'
p7729
S'AP53_992'
p7730
tp7731
(lp7732
(I994230
I994787
g14
g14
tp7733
as(S'AP53'
p7734
S'AP53_1061'
p7735
S'AP53_1061'
p7736
tp7737
(lp7738
(I1044497
I1045585
g6
S'int3'
p7739
tp7740
as(S'AP53'
p7741
S'AP53_1462'
p7742
S'AP53_1462'
p7743
tp7744
(lp7745
(I1437081
I1438115
g14
S'ecsB'
p7746
tp7747
as(S'AP53'
p7748
S'AP53_1362'
p7749
S'AP53_1362'
p7750
tp7751
(lp7752
(I1328506
I1328829
g6
g14
tp7753
as(S'AP53'
p7754
S'AP53_282'
p7755
S'AP53_282'
p7756
tp7757
(lp7758
(I308227
I308727
g6
g14
tp7759
as(S'AP53'
p7760
S'AP53_1717'
p7761
S'AP53_1717'
p7762
tp7763
(lp7764
(I1711321
I1711989
g14
S'mipB'
p7765
tp7766
as(S'AP53'
p7767
S'AP53_984'
p7768
S'AP53_984'
p7769
tp7770
(lp7771
(I985280
I986602
g6
S'GlyP'
p7772
tp7773
as(S'AP53'
p7774
S'AP53_1325'
p7775
S'AP53_1325'
p7776
tp7777
(lp7778
(I1307684
I1308040
g14
g14
tp7779
as(S'AP53'
p7780
S'AP53_53'
p7781
S'AP53_53'
p7782
tp7783
(lp7784
(I69755
I70123
g6
S'rplN'
p7785
tp7786
as(S'AP53'
p7787
S'AP53_593'
p7788
S'AP53_593'
p7789
tp7790
(lp7791
(I606125
I607132
g6
S'rgpEc'
p7792
tp7793
as(S'AP53'
p7794
S'AP53_1351'
p7795
S'AP53_1351'
p7796
tp7797
(lp7798
(I1323664
I1323954
g14
g14
tp7799
as(S'AP53'
p7800
S'AP53_1283'
p7801
S'AP53_1283'
p7802
tp7803
(lp7804
(I1259531
I1259926
g14
g14
tp7805
as(S'AP53'
p7806
S'AP53_988'
p7807
S'AP53_988'
p7808
tp7809
(lp7810
(I990322
I990951
g14
S'glnQ'
p7811
tp7812
as(S'AP53'
p7813
S'AP53_756'
p7814
S'AP53_756'
p7815
tp7816
(lp7817
(I749649
I751598
g6
S'parE'
p7818
tp7819
as(S'AP53'
p7820
S'AP53_1358'
p7821
S'AP53_1358'
p7822
tp7823
(lp7824
(I1326624
I1326863
g6
g14
tp7825
as(S'AP53'
p7826
S'AP53_548'
p7827
S'AP53_548'
p7828
tp7829
(lp7830
(I557946
I559304
g6
S'sagD'
p7831
tp7832
as(S'AP53'
p7833
S'AP53_222'
p7834
S'AP53_222'
p7835
tp7836
(lp7837
(I238468
I239478
g6
S'plr'
p7838
tp7839
as(S'AP53'
p7840
S'AP53_620'
p7841
S'AP53_620'
p7842
tp7843
(lp7844
(I628673
I629479
g14
g14
tp7845
as(S'AP53'
p7846
S'AP53_11'
p7847
S'AP53_11'
p7848
tp7849
(lp7850
(I9667
I10953
g6
g14
tp7851
as(S'AP53'
p7852
S'AP53_1449'
p7853
S'AP53_1449'
p7854
tp7855
(lp7856
(I1423925
I1424128
g14
S'copZ'
p7857
tp7858
as(S'AP53'
p7859
S'AP53_66'
p7860
S'AP53_66'
p7861
tp7862
(lp7863
(I76859
I76975
g6
S'rpmJ'
p7864
tp7865
as(S'AP53'
p7866
S'AP53_965'
p7867
S'AP53_965'
p7868
tp7869
(lp7870
(I968156
I968944
g14
g14
tp7871
as(S'AP53'
p7872
S'AP53_12'
p7873
S'AP53_12'
p7874
tp7875
(lp7876
(I10950
I12236
g6
S'tilS'
p7877
tp7878
as(S'AP53'
p7879
S'AP53_910'
p7880
S'AP53_910'
p7881
tp7882
(lp7883
(I910386
I910781
g6
g14
tp7884
as(S'AP53'
p7885
S'AP53_1073'
p7886
S'AP53_1073'
p7887
tp7888
(lp7889
(I1058202
I1059452
g14
S'dltD'
p7890
tp7891
as(S'AP53'
p7892
S'AP53_669'
p7893
S'AP53_669'
p7894
tp7895
(lp7896
(I660243
I662090
g14
g14
tp7897
as(S'AP53'
p7898
S'AP53_185'
p7899
S'AP53_185'
p7900
tp7901
(lp7902
(I199130
I200836
g6
g14
tp7903
as(S'AP53'
p7904
S'AP53_1313'
p7905
S'AP53_1313'
p7906
tp7907
(lp7908
(I1295212
I1295667
g14
g14
tp7909
as(S'AP53'
p7910
S'AP53_310'
p7911
S'AP53_310'
p7912
tp7913
(lp7914
(I332076
I332192
g6
g14
tp7915
as(S'AP53'
p7916
S'AP53_515'
p7917
S'AP53_515'
p7918
tp7919
(lp7920
(I518193
I519194
g6
S'kdgK'
p7921
tp7922
as(S'AP53'
p7923
S'AP53_270'
p7924
S'AP53_270'
p7925
tp7926
(lp7927
(I293618
I294718
g6
S'dnaB'
p7928
tp7929
as(S'AP53'
p7930
S'AP53_796'
p7931
S'AP53_796'
p7932
tp7933
(lp7934
(I791427
I792836
g6
S'pdhC'
p7935
tp7936
as(S'AP53'
p7937
S'AP53_895'
p7938
S'AP53_895'
p7939
tp7940
(lp7941
(I894654
I895094
g14
g14
tp7942
as(S'AP53'
p7943
S'AP53_1016'
p7944
S'AP53_1016'
p7945
tp7946
(lp7947
(I1021159
I1021485
g14
g14
tp7948
as(S'AP53'
p7949
S'AP53_779'
p7950
S'AP53_779'
p7951
tp7952
(lp7953
(I772889
I773758
g6
S'rmlA'
p7954
tp7955
as(S'AP53'
p7956
S'AP53_1186'
p7957
S'AP53_1186'
p7958
tp7959
(lp7960
(I1169806
I1171587
g14
g14
tp7961
as(S'AP53'
p7962
S'AP53_461'
p7963
S'AP53_461'
p7964
tp7965
(lp7966
(I464440
I465264
g6
g14
tp7967
as(S'AP53'
p7968
S'AP53_598'
p7969
S'AP53_598'
p7970
tp7971
(lp7972
(I610643
I610894
g6
g14
tp7973
as(S'AP53'
p7974
S'AP53_1821'
p7975
S'AP53_1821'
p7976
tp7977
(lp7978
(I1811449
I1811613
g14
g14
tp7979
as(S'AP53'
p7980
S'AP53_442'
p7981
S'AP53_442'
p7982
tp7983
(lp7984
(I449357
I450343
g6
g14
tp7985
as(S'AP53'
p7986
S'AP53_1090'
p7987
S'AP53_1090'
p7988
tp7989
(lp7990
(I1076510
I1076668
g14
g14
tp7991
as(S'AP53'
p7992
S'AP53_240'
p7993
S'AP53_240'
p7994
tp7995
(lp7996
(I259358
I260284
g6
S'oppC'
p7997
tp7998
as(S'AP53'
p7999
S'AP53_1145'
p8000
S'AP53_1145'
p8001
tp8002
(lp8003
(I1130488
I1131684
g14
g14
tp8004
as(S'AP53'
p8005
S'AP53_623'
p8006
S'AP53_623'
p8007
tp8008
(lp8009
(I632758
I633075
g14
g14
tp8010
as(S'AP53'
p8011
S'AP53_1411'
p8012
S'AP53_1411'
p8013
tp8014
(lp8015
(I1387030
I1387353
g14
S'ftsL'
p8016
tp8017
as(S'AP53'
p8018
S'AP53_1368'
p8019
S'AP53_1368'
p8020
tp8021
(lp8022
(I1341549
I1342214
g14
S'comFC'
p8023
tp8024
as(S'AP53'
p8025
S'AP53_1119'
p8026
S'AP53_1119'
p8027
tp8028
(lp8029
(I1105197
I1106138
g6
S'birA'
p8030
tp8031
as(S'AP53'
p8032
S'AP53_936'
p8033
S'AP53_936'
p8034
tp8035
(lp8036
(I938250
I939269
g14
S'lplA'
p8037
tp8038
as(S'AP53'
p8039
S'AP53_1531'
p8040
S'AP53_1531'
p8041
tp8042
(lp8043
(I1510540
I1513470
g14
S'endoS'
p8044
tp8045
as(S'AP53'
p8046
S'AP53_79'
p8047
S'AP53_79'
p8048
tp8049
(lp8050
(I91703
I94003
g6
S'pbp1b'
p8051
tp8052
as(S'AP53'
p8053
S'AP53_107'
p8054
S'AP53_107'
p8055
tp8056
(lp8057
(I121551
I122138
g6
S'fctB'
p8058
tp8059
as(S'AP53'
p8060
S'AP53_1532'
p8061
S'AP53_1532'
p8062
tp8063
(lp8064
(I1513701
I1515584
g14
S'scrA'
p8065
tp8066
as(S'AP53'
p8067
S'AP53_43'
p8068
S'AP53_43'
p8069
tp8070
(lp8071
(I64948
I65574
g6
S'rplC'
p8072
tp8073
as(S'AP53'
p8074
S'AP53_1131'
p8075
S'AP53_1131'
p8076
tp8077
(lp8078
(I1117265
I1117441
g6
S'nrdH'
p8079
tp8080
as(S'AP53'
p8081
S'AP53_271'
p8082
S'AP53_271'
p8083
tp8084
(lp8085
(I294719
I295621
g6
S'dnaI'
p8086
tp8087
as(S'AP53'
p8088
S'AP53_714'
p8089
S'AP53_714'
p8090
tp8091
(lp8092
(I709221
I709340
g6
g14
tp8093
as(S'AP53'
p8094
S'AP53_931'
p8095
S'AP53_931'
p8096
tp8097
(lp8098
(I931418
I932284
g14
S'pdxK'
p8099
tp8100
as(S'AP53'
p8101
S'AP53_708'
p8102
S'AP53_708'
p8103
tp8104
(lp8105
(I703586
I705532
g6
S'fruA'
p8106
tp8107
as(S'AP53'
p8108
S'AP53_33'
p8109
S'AP53_33'
p8110
tp8111
(lp8112
(I51973
I53265
g6
S'purB'
p8113
tp8114
as(S'AP53'
p8115
S'AP53_1209'
p8116
S'AP53_1209'
p8117
tp8118
(lp8119
(I1186126
I1186512
g14
g14
tp8120
as(S'AP53'
p8121
S'AP53_386'
p8122
S'AP53_386'
p8123
tp8124
(lp8125
(I395791
I395970
g6
g14
tp8126
as(S'AP53'
p8127
S'AP53_362'
p8128
S'AP53_362'
p8129
tp8130
(lp8131
(I378512
I379240
g6
S'pyrH'
p8132
tp8133
as(S'AP53'
p8134
S'AP53_554'
p8135
S'AP53_554'
p8136
tp8137
(lp8138
(I563939
I564157
g14
g14
tp8139
as(S'AP53'
p8140
S'AP53_996'
p8141
S'AP53_996'
p8142
tp8143
(lp8144
(I1000958
I1001329
g6
g14
tp8145
as(S'AP53'
p8146
S'AP53_1072'
p8147
S'AP53_1072'
p8148
tp8149
(lp8150
(I1057188
I1058171
g14
S'sse2'
p8151
tp8152
as(S'AP53'
p8153
S'AP53_1149'
p8154
S'AP53_1149'
p8155
tp8156
(lp8157
(I1135970
I1136674
g14
S'nagB'
p8158
tp8159
as(S'AP53'
p8160
S'AP53_358'
p8161
S'AP53_358'
p8162
tp8163
(lp8164
(I373897
I376302
g6
S'ftsK'
p8165
tp8166
as(S'AP53'
p8167
S'AP53_625'
p8168
S'AP53_625'
p8169
tp8170
(lp8171
(I633514
I633900
g14
g14
tp8172
as(S'AP53'
p8173
S'AP53_462'
p8174
S'AP53_462'
p8175
tp8176
(lp8177
(I465264
I466814
g6
S'ftsY'
p8178
tp8179
as(S'AP53'
p8180
S'AP53_103'
p8181
S'AP53_103'
p8182
tp8183
(lp8184
(I117646
I119229
g6
S'cpa1'
p8185
tp8186
as(S'AP53'
p8187
S'AP53_1481'
p8188
S'AP53_1481'
p8189
tp8190
(lp8191
(I1455057
I1455557
g14
S'accB'
p8192
tp8193
as(S'AP53'
p8194
S'AP53_1596'
p8195
S'AP53_1596'
p8196
tp8197
(lp8198
(I1576998
I1577117
g6
g14
tp8199
as(S'AP53'
p8200
S'AP53_544'
p8201
S'AP53_544'
p8202
tp8203
(lp8204
(I552871
I553329
g14
g14
tp8205
as(S'AP53'
p8206
S'AP53_1024'
p8207
S'AP53_1024'
p8208
tp8209
(lp8210
(I1024960
I1025625
g14
g14
tp8211
as(S'AP53'
p8212
S'AP53_265'
p8213
S'AP53_265'
p8214
tp8215
(lp8216
(I288727
I289623
g6
S'htpX'
p8217
tp8218
as(S'AP53'
p8219
S'AP53_281'
p8220
S'AP53_281'
p8221
tp8222
(lp8223
(I307451
I308188
g6
g14
tp8224
as(S'AP53'
p8225
S'AP53_511'
p8226
S'AP53_511'
p8227
tp8228
(lp8229
(I514743
I515942
g14
S'ugl'
p8230
tp8231
as(S'AP53'
p8232
S'AP53_928'
p8233
S'AP53_928'
p8234
tp8235
(lp8236
(I928034
I928840
g14
g14
tp8237
as(S'AP53'
p8238
S'AP53_56'
p8239
S'AP53_56'
p8240
tp8241
(lp8242
(I71089
I71274
g6
S'rpsN'
p8243
tp8244
as(S'AP53'
p8245
S'AP53_631'
p8246
S'AP53_631'
p8247
tp8248
(lp8249
(I636615
I636953
g14
g14
tp8250
as(S'AP53'
p8251
S'AP53_742'
p8252
S'AP53_742'
p8253
tp8254
(lp8255
(I736957
I737766
g6
S'punA'
p8256
tp8257
as(S'AP53'
p8258
S'AP53_54'
p8259
S'AP53_54'
p8260
tp8261
(lp8262
(I70202
I70507
g6
S'rplX'
p8263
tp8264
as(S'AP53'
p8265
S'AP53_1376'
p8266
S'AP53_1376'
p8267
tp8268
(lp8269
(I1348734
I1349426
g14
S'yvqF'
p8270
tp8271
as(S'AP53'
p8272
S'AP53_125'
p8273
S'AP53_125'
p8274
tp8275
(lp8276
(I139915
I140028
g14
g14
tp8277
as(S'AP53'
p8278
S'AP53_1094'
p8279
S'AP53_1094'
p8280
tp8281
(lp8282
(I1079013
I1079330
g6
g14
tp8283
as(S'AP53'
p8284
S'AP53_899'
p8285
S'AP53_899'
p8286
tp8287
(lp8288
(I897950
I900079
g6
S'topA'
p8289
tp8290
as(S'AP53'
p8291
S'AP53_321'
p8292
S'AP53_321'
p8293
tp8294
(lp8295
(I338696
I339052
g6
g14
tp8296
as(S'AP53'
p8297
S'AP53_617'
p8298
S'AP53_617'
p8299
tp8300
(lp8301
(I627028
I627336
g14
g14
tp8302
as(S'AP53'
p8303
S'AP53_1833'
p8304
S'AP53_1833'
p8305
tp8306
(lp8307
(I1823460
I1823912
g14
S'rplI'
p8308
tp8309
as(S'AP53'
p8310
S'AP53_1263'
p8311
S'AP53_1263'
p8312
tp8313
(lp8314
(I1237000
I1238331
g14
S'arcE'
p8315
tp8316
as(S'AP53'
p8317
S'AP53_1172'
p8318
S'AP53_1172'
p8319
tp8320
(lp8321
(I1159633
I1160154
g14
g14
tp8322
as(S'AP53'
p8323
S'AP53_1265'
p8324
S'AP53_1265'
p8325
tp8326
(lp8327
(I1240011
I1241024
g14
S'arcB'
p8328
tp8329
as(S'AP53'
p8330
S'AP53_976'
p8331
S'AP53_976'
p8332
tp8333
(lp8334
(I978878
I979519
g14
g14
tp8335
as(S'AP53'
p8336
S'AP53_683'
p8337
S'AP53_683'
p8338
tp8339
(lp8340
(I674947
I675861
g6
g14
tp8341
as(S'AP53'
p8342
S'AP53_1262'
p8343
S'AP53_1262'
p8344
tp8345
(lp8346
(I1236030
I1236980
g14
S'arcC'
p8347
tp8348
as(S'AP53'
p8349
S'AP53_825'
p8350
S'AP53_825'
p8351
tp8352
(lp8353
(I824181
I825227
g6
g14
tp8354
as(S'AP53'
p8355
S'AP53_446'
p8356
S'AP53_446'
p8357
tp8358
(lp8359
(I454240
I455397
g6
g14
tp8360
as(S'AP53'
p8361
S'AP53_368'
p8362
S'AP53_368'
p8363
tp8364
(lp8365
(I383239
I385011
g6
g14
tp8366
as(S'AP53'
p8367
S'AP53_599'
p8368
S'AP53_599'
p8369
tp8370
(lp8371
(I611158
I611397
g6
g14
tp8372
as(S'AP53'
p8373
S'AP53_1255'
p8374
S'AP53_1255'
p8375
tp8376
(lp8377
(I1230108
I1230728
g14
g14
tp8378
as(S'AP53'
p8379
S'AP53_1365'
p8380
S'AP53_1365'
p8381
tp8382
(lp8383
(I1331761
I1332537
g6
S'recX'
p8384
tp8385
as(S'AP53'
p8386
S'AP53_624'
p8387
S'AP53_624'
p8388
tp8389
(lp8390
(I633216
I633365
g14
g14
tp8391
as(S'AP53'
p8392
S'AP53_1184'
p8393
S'AP53_1184'
p8394
tp8395
(lp8396
(I1168734
I1169366
g14
g14
tp8397
as(S'AP53'
p8398
S'AP53_516'
p8399
S'AP53_516'
p8400
tp8401
(lp8402
(I519199
I519834
g6
S'kgdA'
p8403
tp8404
as(S'AP53'
p8405
S'AP53_1080'
p8406
S'AP53_1080'
p8407
tp8408
(lp8409
(I1067270
I1068010
g6
S'glnQ2'
p8410
tp8411
as(S'AP53'
p8412
S'AP53_1682'
p8413
S'AP53_1682'
p8414
tp8415
(lp8416
(I1675412
I1676389
g6
S'dppB'
p8417
tp8418
as(S'AP53'
p8419
S'AP53_369'
p8420
S'AP53_369'
p8421
tp8422
(lp8423
(I385170
I386222
g6
S'phoH'
p8424
tp8425
as(S'AP53'
p8426
S'AP53_1510'
p8427
S'AP53_1510'
p8428
tp8429
(lp8430
(I1482703
I1483407
g14
g14
tp8431
as(S'AP53'
p8432
S'AP53_591'
p8433
S'AP53_591'
p8434
tp8435
(lp8436
(I604092
I604895
g6
S'rgpCc'
p8437
tp8438
as(S'AP53'
p8439
S'AP53_1784'
p8440
S'AP53_1784'
p8441
tp8442
(lp8443
(I1782427
I1783194
g14
g14
tp8444
as(S'AP53'
p8445
S'AP53_1705'
p8446
S'AP53_1705'
p8447
tp8448
(lp8449
(I1702423
I1702719
g14
S'sHIP'
p8450
tp8451
as(S'AP53'
p8452
S'AP53_1434'
p8453
S'AP53_1434'
p8454
tp8455
(lp8456
(I1411715
I1413346
g14
S'nptA'
p8457
tp8458
as(S'AP53'
p8459
S'AP53_1534'
p8460
S'AP53_1534'
p8461
tp8462
(lp8463
(I1517270
I1518235
g6
S'scrR'
p8464
tp8465
as(S'AP53'
p8466
S'AP53_1752'
p8467
S'AP53_1752'
p8468
tp8469
(lp8470
(I1748626
I1749612
g6
S'hutG'
p8471
tp8472
as(S'AP53'
p8473
S'AP53_5'
p8474
S'AP53_5'
p8475
tp8476
(lp8477
(I3480
I4595
g6
S'ychF'
p8478
tp8479
as(S'AP53'
p8480
S'AP53_1135'
p8481
S'AP53_1135'
p8482
tp8483
(lp8484
(I1120974
I1122200
g6
g14
tp8485
as(S'AP53'
p8486
S'AP53_1279'
p8487
S'AP53_1279'
p8488
tp8489
(lp8490
(I1254712
I1255491
g6
g14
tp8491
as(S'AP53'
p8492
S'AP53_586'
p8493
S'AP53_586'
p8494
tp8495
(lp8496
(I599219
I600328
g6
S'rpoD'
p8497
tp8498
as(S'AP53'
p8499
S'AP53_1436'
p8500
S'AP53_1436'
p8501
tp8502
(lp8503
(I1414399
I1415241
g14
S'DegV'
p8504
tp8505
as(S'AP53'
p8506
S'AP53_14'
p8507
S'AP53_14'
p8508
tp8509
(lp8510
(I12805
I14784
g6
S'ftsH'
p8511
tp8512
as(S'AP53'
p8513
S'AP53_1008'
p8514
S'AP53_1008'
p8515
tp8516
(lp8517
(I1010209
I1010814
g14
g14
tp8518
as(S'AP53'
p8519
S'AP53_679'
p8520
S'AP53_679'
p8521
tp8522
(lp8523
(I672110
I673402
g6
S'capA'
p8524
tp8525
as(S'AP53'
p8526
S'AP53_113'
p8527
S'AP53_113'
p8528
tp8529
(lp8530
(I129789
I130973
g6
g14
tp8531
as(S'AP53'
p8532
S'AP53_1075'
p8533
S'AP53_1075'
p8534
tp8535
(lp8536
(I1059702
I1060958
g14
S'dltB'
p8537
tp8538
as(S'AP53'
p8539
S'AP53_809'
p8540
S'AP53_809'
p8541
tp8542
(lp8543
(I808286
I808918
g6
g14
tp8544
as(S'AP53'
p8545
S'AP53_1811'
p8546
S'AP53_1811'
p8547
tp8548
(lp8549
(I1802458
I1803399
g14
g14
tp8550
as(S'AP53'
p8551
S'AP53_1089'
p8552
S'AP53_1089'
p8553
tp8554
(lp8555
(I1075810
I1076505
g6
S'pnuC'
p8556
tp8557
as(S'AP53'
p8558
S'AP53_1564'
p8559
S'AP53_1564'
p8560
tp8561
(lp8562
(I1546312
I1547160
g14
S'gla'
p8563
tp8564
as(S'AP53'
p8565
S'AP53_510'
p8566
S'AP53_510'
p8567
tp8568
(lp8569
(I514219
I514707
g14
S'agaV'
p8570
tp8571
as(S'AP53'
p8572
S'AP53_581'
p8573
S'AP53_581'
p8574
tp8575
(lp8576
(I591839
I595507
g6
S'addA'
p8577
tp8578
as(S'AP53'
p8579
S'AP53_698'
p8580
S'AP53_698'
p8581
tp8582
(lp8583
(I694981
I695382
g6
g14
tp8584
as(S'AP53'
p8585
S'AP53_1189'
p8586
S'AP53_1189'
p8587
tp8588
(lp8589
(I1174672
I1175367
g14
g14
tp8590
as(S'AP53'
p8591
S'AP53_311'
p8592
S'AP53_311'
p8593
tp8594
(lp8595
(I332313
I332903
g6
S'clpP'
p8596
tp8597
as(S'AP53'
p8598
S'AP53_1437'
p8599
S'AP53_1437'
p8600
tp8601
(lp8602
(I1415534
I1416091
g6
S'acrR'
p8603
tp8604
as(S'AP53'
p8605
S'AP53_875'
p8606
S'AP53_875'
p8607
tp8608
(lp8609
(I875003
I875188
g14
g14
tp8610
as(S'AP53'
p8611
S'AP53_22'
p8612
S'AP53_22'
p8613
tp8614
(lp8615
(I36869
I40594
g6
S'purL'
p8616
tp8617
as(S'AP53'
p8618
S'AP53_84'
p8619
S'AP53_84'
p8620
tp8621
(lp8622
(I103079
I104065
g6
S'comGB'
p8623
tp8624
as(S'AP53'
p8625
S'AP53_1067'
p8626
S'AP53_1067'
p8627
tp8628
(lp8629
(I1053516
I1054877
g6
S'malF'
p8630
tp8631
as(S'AP53'
p8632
S'AP53_336'
p8633
S'AP53_336'
p8634
tp8635
(lp8636
(I354651
I355403
g14
S'spyA'
p8637
tp8638
as(S'AP53'
p8639
S'AP53_314'
p8640
S'AP53_314'
p8641
tp8642
(lp8643
(I334574
I335449
g6
S'dnaX'
p8644
tp8645
as(S'AP53'
p8646
S'AP53_1857'
p8647
S'AP53_1857'
p8648
tp8649
(lp8650
(I1849973
I1850098
g14
S'hypo23'
p8651
tp8652
as(S'AP53'
p8653
S'AP53_1461'
p8654
S'AP53_1461'
p8655
tp8656
(lp8657
(I1436226
I1437017
g14
g14
tp8658
as(S'AP53'
p8659
S'AP53_4'
p8660
S'AP53_4'
p8661
tp8662
(lp8663
(I3296
I3415
g14
g14
tp8664
as(S'AP53'
p8665
S'AP53_1286'
p8666
S'AP53_1286'
p8667
tp8668
(lp8669
(I1261488
I1262561
g6
S'aroB'
p8670
tp8671
as(S'AP53'
p8672
S'AP53_926'
p8673
S'AP53_926'
p8674
tp8675
(lp8676
(I926026
I927588
g6
S'guaA'
p8677
tp8678
as(S'AP53'
p8679
S'AP53_738'
p8680
S'AP53_738'
p8681
tp8682
(lp8683
(I732066
I734165
g14
S'clpL'
p8684
tp8685
as(S'AP53'
p8686
S'AP53_915'
p8687
S'AP53_915'
p8688
tp8689
(lp8690
(I913321
I914853
g6
S'citF'
p8691
tp8692
as(S'AP53'
p8693
S'AP53_637'
p8694
S'AP53_637'
p8695
tp8696
(lp8697
(I638977
I639246
g14
g14
tp8698
as(S'AP53'
p8699
S'AP53_1535'
p8700
S'AP53_1535'
p8701
tp8702
(lp8703
(I1518376
I1518828
g14
S'nusB'
p8704
tp8705
as(S'AP53'
p8706
S'AP53_279'
p8707
S'AP53_279'
p8708
tp8709
(lp8710
(I305907
I306830
g14
g14
tp8711
as(S'AP53'
p8712
S'AP53_911'
p8713
S'AP53_911'
p8714
tp8715
(lp8716
(I910826
I911947
g6
S'oadB'
p8717
tp8718
as(S'AP53'
p8719
S'AP53_1106'
p8720
S'AP53_1106'
p8721
tp8722
(lp8723
(I1088637
I1089149
g14
g14
tp8724
as(S'AP53'
p8725
S'AP53_1421'
p8726
S'AP53_1421'
p8727
tp8728
(lp8729
(I1396800
I1398299
g14
g14
tp8730
as(S'AP53'
p8731
S'AP53_1105'
p8732
S'AP53_1105'
p8733
tp8734
(lp8735
(I1088151
I1088552
g14
g14
tp8736
as(S'AP53'
p8737
S'AP53_1154'
p8738
S'AP53_1154'
p8739
tp8740
(lp8741
(I1140060
I1140293
g14
S'hypo12-1'
p8742
tp8743
as(S'AP53'
p8744
S'AP53_1553'
p8745
S'AP53_1553'
p8746
tp8747
(lp8748
(I1534136
I1534444
g14
g14
tp8749
as(S'AP53'
p8750
S'AP53_805'
p8751
S'AP53_805'
p8752
tp8753
(lp8754
(I804926
I805567
g6
g14
tp8755
as(S'AP53'
p8756
S'AP53_678'
p8757
S'AP53_678'
p8758
tp8759
(lp8760
(I670858
I672072
g6
S'thiI'
p8761
tp8762
as(S'AP53'
p8763
S'AP53_607'
p8764
S'AP53_607'
p8765
tp8766
(lp8767
(I616748
I617755
g14
S'hylP'
p8768
tp8769
as(S'AP53'
p8770
S'AP53_1167'
p8771
S'AP53_1167'
p8772
tp8773
(lp8774
(I1155495
I1156541
g14
S'ddl'
p8775
tp8776
as(S'AP53'
p8777
S'AP53_1816'
p8778
S'AP53_1816'
p8779
tp8780
(lp8781
(I1807618
I1808232
g6
S'cadD'
p8782
tp8783
as(S'AP53'
p8784
S'AP53_1617'
p8785
S'AP53_1617'
p8786
tp8787
(lp8788
(I1604865
I1606271
g14
S'lacG'
p8789
tp8790
as(S'AP53'
p8791
S'AP53_1668'
p8792
S'AP53_1668'
p8793
tp8794
(lp8795
(I1657528
I1658739
g14
S'sclA'
p8796
tp8797
as(S'AP53'
p8798
S'AP53_325'
p8799
S'AP53_325'
p8800
tp8801
(lp8802
(I341542
I341661
g6
S'hypo5'
p8803
tp8804
as(S'AP53'
p8805
S'AP53_1537'
p8806
S'AP53_1537'
p8807
tp8808
(lp8809
(I1519256
I1519813
g14
S'efp'
p8810
tp8811
as(S'AP53'
p8812
S'AP53_424'
p8813
S'AP53_424'
p8814
tp8815
(lp8816
(I428731
I428847
g6
g14
tp8817
as(S'AP53'
p8818
S'AP53_1589'
p8819
S'AP53_1589'
p8820
tp8821
(lp8822
(I1569862
I1570716
g14
S'lppC'
p8823
tp8824
as(S'AP53'
p8825
S'AP53_1199'
p8826
S'AP53_1199'
p8827
tp8828
(lp8829
(I1180813
I1181145
g14
g14
tp8830
as(S'AP53'
p8831
S'AP53_1469'
p8832
S'AP53_1469'
p8833
tp8834
(lp8835
(I1442204
I1443664
g14
g14
tp8836
as(S'AP53'
p8837
S'AP53_119'
p8838
S'AP53_119'
p8839
tp8840
(lp8841
(I135146
I135466
g6
g14
tp8842
as(S'AP53'
p8843
S'AP53_249'
p8844
S'AP53_249'
p8845
tp8846
(lp8847
(I273020
I273652
g6
S'nadD'
p8848
tp8849
as(S'AP53'
p8850
S'AP53_677'
p8851
S'AP53_677'
p8852
tp8853
(lp8854
(I669704
I670846
g6
S'nifS1'
p8855
tp8856
as(S'AP53'
p8857
S'AP53_71'
p8858
S'AP53_71'
p8859
tp8860
(lp8861
(I86444
I86572
g6
g14
tp8862
as(S'AP53'
p8863
S'AP53_225'
p8864
S'AP53_225'
p8865
tp8866
(lp8867
(I240695
I242170
g14
g14
tp8868
as(S'AP53'
p8869
S'AP53_1686'
p8870
S'AP53_1686'
p8871
tp8872
(lp8873
(I1678714
I1678914
g14
g14
tp8874
as(S'AP53'
p8875
S'AP53_836'
p8876
S'AP53_836'
p8877
tp8878
(lp8879
(I837862
I838446
g6
S'folE'
p8880
tp8881
as(S'AP53'
p8882
S'AP53_1198'
p8883
S'AP53_1198'
p8884
tp8885
(lp8886
(I1180304
I1180816
g14
g14
tp8887
as(S'AP53'
p8888
S'AP53_833'
p8889
S'AP53_833'
p8890
tp8891
(lp8892
(I833905
I835140
g6
g14
tp8893
as(S'AP53'
p8894
S'AP53_1528'
p8895
S'AP53_1528'
p8896
tp8897
(lp8898
(I1507050
I1508183
g14
g14
tp8899
as(S'AP53'
p8900
S'AP53_561'
p8901
S'AP53_561'
p8902
tp8903
(lp8904
(I572456
I572950
g6
S'atpF'
p8905
tp8906
as(S'AP53'
p8907
S'AP53_707'
p8908
S'AP53_707'
p8909
tp8910
(lp8911
(I702678
I703589
g6
S'fruB'
p8912
tp8913
as(S'AP53'
p8914
S'AP53_1116'
p8915
S'AP53_1116'
p8916
tp8917
(lp8918
(I1099470
I1100729
g14
S'murZ'
p8919
tp8920
as(S'AP53'
p8921
S'AP53_1267'
p8922
S'AP53_1267'
p8923
tp8924
(lp8925
(I1241592
I1242827
g14
S'arcA'
p8926
tp8927
as(S'AP53'
p8928
S'AP53_1306'
p8929
S'AP53_1306'
p8930
tp8931
(lp8932
(I1288855
I1290210
g14
S'rumA'
p8933
tp8934
as(S'AP53'
p8935
S'AP53_1815'
p8936
S'AP53_1815'
p8937
tp8938
(lp8939
(I1807176
I1807325
g6
S'rpmG'
p8940
tp8941
as(S'AP53'
p8942
S'AP53_290'
p8943
S'AP53_290'
p8944
tp8945
(lp8946
(I313507
I314211
g6
S'scpA'
p8947
tp8948
as(S'AP53'
p8949
S'AP53_390'
p8950
S'AP53_390'
p8951
tp8952
(lp8953
(I397912
I398661
g6
g14
tp8954
as(S'AP53'
p8955
S'AP53_81'
p8956
S'AP53_81'
p8957
tp8958
(lp8959
(I97951
I101547
g6
S'rpoC'
p8960
tp8961
as(S'AP53'
p8962
S'AP53_495'
p8963
S'AP53_495'
p8964
tp8965
(lp8966
(I498451
I498591
g14
g14
tp8967
as(S'AP53'
p8968
S'AP53_997'
p8969
S'AP53_997'
p8970
tp8971
(lp8972
(I1001329
I1002027
g6
g14
tp8973
as(S'AP53'
p8974
S'AP53_555'
p8975
S'AP53_555'
p8976
tp8977
(lp8978
(I564399
I567131
g6
g14
tp8979
as(S'AP53'
p8980
S'AP53_1519'
p8981
S'AP53_1519'
p8982
tp8983
(lp8984
(I1493918
I1494940
g14
S'fhuB-htsB'
p8985
tp8986
as(S'AP53'
p8987
S'AP53_596'
p8988
S'AP53_596'
p8989
tp8990
(lp8991
(I609993
I610202
g14
g14
tp8992
as(S'AP53'
p8993
S'AP53_445'
p8994
S'AP53_445'
p8995
tp8996
(lp8997
(I452559
I453548
g6
g14
tp8998
as(S'AP53'
p8999
S'AP53_1269'
p9000
S'AP53_1269'
p9001
tp9002
(lp9003
(I1243923
I1244396
g6
S'argR'
p9004
tp9005
as(S'AP53'
p9006
S'AP53_356'
p9007
S'AP53_356'
p9008
tp9009
(lp9010
(I371872
I372726
g6
S'mtsC'
p9011
tp9012
as(S'AP53'
p9013
S'AP53_1108'
p9014
S'AP53_1108'
p9015
tp9016
(lp9017
(I1091007
I1092458
g14
S'LytR-F1'
p9018
tp9019
as(S'AP53'
p9020
S'AP53_1406'
p9021
S'AP53_1406'
p9022
tp9023
(lp9024
(I1381260
I1382063
g14
S'yxeN'
p9025
tp9026
as(S'AP53'
p9027
S'AP53_1629'
p9028
S'AP53_1629'
p9029
tp9030
(lp9031
(I1614803
I1614952
g6
g14
tp9032
as(S'AP53'
p9033
S'AP53_1803'
p9034
S'AP53_1803'
p9035
tp9036
(lp9037
(I1793750
I1794298
g6
g14
tp9038
as(S'AP53'
p9039
S'AP53_720'
p9040
S'AP53_720'
p9041
tp9042
(lp9043
(I714825
I715043
g6
g14
tp9044
as(S'AP53'
p9045
S'AP53_1100'
p9046
S'AP53_1100'
p9047
tp9048
(lp9049
(I1083507
I1083620
g6
g14
tp9050
as(S'AP53'
p9051
S'AP53_1800'
p9052
S'AP53_1800'
p9053
tp9054
(lp9055
(I1791937
I1792425
g6
g14
tp9056
as(S'AP53'
p9057
S'AP53_1339'
p9058
S'AP53_1339'
p9059
tp9060
(lp9061
(I1318377
I1318502
g14
g14
tp9062
as(S'AP53'
p9063
S'AP53_1475'
p9064
S'AP53_1475'
p9065
tp9066
(lp9067
(I1448563
I1449696
g6
g14
tp9068
as(S'AP53'
p9069
S'AP53_1780'
p9070
S'AP53_1780'
p9071
tp9072
(lp9073
(I1776705
I1777925
g14
S'lmrP'
p9074
tp9075
as(S'AP53'
p9076
S'AP53_6'
p9077
S'AP53_6'
p9078
tp9079
(lp9080
(I4665
I5234
g6
S'pth'
p9081
tp9082
as(S'AP53'
p9083
S'AP53_1427'
p9084
S'AP53_1427'
p9085
tp9086
(lp9087
(I1404187
I1404531
g14
S'hypo18'
p9088
tp9089
as(S'AP53'
p9090
S'AP53_1476'
p9091
S'AP53_1476'
p9092
tp9093
(lp9094
(I1450101
I1451378
g6
S'serS'
p9095
tp9096
as(S'AP53'
p9097
S'AP53_1584'
p9098
S'AP53_1584'
p9099
tp9100
(lp9101
(I1563927
I1565609
g6
S'rnjA'
p9102
tp9103
as(S'AP53'
p9104
S'AP53_670'
p9105
S'AP53_670'
p9106
tp9107
(lp9108
(I662561
I663724
g6
g14
tp9109
as(S'AP53'
p9110
S'AP53_83'
p9111
S'AP53_83'
p9112
tp9113
(lp9114
(I102157
I103095
g6
S'comGA'
p9115
tp9116
as(S'AP53'
p9117
S'AP53_1133'
p9118
S'AP53_1133'
p9119
tp9120
(lp9121
(I1119702
I1119827
g14
g14
tp9122
as(S'AP53'
p9123
S'AP53_1114'
p9124
S'AP53_1114'
p9125
tp9126
(lp9127
(I1097679
I1098221
g14
S'rimL'
p9128
tp9129
as(S'AP53'
p9130
S'AP53_1829'
p9131
S'AP53_1829'
p9132
tp9133
(lp9134
(I1819108
I1819719
g14
S'rpsD'
p9135
tp9136
as(S'AP53'
p9137
S'AP53_248'
p9138
S'AP53_248'
p9139
tp9140
(lp9141
(I272643
I272951
g6
g14
tp9142
as(S'AP53'
p9143
S'AP53_807'
p9144
S'AP53_807'
p9145
tp9146
(lp9147
(I806770
I807522
g6
g14
tp9148
as(S'AP53'
p9149
S'AP53_1824'
p9150
S'AP53_1824'
p9151
tp9152
(lp9153
(I1813921
I1814247
g6
g14
tp9154
as(S'AP53'
p9155
S'AP53_1174'
p9156
S'AP53_1174'
p9157
tp9158
(lp9159
(I1160985
I1161101
g6
g14
tp9160
as(S'AP53'
p9161
S'AP53_872'
p9162
S'AP53_872'
p9163
tp9164
(lp9165
(I872084
I872665
g6
S'xpt'
p9166
tp9167
as(S'AP53'
p9168
S'AP53_1552'
p9169
S'AP53_1552'
p9170
tp9171
(lp9172
(I1533588
I1534133
g14
g14
tp9173
as(S'AP53'
p9174
S'AP53_104'
p9175
S'AP53_104'
p9176
tp9177
(lp9178
(I119345
I119743
g6
g14
tp9179
as(S'AP53'
p9180
S'AP53_1635'
p9181
S'AP53_1635'
p9182
tp9183
(lp9184
(I1617951
I1618433
g14
g14
tp9185
as(S'AP53'
p9186
S'AP53_1160'
p9187
S'AP53_1160'
p9188
tp9189
(lp9190
(I1146217
I1146993
g6
g14
tp9191
as(S'AP53'
p9192
S'AP53_1575'
p9193
S'AP53_1575'
p9194
tp9195
(lp9196
(I1556907
I1557578
g14
S'deoC'
p9197
tp9198
as(S'AP53'
p9199
S'AP53_726'
p9200
S'AP53_726'
p9201
tp9202
(lp9203
(I720945
I721757
g6
S'mvaK1'
p9204
tp9205
as(S'AP53'
p9206
S'AP53_1835'
p9207
S'AP53_1835'
p9208
tp9209
(lp9210
(I1825975
I1827873
g14
S'gidA'
p9211
tp9212
as(S'AP53'
p9213
S'AP53_1170'
p9214
S'AP53_1170'
p9215
tp9216
(lp9217
(I1158930
I1159472
g14
g14
tp9218
as(S'AP53'
p9219
S'AP53_1296'
p9220
S'AP53_1296'
p9221
tp9222
(lp9223
(I1274772
I1275698
g14
g14
tp9224
as(S'AP53'
p9225
S'AP53_1361'
p9226
S'AP53_1361'
p9227
tp9228
(lp9229
(I1328118
I1328459
g6
g14
tp9230
as(S'AP53'
p9231
S'AP53_1139'
p9232
S'AP53_1139'
p9233
tp9234
(lp9235
(I1124258
I1125019
g14
g14
tp9236
as(S'AP53'
p9237
S'AP53_1628'
p9238
S'AP53_1628'
p9239
tp9240
(lp9241
(I1614265
I1614441
g6
g14
tp9242
as(S'AP53'
p9243
S'AP53_1162'
p9244
S'AP53_1162'
p9245
tp9246
(lp9247
(I1147285
I1149285
g14
g14
tp9248
as(S'AP53'
p9249
S'AP53_150'
p9250
S'AP53_150'
p9251
tp9252
(lp9253
(I169790
I171517
g6
S'opuBC'
p9254
tp9255
as(S'AP53'
p9256
S'AP53_1746'
p9257
S'AP53_1746'
p9258
tp9259
(lp9260
(I1741479
I1742378
g6
S'ftcD'
p9261
tp9262
as(S'AP53'
p9263
S'AP53_1188'
p9264
S'AP53_1188'
p9265
tp9266
(lp9267
(I1172714
I1174675
g14
S'pblB'
p9268
tp9269
as(S'AP53'
p9270
S'AP53_505'
p9271
S'AP53_505'
p9272
tp9273
(lp9274
(I506793
I509474
g6
S'pacL'
p9275
tp9276
as(S'AP53'
p9277
S'AP53_180'
p9278
S'AP53_180'
p9279
tp9280
(lp9281
(I195407
I195526
g6
g14
tp9282
as(S'AP53'
p9283
S'AP53_1665'
p9284
S'AP53_1665'
p9285
tp9286
(lp9287
(I1653179
I1654501
g6
S'ska'
p9288
tp9289
as(S'AP53'
p9290
S'AP53_998'
p9291
S'AP53_998'
p9292
tp9293
(lp9294
(I1002037
I1002822
g6
g14
tp9295
as(S'AP53'
p9296
S'AP53_1684'
p9297
S'AP53_1684'
p9298
tp9299
(lp9300
(I1677219
I1678022
g6
S'dppD'
p9301
tp9302
as(S'AP53'
p9303
S'AP53_862'
p9304
S'AP53_862'
p9305
tp9306
(lp9307
(I862034
I862612
g14
g14
tp9308
as(S'AP53'
p9309
S'AP53_449'
p9310
S'AP53_449'
p9311
tp9312
(lp9313
(I456992
I457150
g14
g14
tp9314
as(S'AP53'
p9315
S'AP53_1137'
p9316
S'AP53_1137'
p9317
tp9318
(lp9319
(I1122622
I1123452
g6
g14
tp9320
as(S'AP53'
p9321
S'AP53_1509'
p9322
S'AP53_1509'
p9323
tp9324
(lp9325
(I1481389
I1482354
g6
S'asnB'
p9326
tp9327
as(S'AP53'
p9328
S'AP53_745'
p9329
S'AP53_745'
p9330
tp9331
(lp9332
(I739902
I740039
g6
g14
tp9333
as(S'AP53'
p9334
S'AP53_411'
p9335
S'AP53_411'
p9336
tp9337
(lp9338
(I415517
I417832
g6
S'vacB'
p9339
tp9340
as(S'AP53'
p9341
S'AP53_803'
p9342
S'AP53_803'
p9343
tp9344
(lp9345
(I802437
I803393
g6
g14
tp9346
as(S'AP53'
p9347
S'AP53_1593'
p9348
S'AP53_1593'
p9349
tp9350
(lp9351
(I1574255
I1574443
g14
S'rpmB'
p9352
tp9353
as(S'AP53'
p9354
S'AP53_585'
p9355
S'AP53_585'
p9356
tp9357
(lp9358
(I597423
I599210
g6
S'dnaG'
p9359
tp9360
as(S'AP53'
p9361
S'AP53_1417'
p9362
S'AP53_1417'
p9363
tp9364
(lp9365
(I1392599
I1393333
g14
g14
tp9366
as(S'AP53'
p9367
S'AP53_1424'
p9368
S'AP53_1424'
p9369
tp9370
(lp9371
(I1400447
I1402285
g14
S'glpO'
p9372
tp9373
as(S'AP53'
p9374
S'AP53_1613'
p9375
S'AP53_1613'
p9376
tp9377
(lp9378
(I1600672
I1601313
g14
g14
tp9379
as(S'AP53'
p9380
S'AP53_1032'
p9381
S'AP53_1032'
p9382
tp9383
(lp9384
(I1030964
I1031149
g14
g14
tp9385
as(S'AP53'
p9386
S'AP53_725'
p9387
S'AP53_725'
p9388
tp9389
(lp9390
(I719353
I720585
g6
g14
tp9391
as(S'AP53'
p9392
S'AP53_877'
p9393
S'AP53_877'
p9394
tp9395
(lp9396
(I875930
I877009
g6
S'prfA'
p9397
tp9398
as(S'AP53'
p9399
S'AP53_967'
p9400
S'AP53_967'
p9401
tp9402
(lp9403
(I969214
I969618
g14
S'spxA'
p9404
tp9405
as(S'AP53'
p9406
S'AP53_1633'
p9407
S'AP53_1633'
p9408
tp9409
(lp9410
(I1616352
I1616858
g14
g14
tp9411
as(S'AP53'
p9412
S'AP53_1548'
p9413
S'AP53_1548'
p9414
tp9415
(lp9416
(I1529562
I1530149
g6
g14
tp9417
as(S'AP53'
p9418
S'AP53_1245'
p9419
S'AP53_1245'
p9420
tp9421
(lp9422
(I1220649
I1221731
g14
S'murG'
p9423
tp9424
as(S'AP53'
p9425
S'AP53_109'
p9426
S'AP53_109'
p9427
tp9428
(lp9429
(I123889
I126090
g6
S'prtF2/fbaB'
p9430
tp9431
as(S'AP53'
p9432
S'AP53_1827'
p9433
S'AP53_1827'
p9434
tp9435
(lp9436
(I1816013
I1818286
g14
g14
tp9437
as(S'AP53'
p9438
S'AP53_1451'
p9439
S'AP53_1451'
p9440
tp9441
(lp9442
(I1426373
I1426828
g14
S'copY'
p9443
tp9444
as(S'AP53'
p9445
S'AP53_605'
p9446
S'AP53_605'
p9447
tp9448
(lp9449
(I614394
I614822
g14
g14
tp9450
as(S'AP53'
p9451
S'AP53_1377'
p9452
S'AP53_1377'
p9453
tp9454
(lp9455
(I1349549
I1351447
g14
S'stk1'
p9456
tp9457
as(S'AP53'
p9458
S'AP53_1612'
p9459
S'AP53_1612'
p9460
tp9461
(lp9462
(I1599561
I1600658
g14
S'salK'
p9463
tp9464
as(S'AP53'
p9465
S'AP53_469'
p9466
S'AP53_469'
p9467
tp9468
(lp9469
(I474676
I474831
g14
g14
tp9470
as(S'AP53'
p9471
S'AP53_1237'
p9472
S'AP53_1237'
p9473
tp9474
(lp9475
(I1213422
I1214180
g14
S'divIVA'
p9476
tp9477
as(S'AP53'
p9478
S'AP53_566'
p9479
S'AP53_566'
p9480
tp9481
(lp9482
(I577482
I577898
g6
S'atpC'
p9483
tp9484
as(S'AP53'
p9485
S'AP53_914'
p9486
S'AP53_914'
p9487
tp9488
(lp9489
(I912431
I913318
g6
S'citE'
p9490
tp9491
as(S'AP53'
p9492
S'AP53_831'
p9493
S'AP53_831'
p9494
tp9495
(lp9496
(I832736
I833236
g6
S'rplJ'
p9497
tp9498
as(S'AP53'
p9499
S'AP53_347'
p9500
S'AP53_347'
p9501
tp9502
(lp9503
(I364322
I365659
g6
S'glpT'
p9504
tp9505
as(S'AP53'
p9506
S'AP53_1708'
p9507
S'AP53_1708'
p9508
tp9509
(lp9510
(I1704879
I1705097
g14
S'spi'
p9511
tp9512
as(S'AP53'
p9513
S'AP53_1304'
p9514
S'AP53_1304'
p9515
tp9516
(lp9517
(I1284029
I1286734
g6
S'ams1'
p9518
tp9519
as(S'AP53'
p9520
S'AP53_1580'
p9521
S'AP53_1580'
p9522
tp9523
(lp9524
(I1561268
I1562296
g14
S'gcp'
p9525
tp9526
as(S'AP53'
p9527
S'AP53_547'
p9528
S'AP53_547'
p9529
tp9530
(lp9531
(I556868
I557926
g6
S'sagC'
p9532
tp9533
as(S'AP53'
p9534
S'AP53_63'
p9535
S'AP53_63'
p9536
tp9537
(lp9538
(I74405
I75709
g6
S'secY'
p9539
tp9540
as(S'AP53'
p9541
S'AP53_1569'
p9542
S'AP53_1569'
p9543
tp9544
(lp9545
(I1552458
I1552832
g6
g14
tp9546
as(S'AP53'
p9547
S'AP53_859'
p9548
S'AP53_859'
p9549
tp9550
(lp9551
(I859453
I859800
g14
g14
tp9552
as(S'AP53'
p9553
S'AP53_471'
p9554
S'AP53_471'
p9555
tp9556
(lp9557
(I477184
I477621
g6
g14
tp9558
as(S'AP53'
p9559
S'AP53_612'
p9560
S'AP53_612'
p9561
tp9562
(lp9563
(I624909
I625211
g14
g14
tp9564
as(S'AP53'
p9565
S'AP53_687'
p9566
S'AP53_687'
p9567
tp9568
(lp9569
(I678129
I679388
g6
S'pyrP'
p9570
tp9571
as(S'AP53'
p9572
S'AP53_1574'
p9573
S'AP53_1574'
p9574
tp9575
(lp9576
(I1555641
I1556810
g6
g14
tp9577
as(S'AP53'
p9578
S'AP53_1736'
p9579
S'AP53_1736'
p9580
tp9581
(lp9582
(I1729209
I1730840
g14
S'groEL'
p9583
tp9584
as(S'AP53'
p9585
S'AP53_1430'
p9586
S'AP53_1430'
p9587
tp9588
(lp9589
(I1407534
I1408451
g14
S'glyQ'
p9590
tp9591
as(S'AP53'
p9592
S'AP53_201'
p9593
S'AP53_201'
p9594
tp9595
(lp9596
(I215766
I216470
g6
S'nanE'
p9597
tp9598
as(S'AP53'
p9599
S'AP53_644'
p9600
S'AP53_644'
p9601
tp9602
(lp9603
(I641802
I643142
g14
S'dnaB'
p9604
tp9605
as(S'AP53'
p9606
S'AP53_783'
p9607
S'AP53_783'
p9608
tp9609
(lp9610
(I776390
I777571
g6
g14
tp9611
as(S'AP53'
p9612
S'AP53_736'
p9613
S'AP53_736'
p9614
tp9615
(lp9616
(I730518
I731117
g6
S'engB'
p9617
tp9618
as(S'AP53'
p9619
S'AP53_487'
p9620
S'AP53_487'
p9621
tp9622
(lp9623
(I488841
I489404
g14
g14
tp9624
as(S'AP53'
p9625
S'AP53_399'
p9626
S'AP53_399'
p9627
tp9628
(lp9629
(I406274
I407035
g6
g14
tp9630
as(S'AP53'
p9631
S'AP53_30'
p9632
S'AP53_30'
p9633
tp9634
(lp9635
(I49169
I50242
g6
S'purK'
p9636
tp9637
as(S'AP53'
p9638
S'AP53_1079'
p9639
S'AP53_1079'
p9640
tp9641
(lp9642
(I1065096
I1067270
g6
S'glnPH'
p9643
tp9644
as(S'AP53'
p9645
S'AP53_1719'
p9646
S'AP53_1719'
p9647
tp9648
(lp9649
(I1714630
I1715934
g14
S'celB'
p9650
tp9651
as(S'AP53'
p9652
S'AP53_1616'
p9653
S'AP53_1616'
p9654
tp9655
(lp9656
(I1604207
I1604353
g14
S'salA'
p9657
tp9658
as(S'AP53'
p9659
S'AP53_1331'
p9660
S'AP53_1331'
p9661
tp9662
(lp9663
(I1310747
I1310974
g14
g14
tp9664
as(S'AP53'
p9665
S'AP53_483'
p9666
S'AP53_483'
p9667
tp9668
(lp9669
(I484631
I486124
g14
S'lysS'
p9670
tp9671
as(S'AP53'
p9672
S'AP53_506'
p9673
S'AP53_506'
p9674
tp9675
(lp9676
(I509558
I510553
g14
S'regR'
p9677
tp9678
as(S'AP53'
p9679
S'AP53_1562'
p9680
S'AP53_1562'
p9681
tp9682
(lp9683
(I1544030
I1544782
g14
S'cppA'
p9684
tp9685
as(S'AP53'
p9686
S'AP53_176'
p9687
S'AP53_176'
p9688
tp9689
(lp9690
(I191564
I191683
g6
g14
tp9691
as(S'AP53'
p9692
S'AP53_162'
p9693
S'AP53_162'
p9694
tp9695
(lp9696
(I181074
I181946
g6
S'nadC'
p9697
tp9698
as(S'AP53'
p9699
S'AP53_377'
p9700
S'AP53_377'
p9701
tp9702
(lp9703
(I391229
I391939
g14
g14
tp9704
as(S'AP53'
p9705
S'AP53_374'
p9706
S'AP53_374'
p9707
tp9708
(lp9709
(I388923
I389399
g6
g14
tp9710
as(S'AP53'
p9711
S'AP53_3'
p9712
S'AP53_3'
p9713
tp9714
(lp9715
(I2953
I3150
g6
g14
tp9716
as(S'AP53'
p9717
S'AP53_1060'
p9718
S'AP53_1060'
p9719
tp9720
(lp9721
(I1044189
I1044377
g6
g14
tp9722
as(S'AP53'
p9723
S'AP53_774'
p9724
S'AP53_774'
p9725
tp9726
(lp9727
(I768813
I769496
g6
S'dnaD'
p9728
tp9729
as(S'AP53'
p9730
S'AP53_995'
p9731
S'AP53_995'
p9732
tp9733
(lp9734
(I997663
I1000773
g14
S'dnaE'
p9735
tp9736
as(S'AP53'
p9737
S'AP53_296'
p9738
S'AP53_296'
p9739
tp9740
(lp9741
(I317465
I318106
g6
g14
tp9742
as(S'AP53'
p9743
S'AP53_1681'
p9744
S'AP53_1681'
p9745
tp9746
(lp9747
(I1673671
I1675299
g6
S'dppA'
p9748
tp9749
as(S'AP53'
p9750
S'AP53_98'
p9751
S'AP53_98'
p9752
tp9753
(lp9754
(I112402
I112797
g6
g14
tp9755
as(S'AP53'
p9756
S'AP53_1809'
p9757
S'AP53_1809'
p9758
tp9759
(lp9760
(I1800645
I1801517
g14
g14
tp9761
as(S'AP53'
p9762
S'AP53_941'
p9763
S'AP53_941'
p9764
tp9765
(lp9766
(I942364
I943563
g14
g14
tp9767
as(S'AP53'
p9768
S'AP53_155'
p9769
S'AP53_155'
p9770
tp9771
(lp9772
(I176128
I177462
g6
g14
tp9773
as(S'AP53'
p9774
S'AP53_1497'
p9775
S'AP53_1497'
p9776
tp9777
(lp9778
(I1470012
I1470251
g14
g14
tp9779
as(S'AP53'
p9780
S'AP53_32'
p9781
S'AP53_32'
p9782
tp9783
(lp9784
(I51584
I51697
g6
g14
tp9785
as(S'AP53'
p9786
S'AP53_1852'
p9787
S'AP53_1852'
p9788
tp9789
(lp9790
(I1844426
I1844839
g6
g14
tp9791
as(S'AP53'
p9792
S'AP53_1807'
p9793
S'AP53_1807'
p9794
tp9795
(lp9796
(I1798531
I1800222
g6
S'argS'
p9797
tp9798
as(S'AP53'
p9799
S'AP53_1477'
p9800
S'AP53_1477'
p9801
tp9802
(lp9803
(I1451600
I1452370
g14
S'accA'
p9804
tp9805
as(S'AP53'
p9806
S'AP53_834'
p9807
S'AP53_834'
p9808
tp9809
(lp9810
(I835256
I836218
g14
g14
tp9811
as(S'AP53'
p9812
S'AP53_786'
p9813
S'AP53_786'
p9814
tp9815
(lp9816
(I780578
I780691
g6
g14
tp9817
as(S'AP53'
p9818
S'AP53_1084'
p9819
S'AP53_1084'
p9820
tp9821
(lp9822
(I1070310
I1070645
g14
S'celC'
p9823
tp9824
as(S'AP53'
p9825
S'AP53_333'
p9826
S'AP53_333'
p9827
tp9828
(lp9829
(I350794
I351807
g6
S'nrdF'
p9830
tp9831
as(S'AP53'
p9832
S'AP53_1053'
p9833
S'AP53_1053'
p9834
tp9835
(lp9836
(I1041364
I1041609
g14
g14
tp9837
as(S'AP53'
p9838
S'AP53_397'
p9839
S'AP53_397'
p9840
tp9841
(lp9842
(I404963
I405091
g6
S'silD'
p9843
tp9844
as(S'AP53'
p9845
S'AP53_1541'
p9846
S'AP53_1541'
p9847
tp9848
(lp9849
(I1524625
I1525569
g6
S'corA'
p9850
tp9851
as(S'AP53'
p9852
S'AP53_1168'
p9853
S'AP53_1168'
p9854
tp9855
(lp9856
(I1156642
I1157238
g14
S'recR'
p9857
tp9858
as(S'AP53'
p9859
S'AP53_1443'
p9860
S'AP53_1443'
p9861
tp9862
(lp9863
(I1419254
I1419769
g14
S'lacB1'
p9864
tp9865
as(S'AP53'
p9866
S'AP53_880'
p9867
S'AP53_880'
p9868
tp9869
(lp9870
(I878440
I878892
g6
S'pat'
p9871
tp9872
as(S'AP53'
p9873
S'AP53_1554'
p9874
S'AP53_1554'
p9875
tp9876
(lp9877
(I1534601
I1535503
g6
S'rnhC'
p9878
tp9879
as(S'AP53'
p9880
S'AP53_1696'
p9881
S'AP53_1696'
p9882
tp9883
(lp9884
(I1691942
I1693543
g14
S'mga'
p9885
tp9886
as(S'AP53'
p9887
S'AP53_114'
p9888
S'AP53_114'
p9889
tp9890
(lp9891
(I130985
I131644
g6
S'atoD2'
p9892
tp9893
as(S'AP53'
p9894
S'AP53_468'
p9895
S'AP53_468'
p9896
tp9897
(lp9898
(I473626
I474528
g14
g14
tp9899
as(S'AP53'
p9900
S'AP53_575'
p9901
S'AP53_575'
p9902
tp9903
(lp9904
(I584901
I585278
g6
g14
tp9905
as(S'AP53'
p9906
S'AP53_1448'
p9907
S'AP53_1448'
p9908
tp9909
(lp9910
(I1422951
I1423721
g6
S'lacR1'
p9911
tp9912
as(S'AP53'
p9913
S'AP53_1077'
p9914
S'AP53_1077'
p9915
tp9916
(lp9917
(I1062505
I1062648
g14
g14
tp9918
as(S'AP53'
p9919
S'AP53_436'
p9920
S'AP53_436'
p9921
tp9922
(lp9923
(I441313
I442005
g6
S'rnc'
p9924
tp9925
as(S'AP53'
p9926
S'AP53_287'
p9927
S'AP53_287'
p9928
tp9929
(lp9930
(I311785
I312306
g6
g14
tp9931
as(S'AP53'
p9932
S'AP53_1123'
p9933
S'AP53_1123'
p9934
tp9935
(lp9936
(I1108724
I1109533
g6
g14
tp9937
as(S'AP53'
p9938
S'AP53_681'
p9939
S'AP53_681'
p9940
tp9941
(lp9942
(I673942
I674268
g6
g14
tp9943
as(S'AP53'
p9944
S'AP53_1418'
p9945
S'AP53_1418'
p9946
tp9947
(lp9948
(I1393367
I1393633
g14
g14
tp9949
as(S'AP53'
p9950
S'AP53_1573'
p9951
S'AP53_1573'
p9952
tp9953
(lp9954
(I1554906
I1555436
g14
g14
tp9955
as(S'AP53'
p9956
S'AP53_1109'
p9957
S'AP53_1109'
p9958
tp9959
(lp9960
(I1092666
I1093157
g14
S'aroK'
p9961
tp9962
as(S'AP53'
p9963
S'AP53_1158'
p9964
S'AP53_1158'
p9965
tp9966
(lp9967
(I1144497
I1145159
g14
S'comEA'
p9968
tp9969
as(S'AP53'
p9970
S'AP53_354'
p9971
S'AP53_354'
p9972
tp9973
(lp9974
(I370150
I371082
g6
S'mtsA'
p9975
tp9976
as(S'AP53'
p9977
S'AP53_1619'
p9978
S'AP53_1619'
p9979
tp9980
(lp9981
(I1608056
I1608373
g14
S'lacF'
p9982
tp9983
as(S'AP53'
p9984
S'AP53_751'
p9985
S'AP53_751'
p9986
tp9987
(lp9988
(I745090
I745953
g6
S'yckB'
p9989
tp9990
as(S'AP53'
p9991
S'AP53_1495'
p9992
S'AP53_1495'
p9993
tp9994
(lp9995
(I1468180
I1468923
g14
g14
tp9996
as(S'AP53'
p9997
S'AP53_557'
p9998
S'AP53_557'
p9999
tp10000
(lp10001
(I568103
I570061
g6
S'ligA'
p10002
tp10003
as(S'AP53'
p10004
S'AP53_501'
p10005
S'AP53_501'
p10006
tp10007
(lp10008
(I503529
I504338
g14
S'yidA'
p10009
tp10010
as(S'AP53'
p10011
S'AP53_1146'
p10012
S'AP53_1146'
p10013
tp10014
(lp10015
(I1132060
I1133865
g14
S'pepB'
p10016
tp10017
as(S'AP53'
p10018
S'AP53_1774'
p10019
S'AP53_1774'
p10020
tp10021
(lp10022
(I1771899
I1772168
g14
g14
tp10023
as(S'AP53'
p10024
S'AP53_950'
p10025
S'AP53_950'
p10026
tp10027
(lp10028
(I952244
I953296
g14
g14
tp10029
as(S'AP53'
p10030
S'AP53_313'
p10031
S'AP53_313'
p10032
tp10033
(lp10034
(I333921
I334556
g6
S'tmk'
p10035
tp10036
as(S'AP53'
p10037
S'AP53_1866'
p10038
S'AP53_1866'
p10039
tp10040
(lp10041
(I609615
I609794
g14
S'ptx'
p10042
tp10043
as(S'AP53'
p10044
S'AP53_1634'
p10045
S'AP53_1634'
p10046
tp10047
(lp10048
(I1616994
I1617854
g14
g14
tp10049
as(S'AP53'
p10050
S'AP53_1844'
p10051
S'AP53_1844'
p10052
tp10053
(lp10054
(I1835915
I1836457
g14
S'pgsA'
p10055
tp10056
as(S'AP53'
p10057
S'AP53_1839'
p10058
S'AP53_1839'
p10059
tp10060
(lp10061
(I1831192
I1832064
g6
S'sdhA'
p10062
tp10063
as(S'AP53'
p10064
S'AP53_146'
p10065
S'AP53_146'
p10066
tp10067
(lp10068
(I164071
I164775
g6
S'araD'
p10069
tp10070
as(S'AP53'
p10071
S'AP53_955'
p10072
S'AP53_955'
p10073
tp10074
(lp10075
(I956638
I957948
g14
S'ciaH'
p10076
tp10077
as(S'AP53'
p10078
S'AP53_177'
p10079
S'AP53_177'
p10080
tp10081
(lp10082
(I191780
I193129
g6
S'pgi'
p10083
tp10084
as(S'AP53'
p10085
S'AP53_1689'
p10086
S'AP53_1689'
p10087
tp10088
(lp10089
(I1682547
I1682660
g6
g14
tp10090
as(S'AP53'
p10091
S'AP53_1551'
p10092
S'AP53_1551'
p10093
tp10094
(lp10095
(I1531100
I1533448
g14
g14
tp10096
as(S'AP53'
p10097
S'AP53_1529'
p10098
S'AP53_1529'
p10099
tp10100
(lp10101
(I1508344
I1509297
g14
S'pmi'
p10102
tp10103
as(S'AP53'
p10104
S'AP53_237'
p10105
S'AP53_237'
p10106
tp10107
(lp10108
(I254258
I255490
g14
S'dacA2'
p10109
tp10110
as(S'AP53'
p10111
S'AP53_99'
p10112
S'AP53_99'
p10113
tp10114
(lp10115
(I113057
I113698
g14
g14
tp10116
as(S'AP53'
p10117
S'AP53_1652'
p10118
S'AP53_1652'
p10119
tp10120
(lp10121
(I1633130
I1633672
g14
g14
tp10122
as(S'AP53'
p10123
S'AP53_1069'
p10124
S'AP53_1069'
p10125
tp10126
(lp10127
(I1055894
I1056163
g6
g14
tp10128
as(S'AP53'
p10129
S'AP53_1246'
p10130
S'AP53_1246'
p10131
tp10132
(lp10133
(I1221731
I1223089
g14
S'murD'
p10134
tp10135
as(S'AP53'
p10136
S'AP53_1222'
p10137
S'AP53_1222'
p10138
tp10139
(lp10140
(I1196463
I1196933
g14
S'argR'
p10141
tp10142
as(S'AP53'
p10143
S'AP53_1512'
p10144
S'AP53_1512'
p10145
tp10146
(lp10147
(I1484614
I1486629
g14
S'recG'
p10148
tp10149
as(S'AP53'
p10150
S'AP53_1187'
p10151
S'AP53_1187'
p10152
tp10153
(lp10154
(I1171602
I1172717
g14
S'hylP'
p10155
tp10156
as(S'AP53'
p10157
S'AP53_1579'
p10158
S'AP53_1579'
p10159
tp10160
(lp10161
(I1560828
I1561097
g6
S'rpsN'
p10162
tp10163
as(S'AP53'
p10164
S'AP53_1790'
p10165
S'AP53_1790'
p10166
tp10167
(lp10168
(I1786839
I1787180
g6
g14
tp10169
as(S'AP53'
p10170
S'AP53_1471'
p10171
S'AP53_1471'
p10172
tp10173
(lp10174
(I1445092
I1446084
g6
S'manL'
p10175
tp10176
as(S'AP53'
p10177
S'AP53_1233'
p10178
S'AP53_1233'
p10179
tp10180
(lp10181
(I1206865
I1209147
g6
S'clpE'
p10182
tp10183
as(S'AP53'
p10184
S'AP53_1571'
p10185
S'AP53_1571'
p10186
tp10187
(lp10188
(I1553380
I1554117
g14
g14
tp10189
as(S'AP53'
p10190
S'AP53_1398'
p10191
S'AP53_1398'
p10192
tp10193
(lp10194
(I1371046
I1373220
g6
S'pbp1A'
p10195
tp10196
as(S'AP53'
p10197
S'AP53_983'
p10198
S'AP53_983'
p10199
tp10200
(lp10201
(I982432
I984750
g14
S'pcrA'
p10202
tp10203
as(S'AP53'
p10204
S'AP53_1592'
p10205
S'AP53_1592'
p10206
tp10207
(lp10208
(I1573738
I1574103
g14
S'asp'
p10209
tp10210
as(S'AP53'
p10211
S'AP53_565'
p10212
S'AP53_565'
p10213
tp10214
(lp10215
(I576063
I577469
g6
S'atpD'
p10216
tp10217
as(S'AP53'
p10218
S'AP53_1572'
p10219
S'AP53_1572'
p10220
tp10221
(lp10222
(I1554270
I1554857
g14
S'dnaQ'
p10223
tp10224
as(S'AP53'
p10225
S'AP53_24'
p10226
S'AP53_24'
p10227
tp10228
(lp10229
(I42237
I43259
g6
S'purM'
p10230
tp10231
as(S'AP53'
p10232
S'AP53_539'
p10233
S'AP53_539'
p10234
tp10235
(lp10236
(I545385
I546647
g6
g14
tp10237
as(S'AP53'
p10238
S'AP53_1356'
p10239
S'AP53_1356'
p10240
tp10241
(lp10242
(I1325950
I1326201
g14
g14
tp10243
as(S'AP53'
p10244
S'AP53_853'
p10245
S'AP53_853'
p10246
tp10247
(lp10248
(I855200
I855814
g6
g14
tp10249
as(S'AP53'
p10250
S'AP53_1701'
p10251
S'AP53_1701'
p10252
tp10253
(lp10254
(I1698410
I1699627
g14
S'salY'
p10255
tp10256
as(S'AP53'
p10257
S'AP53_1006'
p10258
S'AP53_1006'
p10259
tp10260
(lp10261
(I1009069
I1009626
g14
g14
tp10262
as(S'AP53'
p10263
S'AP53_1819'
p10264
S'AP53_1819'
p10265
tp10266
(lp10267
(I1809622
I1810374
g6
g14
tp10268
as(S'AP53'
p10269
S'AP53_230'
p10270
S'AP53_230'
p10271
tp10272
(lp10273
(I247344
I247469
g6
g14
tp10274
as(S'AP53'
p10275
S'AP53_255'
p10276
S'AP53_255'
p10277
tp10278
(lp10279
(I278171
I279013
g6
S'atmA'
p10280
tp10281
as(S'AP53'
p10282
S'AP53_697'
p10283
S'AP53_697'
p10284
tp10285
(lp10286
(I691920
I694961
g6
g14
tp10287
as(S'AP53'
p10288
S'AP53_153'
p10289
S'AP53_153'
p10290
tp10291
(lp10292
(I174984
I175451
g6
S'perR'
p10293
tp10294
as(S'AP53'
p10295
S'AP53_1091'
p10296
S'AP53_1091'
p10297
tp10298
(lp10299
(I1076737
I1078050
g14
g14
tp10300
as(S'AP53'
p10301
S'AP53_1344'
p10302
S'AP53_1344'
p10303
tp10304
(lp10305
(I1320588
I1320719
g14
g14
tp10306
as(S'AP53'
p10307
S'AP53_653'
p10308
S'AP53_653'
p10309
tp10310
(lp10311
(I646817
I647209
g6
g14
tp10312
as(S'AP53'
p10313
S'AP53_514'
p10314
S'AP53_514'
p10315
tp10316
(lp10317
(I517523
I518164
g6
g14
tp10318
as(S'AP53'
p10319
S'AP53_1102'
p10320
S'AP53_1102'
p10321
tp10322
(lp10323
(I1084483
I1084848
g6
g14
tp10324
as(S'AP53'
p10325
S'AP53_1773'
p10326
S'AP53_1773'
p10327
tp10328
(lp10329
(I1771483
I1771893
g14
S'yggF'
p10330
tp10331
as(S'AP53'
p10332
S'AP53_1345'
p10333
S'AP53_1345'
p10334
tp10335
(lp10336
(I1320830
I1321186
g14
g14
tp10337
as(S'AP53'
p10338
S'AP53_600'
p10339
S'AP53_600'
p10340
tp10341
(lp10342
(I611455
I611811
g6
g14
tp10343
as(S'AP53'
p10344
S'AP53_890'
p10345
S'AP53_890'
p10346
tp10347
(lp10348
(I891462
I891875
g6
g14
tp10349
as(S'AP53'
p10350
S'AP53_165'
p10351
S'AP53_165'
p10352
tp10353
(lp10354
(I183042
I183557
g14
g14
tp10355
as(S'AP53'
p10356
S'AP53_193'
p10357
S'AP53_193'
p10358
tp10359
(lp10360
(I209055
I210401
g6
S'fasB'
p10361
tp10362
as(S'AP53'
p10363
S'AP53_1504'
p10364
S'AP53_1504'
p10365
tp10366
(lp10367
(I1476208
I1476762
g14
g14
tp10368
as(S'AP53'
p10369
S'AP53_972'
p10370
S'AP53_972'
p10371
tp10372
(lp10373
(I974035
I974631
g14
S'hsdS2'
p10374
tp10375
as(S'AP53'
p10376
S'AP53_1207'
p10377
S'AP53_1207'
p10378
tp10379
(lp10380
(I1185775
I1185915
g14
g14
tp10381
as(S'AP53'
p10382
S'AP53_1639'
p10383
S'AP53_1639'
p10384
tp10385
(lp10386
(I1620665
I1622008
g14
S'cysS'
p10387
tp10388
as(S'AP53'
p10389
S'AP53_1171'
p10390
S'AP53_1171'
p10391
tp10392
(lp10393
(I1159501
I1159620
g14
g14
tp10394
as(S'AP53'
p10395
S'AP53_440'
p10396
S'AP53_440'
p10397
tp10398
(lp10399
(I447894
I448628
g6
g14
tp10400
as(S'AP53'
p10401
S'AP53_463'
p10402
S'AP53_463'
p10403
tp10404
(lp10405
(I466868
I468235
g14
g14
tp10406
as(S'AP53'
p10407
S'AP53_1741'
p10408
S'AP53_1741'
p10409
tp10410
(lp10411
(I1734445
I1734648
g14
S'cspA'
p10412
tp10413
as(S'AP53'
p10414
S'AP53_1195'
p10415
S'AP53_1195'
p10416
tp10417
(lp10418
(I1179551
I1179802
g14
g14
tp10419
as(S'AP53'
p10420
S'AP53_1595'
p10421
S'AP53_1595'
p10422
tp10423
(lp10424
(I1576051
I1576932
g14
g14
tp10425
as(S'AP53'
p10426
S'AP53_832'
p10427
S'AP53_832'
p10428
tp10429
(lp10430
(I833301
I833666
g6
S'rplL'
p10431
tp10432
as(S'AP53'
p10433
S'AP53_85'
p10434
S'AP53_85'
p10435
tp10436
(lp10437
(I104067
I104393
g6
S'comGC'
p10438
tp10439
as(S'AP53'
p10440
S'AP53_160'
p10441
S'AP53_160'
p10442
tp10443
(lp10444
(I179170
I179463
g14
g14
tp10445
as(S'AP53'
p10446
S'AP53_110'
p10447
S'AP53_110'
p10448
tp10449
(lp10450
(I126356
I126913
g14
S'hypo19'
p10451
tp10452
as(S'AP53'
p10453
S'AP53_1625'
p10454
S'AP53_1625'
p10455
tp10456
(lp10457
(I1613207
I1613494
g6
g14
tp10458
as(S'AP53'
p10459
S'AP53_1097'
p10460
S'AP53_1097'
p10461
tp10462
(lp10463
(I1081184
I1082494
g6
g14
tp10464
as(S'AP53'
p10465
S'AP53_1402'
p10466
S'AP53_1402'
p10467
tp10468
(lp10469
(I1377660
I1379039
g14
g14
tp10470
as(S'AP53'
p10471
S'AP53_748'
p10472
S'AP53_748'
p10473
tp10474
(lp10475
(I741942
I742634
g6
S'pyrF'
p10476
tp10477
as(S'AP53'
p10478
S'AP53_989'
p10479
S'AP53_989'
p10480
tp10481
(lp10482
(I990961
I991602
g14
S'hisM'
p10483
tp10484
as(S'AP53'
p10485
S'AP53_849'
p10486
S'AP53_849'
p10487
tp10488
(lp10489
(I849985
I851034
g14
S'adh'
p10490
tp10491
as(S'AP53'
p10492
S'AP53_909'
p10493
S'AP53_909'
p10494
tp10495
(lp10496
(I910006
I910329
g6
g14
tp10497
as(S'AP53'
p10498
S'AP53_1019'
p10499
S'AP53_1019'
p10500
tp10501
(lp10502
(I1022585
I1022962
g14
g14
tp10503
as(S'AP53'
p10504
S'AP53_574'
p10505
S'AP53_574'
p10506
tp10507
(lp10508
(I582384
I584789
g6
S'pheT'
p10509
tp10510
as(S'AP53'
p10511
S'AP53_731'
p10512
S'AP53_731'
p10513
tp10514
(lp10515
(I726159
I727334
g14
S'mvaS'
p10516
tp10517
as(S'AP53'
p10518
S'AP53_1367'
p10519
S'AP53_1367'
p10520
tp10521
(lp10522
(I1340921
I1341469
g14
S'raiA'
p10523
tp10524
as(S'AP53'
p10525
S'AP53_1670'
p10526
S'AP53_1670'
p10527
tp10528
(lp10529
(I1659750
I1659863
g14
g14
tp10530
as(S'AP53'
p10531
S'AP53_709'
p10532
S'AP53_709'
p10533
tp10534
(lp10535
(I705712
I706224
g6
g14
tp10536
as(S'AP53'
p10537
S'AP53_70'
p10538
S'AP53_70'
p10539
tp10540
(lp10541
(I78758
I79144
g6
S'rplQ'
p10542
tp10543
as(S'AP53'
p10544
S'AP53_171'
p10545
S'AP53_171'
p10546
tp10547
(lp10548
(I187078
I187857
g6
g14
tp10549
as(S'AP53'
p10550
S'AP53_381'
p10551
S'AP53_381'
p10552
tp10553
(lp10554
(I393647
I393775
g6
g14
tp10555
as(S'AP53'
p10556
S'AP53_1550'
p10557
S'AP53_1550'
p10558
tp10559
(lp10560
(I1530596
I1531096
g14
g14
tp10561
as(S'AP53'
p10562
S'AP53_1450'
p10563
S'AP53_1450'
p10564
tp10565
(lp10566
(I1424142
I1426373
g14
S'copA'
p10567
tp10568
as(S'AP53'
p10569
S'AP53_564'
p10570
S'AP53_564'
p10571
tp10572
(lp10573
(I575026
I575901
g6
S'atpG'
p10574
tp10575
as(S'AP53'
p10576
S'AP53_785'
p10577
S'AP53_785'
p10578
tp10579
(lp10580
(I778867
I780519
g14
S'fbp'
p10581
tp10582
as(S'AP53'
p10583
S'AP53_1034'
p10584
S'AP53_1034'
p10585
tp10586
(lp10587
(I1031405
I1031890
g14
g14
tp10588
as(S'AP53'
p10589
S'AP53_1747'
p10590
S'AP53_1747'
p10591
tp10592
(lp10593
(I1742389
I1743015
g6
S'fchA'
p10594
tp10595
as(S'AP53'
p10596
S'AP53_930'
p10597
S'AP53_930'
p10598
tp10599
(lp10600
(I930883
I931440
g14
S'pdxK'
p10601
tp10602
as(S'AP53'
p10603
S'AP53_1048'
p10604
S'AP53_1048'
p10605
tp10606
(lp10607
(I1039851
I1039988
g14
g14
tp10608
as(S'AP53'
p10609
S'AP53_750'
p10610
S'AP53_750'
p10611
tp10612
(lp10613
(I743518
I744972
g6
S'amiC'
p10614
tp10615
as(S'AP53'
p10616
S'AP53_304'
p10617
S'AP53_304'
p10618
tp10619
(lp10620
(I325097
I326056
g14
S'fhuB'
p10621
tp10622
as(S'AP53'
p10623
S'AP53_1703'
p10624
S'AP53_1703'
p10625
tp10626
(lp10627
(I1700301
I1701569
g14
S'acrA'
p10628
tp10629
as(S'AP53'
p10630
S'AP53_959'
p10631
S'AP53_959'
p10632
tp10633
(lp10634
(I962425
I963183
g14
S'pstB'
p10635
tp10636
as(S'AP53'
p10637
S'AP53_1193'
p10638
S'AP53_1193'
p10639
tp10640
(lp10641
(I1178381
I1178959
g14
g14
tp10642
as(S'AP53'
p10643
S'AP53_1026'
p10644
S'AP53_1026'
p10645
tp10646
(lp10647
(I1026857
I1027081
g14
g14
tp10648
as(S'AP53'
p10649
S'AP53_1155'
p10650
S'AP53_1155'
p10651
tp10652
(lp10653
(I1140460
I1141065
g14
S'sodA'
p10654
tp10655
as(S'AP53'
p10656
S'AP53_15'
p10657
S'AP53_15'
p10658
tp10659
(lp10660
(I15110
I16501
g6
g14
tp10661
as(S'AP53'
p10662
S'AP53_1567'
p10663
S'AP53_1567'
p10664
tp10665
(lp10666
(I1549705
I1551987
g6
S'pepXP'
p10667
tp10668
as(S'AP53'
p10669
S'AP53_811'
p10670
S'AP53_811'
p10671
tp10672
(lp10673
(I809929
I810978
g6
g14
tp10674
as(S'AP53'
p10675
S'AP53_590'
p10676
S'AP53_590'
p10677
tp10678
(lp10679
(I603157
I604089
g6
S'rgpBc'
p10680
tp10681
as(S'AP53'
p10682
S'AP53_16'
p10683
S'AP53_16'
p10684
tp10685
(lp10686
(I31192
I32388
g6
g14
tp10687
as(S'AP53'
p10688
S'AP53_813'
p10689
S'AP53_813'
p10690
tp10691
(lp10692
(I811948
I812094
g6
S'ndk'
p10693
tp10694
as(S'AP53'
p10695
S'AP53_1273'
p10696
S'AP53_1273'
p10697
tp10698
(lp10699
(I1248175
I1248915
g14
S'yesN'
p10700
tp10701
as(S'AP53'
p10702
S'AP53_455'
p10703
S'AP53_455'
p10704
tp10705
(lp10706
(I460307
I460612
g6
g14
tp10707
as(S'AP53'
p10708
S'AP53_1340'
p10709
S'AP53_1340'
p10710
tp10711
(lp10712
(I1318786
I1319265
g14
g14
tp10713
as(S'AP53'
p10714
S'AP53_610'
p10715
S'AP53_610'
p10716
tp10717
(lp10718
(I620583
I624683
g14
g14
tp10719
as(S'AP53'
p10720
S'AP53_1046'
p10721
S'AP53_1046'
p10722
tp10723
(lp10724
(I1039441
I1039770
g14
g14
tp10725
as(S'AP53'
p10726
S'AP53_645'
p10727
S'AP53_645'
p10728
tp10729
(lp10730
(I643250
I643411
g14
g14
tp10731
as(S'AP53'
p10732
S'AP53_1004'
p10733
S'AP53_1004'
p10734
tp10735
(lp10736
(I1007390
I1008034
g14
g14
tp10737
as(S'AP53'
p10738
S'AP53_96'
p10739
S'AP53_96'
p10740
tp10741
(lp10742
(I111290
I111607
g6
S'trxA'
p10743
tp10744
as(S'AP53'
p10745
S'AP53_1604'
p10746
S'AP53_1604'
p10747
tp10748
(lp10749
(I1583346
I1584110
g14
S'thiD'
p10750
tp10751
as(S'AP53'
p10752
S'AP53_963'
p10753
S'AP53_963'
p10754
tp10755
(lp10756
(I965838
I966704
g14
S'pstS'
p10757
tp10758
as(S'AP53'
p10759
S'AP53_1239'
p10760
S'AP53_1239'
p10761
tp10762
(lp10763
(I1214981
I1215235
g14
S'ylmG'
p10764
tp10765
as(S'AP53'
p10766
S'AP53_75'
p10767
S'AP53_75'
p10768
tp10769
(lp10770
(I88357
I89061
g6
S'adrC'
p10771
tp10772
as(S'AP53'
p10773
S'AP53_964'
p10774
S'AP53_964'
p10775
tp10776
(lp10777
(I966843
I968153
g14
g14
tp10778
as(S'AP53'
p10779
S'AP53_1758'
p10780
S'AP53_1758'
p10781
tp10782
(lp10783
(I1758927
I1760951
g14
S'treP'
p10784
tp10785
as(S'AP53'
p10786
S'AP53_845'
p10787
S'AP53_845'
p10788
tp10789
(lp10790
(I845027
I845692
g14
S'dpiA'
p10791
tp10792
as(S'AP53'
p10793
S'AP53_1049'
p10794
S'AP53_1049'
p10795
tp10796
(lp10797
(I1039985
I1040281
g14
g14
tp10798
as(S'AP53'
p10799
S'AP53_289'
p10800
S'AP53_289'
p10801
tp10802
(lp10803
(I312761
I313507
g6
S'xerD'
p10804
tp10805
as(S'AP53'
p10806
S'AP53_1814'
p10807
S'AP53_1814'
p10808
tp10809
(lp10810
(I1806978
I1807160
g6
S'rpmF'
p10811
tp10812
as(S'AP53'
p10813
S'AP53_977'
p10814
S'AP53_977'
p10815
tp10816
(lp10817
(I979682
I980170
g14
g14
tp10818
as(S'AP53'
p10819
S'AP53_448'
p10820
S'AP53_448'
p10821
tp10822
(lp10823
(I456793
I457002
g14
g14
tp10824
as(S'AP53'
p10825
S'AP53_380'
p10826
S'AP53_380'
p10827
tp10828
(lp10829
(I392780
I392956
g6
g14
tp10830
as(S'AP53'
p10831
S'AP53_234'
p10832
S'AP53_234'
p10833
tp10834
(lp10835
(I250867
I251346
g6
S'sufE2'
p10836
tp10837
as(S'AP53'
p10838
S'AP53_1295'
p10839
S'AP53_1295'
p10840
tp10841
(lp10842
(I1273246
I1274691
g14
g14
tp10843
as(S'AP53'
p10844
S'AP53_689'
p10845
S'AP53_689'
p10846
tp10847
(lp10848
(I680428
I681510
g6
S'carA'
p10849
tp10850
as(S'AP53'
p10851
S'AP53_493'
p10852
S'AP53_493'
p10853
tp10854
(lp10855
(I494192
I496990
g6
S'ppc'
p10856
tp10857
as(S'AP53'
p10858
S'AP53_661'
p10859
S'AP53_661'
p10860
tp10861
(lp10862
(I655447
I656670
g6
S'pepT'
p10863
tp10864
as(S'AP53'
p10865
S'AP53_141'
p10866
S'AP53_141'
p10867
tp10868
(lp10869
(I160058
I161491
g6
S'ulaA'
p10870
tp10871
as(S'AP53'
p10872
S'AP53_1241'
p10873
S'AP53_1241'
p10874
tp10875
(lp10876
(I1215908
I1216579
g14
g14
tp10877
as(S'AP53'
p10878
S'AP53_427'
p10879
S'AP53_427'
p10880
tp10881
(lp10882
(I432161
I432877
g6
g14
tp10883
as(S'AP53'
p10884
S'AP53_138'
p10885
S'AP53_138'
p10886
tp10887
(lp10888
(I154823
I154990
g14
S'hypo2'
p10889
tp10890
as(S'AP53'
p10891
S'AP53_1797'
p10892
S'AP53_1797'
p10893
tp10894
(lp10895
(I1791000
I1791173
g6
g14
tp10896
as(S'AP53'
p10897
S'AP53_747'
p10898
S'AP53_747'
p10899
tp10900
(lp10901
(I741129
I741665
g6
S'hypo11'
p10902
tp10903
as(S'AP53'
p10904
S'AP53_19'
p10905
S'AP53_19'
p10906
tp10907
(lp10908
(I34647
I35654
g6
S'plsX'
p10909
tp10910
as(S'AP53'
p10911
S'AP53_1712'
p10912
S'AP53_1712'
p10913
tp10914
(lp10915
(I1707323
I1708165
g6
S'ropB'
p10916
tp10917
as(S'AP53'
p10918
S'AP53_973'
p10919
S'AP53_973'
p10920
tp10921
(lp10922
(I974723
I977359
g14
g14
tp10923
as(S'AP53'
p10924
S'AP53_1683'
p10925
S'AP53_1683'
p10926
tp10927
(lp10928
(I1676386
I1677207
g6
S'dppC'
p10929
tp10930
as(S'AP53'
p10931
S'AP53_622'
p10932
S'AP53_622'
p10933
tp10934
(lp10935
(I631015
I632745
g14
g14
tp10936
as(S'AP53'
p10937
S'AP53_292'
p10938
S'AP53_292'
p10939
tp10940
(lp10941
(I314881
I315603
g6
S'rluB'
p10942
tp10943
as(S'AP53'
p10944
S'AP53_580'
p10945
S'AP53_580'
p10946
tp10947
(lp10948
(I588663
I591878
g6
S'addB'
p10949
tp10950
as(S'AP53'
p10951
S'AP53_481'
p10952
S'AP53_481'
p10953
tp10954
(lp10955
(I484046
I484258
g6
g14
tp10956
as(S'AP53'
p10957
S'AP53_459'
p10958
S'AP53_459'
p10959
tp10960
(lp10961
(I463059
I463379
g14
g14
tp10962
as(S'AP53'
p10963
S'AP53_1293'
p10964
S'AP53_1293'
p10965
tp10966
(lp10967
(I1270621
I1272345
g14
S'yesM'
p10968
tp10969
as(S'AP53'
p10970
S'AP53_213'
p10971
S'AP53_213'
p10972
tp10973
(lp10974
(I227248
I227910
g6
S'rpe'
p10975
tp10976
as(S'AP53'
p10977
S'AP53_1012'
p10978
S'AP53_1012'
p10979
tp10980
(lp10981
(I1014178
I1016322
g14
g14
tp10982
as(S'AP53'
p10983
S'AP53_1214'
p10984
S'AP53_1214'
p10985
tp10986
(lp10987
(I1188965
I1189483
g6
g14
tp10988
as(S'AP53'
p10989
S'AP53_646'
p10990
S'AP53_646'
p10991
tp10992
(lp10993
(I643438
I643629
g14
g14
tp10994
as(S'AP53'
p10995
S'AP53_563'
p10996
S'AP53_563'
p10997
tp10998
(lp10999
(I573502
I575010
g6
S'atpA'
p11000
tp11001
as(S'AP53'
p11002
S'AP53_1156'
p11003
S'AP53_1156'
p11004
tp11005
(lp11006
(I1141162
I1142202
g14
S'holA'
p11007
tp11008
as(S'AP53'
p11009
S'AP53_604'
p11010
S'AP53_604'
p11011
tp11012
(lp11013
(I613759
I614391
g14
g14
tp11014
as(S'AP53'
p11015
S'AP53_867'
p11016
S'AP53_867'
p11017
tp11018
(lp11019
(I866211
I866966
g6
S'ydfG'
p11020
tp11021
as(S'AP53'
p11022
S'AP53_1789'
p11023
S'AP53_1789'
p11024
tp11025
(lp11026
(I1785515
I1786648
g14
g14
tp11027
as(S'AP53'
p11028
S'AP53_430'
p11029
S'AP53_430'
p11030
tp11031
(lp11032
(I434409
I435557
g6
g14
tp11033
as(S'AP53'
p11034
S'AP53_1838'
p11035
S'AP53_1838'
p11036
tp11037
(lp11038
(I1830509
I1831180
g6
S'sdhB'
p11039
tp11040
as(S'AP53'
p11041
S'AP53_691'
p11042
S'AP53_691'
p11043
tp11044
(lp11045
(I685138
I686409
g6
S'arcA'
p11046
tp11047
as(S'AP53'
p11048
S'AP53_695'
p11049
S'AP53_695'
p11050
tp11051
(lp11052
(I690465
I690737
g6
S'rpsP'
p11053
tp11054
as(S'AP53'
p11055
S'AP53_1369'
p11056
S'AP53_1369'
p11057
tp11058
(lp11059
(I1342186
I1343511
g14
S'comFA'
p11060
tp11061
as(S'AP53'
p11062
S'AP53_1404'
p11063
S'AP53_1404'
p11064
tp11065
(lp11066
(I1380189
I1380413
g14
S'aapA'
p11067
tp11068
as(S'AP53'
p11069
S'AP53_1658'
p11070
S'AP53_1658'
p11071
tp11072
(lp11073
(I1643185
I1643934
g14
S'uppS'
p11074
tp11075
as(S'AP53'
p11076
S'AP53_1724'
p11077
S'AP53_1724'
p11078
tp11079
(lp11080
(I1718756
I1719529
g6
S'pflA'
p11081
tp11082
as(S'AP53'
p11083
S'AP53_1274'
p11084
S'AP53_1274'
p11085
tp11086
(lp11087
(I1249003
I1250109
g14
S'msrAB'
p11088
tp11089
as(S'AP53'
p11090
S'AP53_777'
p11091
S'AP53_777'
p11092
tp11093
(lp11094
(I770897
I771685
g6
g14
tp11095
as(S'AP53'
p11096
S'AP53_1414'
p11097
S'AP53_1414'
p11098
tp11099
(lp11100
(I1388837
I1390087
g14
S'proA'
p11101
tp11102
as(S'AP53'
p11103
S'AP53_1190'
p11104
S'AP53_1190'
p11105
tp11106
(lp11107
(I1175364
I1177721
g14
g14
tp11108
as(S'AP53'
p11109
S'AP53_1353'
p11110
S'AP53_1353'
p11111
tp11112
(lp11113
(I1324158
I1324940
g14
g14
tp11114
as(S'AP53'
p11115
S'AP53_1364'
p11116
S'AP53_1364'
p11117
tp11118
(lp11119
(I1330390
I1331613
g6
g14
tp11120
as(S'AP53'
p11121
S'AP53_545'
p11122
S'AP53_545'
p11123
tp11124
(lp11125
(I553556
I554863
g6
S'eno'
p11126
tp11127
as(S'AP53'
p11128
S'AP53_1624'
p11129
S'AP53_1624'
p11130
tp11131
(lp11132
(I1611784
I1612557
g6
S'lacR2'
p11133
tp11134
as(S'AP53'
p11135
S'AP53_1407'
p11136
S'AP53_1407'
p11137
tp11138
(lp11139
(I1383600
I1383749
g6
S'mraW'
p11140
tp11141
as(S'AP53'
p11142
S'AP53_1729'
p11143
S'AP53_1729'
p11144
tp11145
(lp11146
(I1723403
I1723594
g6
g14
tp11147
as(S'AP53'
p11148
S'AP53_26'
p11149
S'AP53_26'
p11150
tp11151
(lp11152
(I44165
I45712
g6
S'purH'
p11153
tp11154
as(S'AP53'
p11155
S'AP53_1352'
p11156
S'AP53_1352'
p11157
tp11158
(lp11159
(I1324030
I1324167
g14
g14
tp11160
as(S'AP53'
p11161
S'AP53_1141'
p11162
S'AP53_1141'
p11163
tp11164
(lp11165
(I1125272
I1125406
g14
g14
tp11166
as(S'AP53'
p11167
S'AP53_579'
p11168
S'AP53_579'
p11169
tp11170
(lp11171
(I587586
I588512
g14
S'ypfJ'
p11172
tp11173
as(S'AP53'
p11174
S'AP53_108'
p11175
S'AP53_108'
p11176
tp11177
(lp11178
(I122299
I123504
g14
g14
tp11179
as(S'AP53'
p11180
S'AP53_960'
p11181
S'AP53_960'
p11182
tp11183
(lp11184
(I963196
I963999
g14
S'pstB2'
p11185
tp11186
as(S'AP53'
p11187
S'AP53_1659'
p11188
S'AP53_1659'
p11189
tp11190
(lp11191
(I1644153
I1644518
g14
S'yajC'
p11192
tp11193
as(S'AP53'
p11194
S'AP53_1631'
p11195
S'AP53_1631'
p11196
tp11197
(lp11198
(I1615485
I1615931
g14
S'rplM'
p11199
tp11200
as(S'AP53'
p11201
S'AP53_693'
p11202
S'AP53_693'
p11203
tp11204
(lp11205
(I687131
I688351
g6
S'salY'
p11206
tp11207
as(S'AP53'
p11208
S'AP53_417'
p11209
S'AP53_417'
p11210
tp11211
(lp11212
(I421661
I422587
g14
g14
tp11213
as(S'AP53'
p11214
S'AP53_100'
p11215
S'AP53_100'
p11216
tp11217
(lp11218
(I113718
I114695
g14
g14
tp11219
as(S'AP53'
p11220
S'AP53_1525'
p11221
S'AP53_1525'
p11222
tp11223
(lp11224
(I1502796
I1503896
g14
S'alr'
p11225
tp11226
as(S'AP53'
p11227
S'AP53_101'
p11228
S'AP53_101'
p11229
tp11230
(lp11231
(I114682
I115554
g14
S'hslO'
p11232
tp11233
as(S'AP53'
p11234
S'AP53_406'
p11235
S'AP53_406'
p11236
tp11237
(lp11238
(I410556
I411383
g6
S'fpg'
p11239
tp11240
as(S'AP53'
p11241
S'AP53_601'
p11242
S'AP53_601'
p11243
tp11244
(lp11245
(I611927
I613135
g14
g14
tp11246
as(S'AP53'
p11247
S'AP53_496'
p11248
S'AP53_496'
p11249
tp11250
(lp11251
(I498737
I499984
g6
S'tuf'
p11252
tp11253
as(S'AP53'
p11254
S'AP53_338'
p11255
S'AP53_338'
p11256
tp11257
(lp11258
(I357177
I357770
g6
S'hypo4'
p11259
tp11260
as(S'AP53'
p11261
S'AP53_383'
p11262
S'AP53_383'
p11263
tp11264
(lp11265
(I394449
I394766
g6
g14
tp11266
as(S'AP53'
p11267
S'AP53_1793'
p11268
S'AP53_1793'
p11269
tp11270
(lp11271
(I1787594
I1787923
g6
g14
tp11272
as(S'AP53'
p11273
S'AP53_782'
p11274
S'AP53_782'
p11275
tp11276
(lp11277
(I775856
I776332
g6
S'mutX'
p11278
tp11279
as(S'AP53'
p11280
S'AP53_1817'
p11281
S'AP53_1817'
p11282
tp11283
(lp11284
(I1808244
I1808582
g6
S'cadC'
p11285
tp11286
as(S'AP53'
p11287
S'AP53_1224'
p11288
S'AP53_1224'
p11289
tp11290
(lp11291
(I1197740
I1198612
g14
S'fps'
p11292
tp11293
as(S'AP53'
p11294
S'AP53_267'
p11295
S'AP53_267'
p11296
tp11297
(lp11298
(I290657
I291343
g6
S'covR'
p11299
tp11300
as(S'AP53'
p11301
S'AP53_1783'
p11302
S'AP53_1783'
p11303
tp11304
(lp11305
(I1781413
I1781556
g6
g14
tp11306
as(S'AP53'
p11307
S'AP53_1001'
p11308
S'AP53_1001'
p11309
tp11310
(lp11311
(I1004412
I1004624
g14
g14
tp11312
as(S'AP53'
p11313
S'AP53_1431'
p11314
S'AP53_1431'
p11315
tp11316
(lp11317
(I1408823
I1409356
g14
g14
tp11318
as(S'AP53'
p11319
S'AP53_641'
p11320
S'AP53_641'
p11321
tp11322
(lp11323
(I640009
I640236
g14
g14
tp11324
as(S'AP53'
p11325
S'AP53_874'
p11326
S'AP53_874'
p11327
tp11328
(lp11329
(I874012
I874950
g14
S'apbE'
p11330
tp11331
as(S'AP53'
p11332
S'AP53_1101'
p11333
S'AP53_1101'
p11334
tp11335
(lp11336
(I1083637
I1084368
g14
S'rsuA'
p11337
tp11338
as(S'AP53'
p11339
S'AP53_1715'
p11340
S'AP53_1715'
p11341
tp11342
(lp11343
(I1709585
I1710094
g6
S'ltrC'
p11344
tp11345
as(S'AP53'
p11346
S'AP53_1200'
p11347
S'AP53_1200'
p11348
tp11349
(lp11350
(I1181156
I1182502
g14
S'pcfJ'
p11351
tp11352
as(S'AP53'
p11353
S'AP53_181'
p11354
S'AP53_181'
p11355
tp11356
(lp11357
(I195674
I196345
g6
g14
tp11358
as(S'AP53'
p11359
S'AP53_1854'
p11360
S'AP53_1854'
p11361
tp11362
(lp11363
(I1846004
I1846867
g14
S'GlcU'
p11364
tp11365
as(S'AP53'
p11366
S'AP53_420'
p11367
S'AP53_420'
p11368
tp11369
(lp11370
(I423834
I424919
g14
S'pepQ'
p11371
tp11372
as(S'AP53'
p11373
S'AP53_1035'
p11374
S'AP53_1035'
p11375
tp11376
(lp11377
(I1032175
I1032588
g14
g14
tp11378
as(S'AP53'
p11379
S'AP53_1843'
p11380
S'AP53_1843'
p11381
tp11382
(lp11383
(I1835074
I1835913
g14
S'cbiO'
p11384
tp11385
as(S'AP53'
p11386
S'AP53_1599'
p11387
S'AP53_1599'
p11388
tp11389
(lp11390
(I1579798
I1581081
g14
S'tig'
p11391
tp11392
as(S'AP53'
p11393
S'AP53_1202'
p11394
S'AP53_1202'
p11395
tp11396
(lp11397
(I1183259
I1184056
g14
S'pi112'
p11398
tp11399
as(S'AP53'
p11400
S'AP53_721'
p11401
S'AP53_721'
p11402
tp11403
(lp11404
(I715299
I715709
g6
S'fms'
p11405
tp11406
as(S'AP53'
p11407
S'AP53_1169'
p11408
S'AP53_1169'
p11409
tp11410
(lp11411
(I1158027
I1158806
g14
g14
tp11412
as(S'AP53'
p11413
S'AP53_1392'
p11414
S'AP53_1392'
p11415
tp11416
(lp11417
(I1365700
I1366182
g6
S'luxS'
p11418
tp11419
as(S'AP53'
p11420
S'AP53_771'
p11421
S'AP53_771'
p11422
tp11423
(lp11424
(I765092
I765856
g6
g14
tp11425
as(S'AP53'
p11426
S'AP53_1258'
p11427
S'AP53_1258'
p11428
tp11429
(lp11430
(I1232558
I1233595
g14
S'Ion'
p11431
tp11432
as(S'AP53'
p11433
S'AP53_1329'
p11434
S'AP53_1329'
p11435
tp11436
(lp11437
(I1309654
I1310262
g14
g14
tp11438
as(S'AP53'
p11439
S'AP53_1030'
p11440
S'AP53_1030'
p11441
tp11442
(lp11443
(I1029649
I1029990
g14
g14
tp11444
as(S'AP53'
p11445
S'AP53_425'
p11446
S'AP53_425'
p11447
tp11448
(lp11449
(I428981
I430924
g6
S'thrS'
p11450
tp11451
as(S'AP53'
p11452
S'AP53_396'
p11453
S'AP53_396'
p11454
tp11455
(lp11456
(I404402
I404602
g6
g14
tp11457
as(S'AP53'
p11458
S'AP53_823'
p11459
S'AP53_823'
p11460
tp11461
(lp11462
(I821746
I823395
g6
g14
tp11463
as(S'AP53'
p11464
S'AP53_328'
p11465
S'AP53_328'
p11466
tp11467
(lp11468
(I347090
I347254
g6
g14
tp11469
as(S'AP53'
p11470
S'AP53_319'
p11471
S'AP53_319'
p11472
tp11473
(lp11474
(I337330
I337722
g6
g14
tp11475
as(S'AP53'
p11476
S'AP53_1042'
p11477
S'AP53_1042'
p11478
tp11479
(lp11480
(I1037346
I1038542
g14
g14
tp11481
as(S'AP53'
p11482
S'AP53_1765'
p11483
S'AP53_1765'
p11484
tp11485
(lp11486
(I1764475
I1765089
g14
S'nrdG'
p11487
tp11488
as(S'AP53'
p11489
S'AP53_820'
p11490
S'AP53_820'
p11491
tp11492
(lp11493
(I819469
I819960
g6
S'ptsB'
p11494
tp11495
as(S'AP53'
p11496
S'AP53_763'
p11497
S'AP53_763'
p11498
tp11499
(lp11500
(I759223
I759345
g14
g14
tp11501
as(S'AP53'
p11502
S'AP53_1081'
p11503
S'AP53_1081'
p11504
tp11505
(lp11506
(I1068158
I1068310
g14
S'hypo26'
p11507
tp11508
as(S'AP53'
p11509
S'AP53_835'
p11510
S'AP53_835'
p11511
tp11512
(lp11513
(I836550
I837827
g6
S'folC1'
p11514
tp11515
as(S'AP53'
p11516
S'AP53_1284'
p11517
S'AP53_1284'
p11518
tp11519
(lp11520
(I1259947
I1260201
g14
g14
tp11521
as(S'AP53'
p11522
S'AP53_458'
p11523
S'AP53_458'
p11524
tp11525
(lp11526
(I462208
I463011
g14
S'tnpA'
p11527
tp11528
as(S'AP53'
p11529
S'AP53_1029'
p11530
S'AP53_1029'
p11531
tp11532
(lp11533
(I1029010
I1029477
g14
g14
tp11534
as(S'AP53'
p11535
S'AP53_727'
p11536
S'AP53_727'
p11537
tp11538
(lp11539
(I721739
I722683
g6
S'mvaD'
p11540
tp11541
as(S'AP53'
p11542
S'AP53_969'
p11543
S'AP53_969'
p11544
tp11545
(lp11546
(I970622
I971506
g14
S'truB'
p11547
tp11548
as(S'AP53'
p11549
S'AP53_961'
p11550
S'AP53_961'
p11551
tp11552
(lp11553
(I964015
I964902
g14
S'pstA'
p11554
tp11555
as(S'AP53'
p11556
S'AP53_88'
p11557
S'AP53_88'
p11558
tp11559
(lp11560
(I105030
I105464
g6
S'comGF'
p11561
tp11562
as(S'AP53'
p11563
S'AP53_111'
p11564
S'AP53_111'
p11565
tp11566
(lp11567
(I127281
I128687
g6
S'atoE'
p11568
tp11569
as(S'AP53'
p11570
S'AP53_1129'
p11571
S'AP53_1129'
p11572
tp11573
(lp11574
(I1114829
I1116562
g14
S'ptsI'
p11575
tp11576
as(S'AP53'
p11577
S'AP53_1388'
p11578
S'AP53_1388'
p11579
tp11580
(lp11581
(I1362753
I1363412
g6
S'atoA'
p11582
tp11583
as(S'AP53'
p11584
S'AP53_1791'
p11585
S'AP53_1791'
p11586
tp11587
(lp11588
(I1787167
I1787388
g6
g14
tp11589
as(S'AP53'
p11590
S'AP53_799'
p11591
S'AP53_799'
p11592
tp11593
(lp11594
(I798250
I799239
g6
g14
tp11595
as(S'AP53'
p11596
S'AP53_294'
p11597
S'AP53_294'
p11598
tp11599
(lp11600
(I316041
I316589
g6
g14
tp11601
as(S'AP53'
p11602
S'AP53_1646'
p11603
S'AP53_1646'
p11604
tp11605
(lp11606
(I1628639
I1628923
g14
S'sgaB'
p11607
tp11608
as(S'AP53'
p11609
S'AP53_359'
p11610
S'AP53_359'
p11611
tp11612
(lp11613
(I376372
I376722
g14
g14
tp11614
as(S'AP53'
p11615
S'AP53_1136'
p11616
S'AP53_1136'
p11617
tp11618
(lp11619
(I1122296
I1122589
g6
g14
tp11620
as(S'AP53'
p11621
S'AP53_863'
p11622
S'AP53_863'
p11623
tp11624
(lp11625
(I862700
I863371
g6
g14
tp11626
as(S'AP53'
p11627
S'AP53_1586'
p11628
S'AP53_1586'
p11629
tp11630
(lp11631
(I1567221
I1567592
g14
S'glnR'
p11632
tp11633
as(S'AP53'
p11634
S'AP53_1725'
p11635
S'AP53_1725'
p11636
tp11637
(lp11638
(I1719564
I1719764
g6
g14
tp11639
as(S'AP53'
p11640
S'AP53_1201'
p11641
S'AP53_1201'
p11642
tp11643
(lp11644
(I1182499
I1182894
g14
g14
tp11645
as(S'AP53'
p11646
S'AP53_594'
p11647
S'AP53_594'
p11648
tp11649
(lp11650
(I607129
I608874
g6
S'rgpFc'
p11651
tp11652
as(S'AP53'
p11653
S'AP53_1845'
p11654
S'AP53_1845'
p11655
tp11656
(lp11657
(I1836471
I1837496
g14
g14
tp11658
as(S'AP53'
p11659
S'AP53_1428'
p11660
S'AP53_1428'
p11661
tp11662
(lp11663
(I1404707
I1404964
g14
g14
tp11664
as(S'AP53'
p11665
S'AP53_1342'
p11666
S'AP53_1342'
p11667
tp11668
(lp11669
(I1320185
I1320355
g14
g14
tp11670
as(S'AP53'
p11671
S'AP53_124'
p11672
S'AP53_124'
p11673
tp11674
(lp11675
(I139600
I139920
g6
S'ntpF'
p11676
tp11677
as(S'AP53'
p11678
S'AP53_1768'
p11679
S'AP53_1768'
p11680
tp11681
(lp11682
(I1766571
I1766717
g14
S'hypo24'
p11683
tp11684
as(S'AP53'
p11685
S'AP53_492'
p11686
S'AP53_492'
p11687
tp11688
(lp11689
(I492234
I494033
g14
S'pepF'
p11690
tp11691
as(S'AP53'
p11692
S'AP53_1147'
p11693
S'AP53_1147'
p11694
tp11695
(lp11696
(I1133878
I1134840
g14
S'CoiA'
p11697
tp11698
as(S'AP53'
p11699
S'AP53_642'
p11700
S'AP53_642'
p11701
tp11702
(lp11703
(I640236
I641048
g14
g14
tp11704
as(S'AP53'
p11705
S'AP53_148'
p11706
S'AP53_148'
p11707
tp11708
(lp11709
(I166999
I168090
g6
S'ulaG'
p11710
tp11711
as(S'AP53'
p11712
S'AP53_346'
p11713
S'AP53_346'
p11714
tp11715
(lp11716
(I363000
I363989
g6
S'MviM'
p11717
tp11718
as(S'AP53'
p11719
S'AP53_1608'
p11720
S'AP53_1608'
p11721
tp11722
(lp11723
(I1592646
I1595624
g6
S'hsdR'
p11724
tp11725
as(S'AP53'
p11726
S'AP53_305'
p11727
S'AP53_305'
p11728
tp11729
(lp11730
(I326139
I327071
g14
S'fhuD'
p11731
tp11732
as(S'AP53'
p11733
S'AP53_250'
p11734
S'AP53_250'
p11735
tp11736
(lp11737
(I273649
I274242
g6
g14
tp11738
as(S'AP53'
p11739
S'AP53_583'
p11740
S'AP53_583'
p11741
tp11742
(lp11743
(I596600
I596776
g6
S'rpsU'
p11744
tp11745
as(S'AP53'
p11746
S'AP53_1327'
p11747
S'AP53_1327'
p11748
tp11749
(lp11750
(I1308362
I1308778
g14
g14
tp11751
as(S'AP53'
p11752
S'AP53_1463'
p11753
S'AP53_1463'
p11754
tp11755
(lp11756
(I1438118
I1438843
g14
S'ecsA'
p11757
tp11758
as(S'AP53'
p11759
S'AP53_1673'
p11760
S'AP53_1673'
p11761
tp11762
(lp11763
(I1663439
I1664188
g14
g14
tp11764
as(S'AP53'
p11765
S'AP53_1581'
p11766
S'AP53_1581'
p11767
tp11768
(lp11769
(I1562286
I1562711
g14
S'rimI'
p11770
tp11771
as(S'AP53'
p11772
S'AP53_766'
p11773
S'AP53_766'
p11774
tp11775
(lp11776
(I761000
I761176
g14
g14
tp11777
as(S'AP53'
p11778
S'AP53_674'
p11779
S'AP53_674'
p11780
tp11781
(lp11782
(I666290
I667642
g6
S'gor'
p11783
tp11784
as(S'AP53'
p11785
S'AP53_1663'
p11786
S'AP53_1663'
p11787
tp11788
(lp11789
(I1650560
I1651693
g14
S'msmK'
p11790
tp11791
as(S'AP53'
p11792
S'AP53_907'
p11793
S'AP53_907'
p11794
tp11795
(lp11796
(I907370
I908065
g14
S'gntR'
p11797
tp11798
as(S'AP53'
p11799
S'AP53_706'
p11800
S'AP53_706'
p11801
tp11802
(lp11803
(I701968
I702681
g6
S'fruR'
p11804
tp11805
as(S'AP53'
p11806
S'AP53_1609'
p11807
S'AP53_1609'
p11808
tp11809
(lp11810
(I1595637
I1596830
g6
S'hsdS'
p11811
tp11812
as(S'AP53'
p11813
S'AP53_488'
p11814
S'AP53_488'
p11815
tp11816
(lp11817
(I489673
I490521
g14
g14
tp11818
as(S'AP53'
p11819
S'AP53_87'
p11820
S'AP53_87'
p11821
tp11822
(lp11823
(I104801
I105037
g6
S'comGE'
p11824
tp11825
as(S'AP53'
p11826
S'AP53_922'
p11827
S'AP53_922'
p11828
tp11829
(lp11830
(I921638
I923200
g14
S'ffh'
p11831
tp11832
as(S'AP53'
p11833
S'AP53_1795'
p11834
S'AP53_1795'
p11835
tp11836
(lp11837
(I1788199
I1789056
g6
g14
tp11838
as(S'AP53'
p11839
S'AP53_1359'
p11840
S'AP53_1359'
p11841
tp11842
(lp11843
(I1326961
I1327680
g14
g14
tp11844
as(S'AP53'
p11845
S'AP53_889'
p11846
S'AP53_889'
p11847
tp11848
(lp11849
(I890630
I891379
g6
S'srtA'
p11850
tp11851
as(S'AP53'
p11852
S'AP53_1751'
p11853
S'AP53_1751'
p11854
tp11855
(lp11856
(I1746898
I1748439
g6
S'hutH'
p11857
tp11858
as(S'AP53'
p11859
S'AP53_1062'
p11860
S'AP53_1062'
p11861
tp11862
(lp11863
(I1045948
I1046568
g6
g14
tp11864
as(S'AP53'
p11865
S'AP53_1230'
p11866
S'AP53_1230'
p11867
tp11868
(lp11869
(I1204790
I1205524
g14
S'glnQ'
p11870
tp11871
as(S'AP53'
p11872
S'AP53_1452'
p11873
S'AP53_1452'
p11874
tp11875
(lp11876
(I1426973
I1427959
g6
S'sse'
p11877
tp11878
as(S'AP53'
p11879
S'AP53_1818'
p11880
S'AP53_1818'
p11881
tp11882
(lp11883
(I1808633
I1809556
g6
g14
tp11884
as(S'AP53'
p11885
S'AP53_68'
p11886
S'AP53_68'
p11887
tp11888
(lp11889
(I77376
I77759
g6
S'rpsK'
p11890
tp11891
as(S'AP53'
p11892
S'AP53_1288'
p11893
S'AP53_1288'
p11894
tp11895
(lp11896
(I1263304
I1263642
g14
g14
tp11897
as(S'AP53'
p11898
S'AP53_457'
p11899
S'AP53_457'
p11900
tp11901
(lp11902
(I461067
I461837
g6
g14
tp11903
as(S'AP53'
p11904
S'AP53_1124'
p11905
S'AP53_1124'
p11906
tp11907
(lp11908
(I1109586
I1109804
g14
g14
tp11909
as(S'AP53'
p11910
S'AP53_887'
p11911
S'AP53_887'
p11912
tp11913
(lp11914
(I886950
I887933
g14
S'ldh'
p11915
tp11916
as(S'AP53'
p11917
S'AP53_173'
p11918
S'AP53_173'
p11919
tp11920
(lp11921
(I188986
I190206
g14
g14
tp11922
as(S'AP53'
p11923
S'AP53_1762'
p11924
S'AP53_1762'
p11925
tp11926
(lp11927
(I1762154
I1762393
g14
g14
tp11928
as(S'AP53'
p11929
S'AP53_1401'
p11930
S'AP53_1401'
p11931
tp11932
(lp11933
(I1376030
I1377490
g14
S'pncB'
p11934
tp11935
as(S'AP53'
p11936
S'AP53_385'
p11937
S'AP53_385'
p11938
tp11939
(lp11940
(I395146
I395715
g6
g14
tp11941
as(S'AP53'
p11942
S'AP53_1566'
p11943
S'AP53_1566'
p11944
tp11945
(lp11946
(I1549024
I1549683
g6
S'srv'
p11947
tp11948
as(S'AP53'
p11949
S'AP53_315'
p11950
S'AP53_315'
p11951
tp11952
(lp11953
(I335574
I335708
g6
g14
tp11954
as(S'AP53'
p11955
S'AP53_1027'
p11956
S'AP53_1027'
p11957
tp11958
(lp11959
(I1027074
I1027244
g14
g14
tp11960
as(S'AP53'
p11961
S'AP53_1086'
p11962
S'AP53_1086'
p11963
tp11964
(lp11965
(I1070982
I1072976
g14
S'BglG'
p11966
tp11967
as(S'AP53'
p11968
S'AP53_1346'
p11969
S'AP53_1346'
p11970
tp11971
(lp11972
(I1321183
I1321533
g14
g14
tp11973
as(S'AP53'
p11974
S'AP53_378'
p11975
S'AP53_378'
p11976
tp11977
(lp11978
(I392044
I392280
g14
g14
tp11979
as(S'AP53'
p11980
S'AP53_1068'
p11981
S'AP53_1068'
p11982
tp11983
(lp11984
(I1054877
I1055713
g6
S'malG'
p11985
tp11986
as(S'AP53'
p11987
S'AP53_1054'
p11988
S'AP53_1054'
p11989
tp11990
(lp11991
(I1041643
I1041861
g14
g14
tp11992
as(S'AP53'
p11993
S'AP53_713'
p11994
S'AP53_713'
p11995
tp11996
(lp11997
(I708040
I709065
g14
S'mac;ideS'
p11998
tp11999
as(S'AP53'
p12000
S'AP53_400'
p12001
S'AP53_400'
p12002
tp12003
(lp12004
(I407118
I407339
g6
g14
tp12005
as(S'AP53'
p12006
S'AP53_1494'
p12007
S'AP53_1494'
p12008
tp12009
(lp12010
(I1467614
I1468183
g14
g14
tp12011
as(S'AP53'
p12012
S'AP53_987'
p12013
S'AP53_987'
p12014
tp12015
(lp12016
(I989470
I990306
g14
S'hisJ'
p12017
tp12018
as(S'AP53'
p12019
S'AP53_149'
p12020
S'AP53_149'
p12021
tp12022
(lp12023
(I168578
I169774
g6
S'opuA'
p12024
tp12025
as(S'AP53'
p12026
S'AP53_773'
p12027
S'AP53_773'
p12028
tp12029
(lp12030
(I768214
I768732
g6
S'apt'
p12031
tp12032
as(S'AP53'
p12033
S'AP53_627'
p12034
S'AP53_627'
p12035
tp12036
(lp12037
(I634187
I634480
g14
g14
tp12038
as(S'AP53'
p12039
S'AP53_1111'
p12040
S'AP53_1111'
p12041
tp12042
(lp12043
(I1094544
I1095509
g14
S'YihY'
p12044
tp12045
as(S'AP53'
p12046
S'AP53_1767'
p12047
S'AP53_1767'
p12048
tp12049
(lp12050
(I1765607
I1766542
g14
S'MviM'
p12051
tp12052
as(S'AP53'
p12053
S'AP53_228'
p12054
S'AP53_228'
p12055
tp12056
(lp12057
(I245437
I246198
g6
S'mecA'
p12058
tp12059
as(S'AP53'
p12060
S'AP53_734'
p12061
S'AP53_734'
p12062
tp12063
(lp12064
(I728979
I729149
g6
g14
tp12065
as(S'AP53'
p12066
S'AP53_387'
p12067
S'AP53_387'
p12068
tp12069
(lp12070
(I395980
I396144
g6
g14
tp12071
as(S'AP53'
p12072
S'AP53_1862'
p12073
S'AP53_1862'
p12074
tp12075
(lp12076
(I1857775
I1858254
g14
S'rlmH'
p12077
tp12078
as(S'AP53'
p12079
S'AP53_221'
p12080
S'AP53_221'
p12081
tp12082
(lp12083
(I236050
I238128
g6
S'fusA'
p12084
tp12085
as(S'AP53'
p12086
S'AP53_1002'
p12087
S'AP53_1002'
p12088
tp12089
(lp12090
(I1004693
I1005268
g14
S'slaA'
p12091
tp12092
as(S'AP53'
p12093
S'AP53_1676'
p12094
S'AP53_1676'
p12095
tp12096
(lp12097
(I1665855
I1667828
g6
g14
tp12098
as(S'AP53'
p12099
S'AP53_1680'
p12100
S'AP53_1680'
p12101
tp12102
(lp12103
(I1672515
I1672943
g6
S'smeZ'
p12104
tp12105
as(S'AP53'
p12106
S'AP53_688'
p12107
S'AP53_688'
p12108
tp12109
(lp12110
(I679398
I680384
g6
S'pyrB'
p12111
tp12112
as(S'AP53'
p12113
S'AP53_1140'
p12114
S'AP53_1140'
p12115
tp12116
(lp12117
(I1125016
I1125231
g14
g14
tp12118
as.