(dp0
(S'AP53'
p1
S'AP53_rna37'
p2
S'-'
p3
tp4
(lp5
(I81936
I84839
S'+'
p6
g3
tp7
as(S'AP53'
p8
S'AP53_rna12'
p9
g3
tp10
(lp11
(I22787
I22860
g6
g3
tp12
as(S'AP53'
p13
S'AP53_rna84'
p14
g3
tp15
(lp16
(I1856134
I1856205
g3
g3
tp17
as(S'AP53'
p18
S'AP53_rna15'
p19
g3
tp20
(lp21
(I24666
I24738
g6
g3
tp22
as(S'AP53'
p23
S'AP53_rna41'
p24
g3
tp25
(lp26
(I85240
I85313
g6
g3
tp27
as(S'AP53'
p28
S'AP53_rna31'
p29
g3
tp30
(lp31
(I29330
I29402
g6
g3
tp32
as(S'AP53'
p33
S'AP53_rna18'
p34
g3
tp35
(lp36
(I28158
I28230
g6
g3
tp37
as(S'AP53'
p38
S'AP53_rna35'
p39
g3
tp40
(lp41
(I79992
I81492
g6
g3
tp42
as(S'AP53'
p43
S'AP53_rna68'
p44
g3
tp45
(lp46
(I1334849
I1334921
g3
g3
tp47
as(S'AP53'
p48
S'AP53_rna29'
p49
g3
tp50
(lp51
(I29137
I29226
g6
g3
tp52
as(S'AP53'
p53
S'AP53_rna55'
p54
g3
tp55
(lp56
(I268345
I268418
g6
g3
tp57
as(S'AP53'
p58
S'AP53_rna8'
p59
g3
tp60
(lp61
(I22429
I22510
g6
g3
tp62
as(S'AP53'
p63
S'AP53_rna66'
p64
g3
tp65
(lp66
(I1334655
I1334727
g3
g3
tp67
as(S'AP53'
p68
S'AP53_rna50'
p69
g3
tp70
(lp71
(I86044
I86127
g6
g3
tp72
as(S'AP53'
p73
S'AP53_rna72'
p74
g3
tp75
(lp76
(I1338486
I1339986
g3
g3
tp77
as(S'AP53'
p78
S'AP53_rna27'
p79
g3
tp80
(lp81
(I28947
I29020
g6
g3
tp82
as(S'AP53'
p83
S'AP53_rna2'
p84
g3
tp85
(lp86
(I18665
I18737
g6
g3
tp87
as(S'AP53'
p88
S'AP53_rna81'
p89
g3
tp90
(lp91
(I1671956
I1672028
g6
g3
tp92
as(S'AP53'
p93
S'AP53_rna1'
p94
g3
tp95
(lp96
(I17092
I18592
g6
g3
tp97
as(S'AP53'
p98
S'AP53_rna16'
p99
g3
tp100
(lp101
(I25037
I27940
g6
g3
tp102
as(S'AP53'
p103
S'AP53_rna48'
p104
g3
tp105
(lp106
(I85872
I85944
g6
g3
tp107
as(S'AP53'
p108
S'AP53_rna71'
p109
g3
tp110
(lp111
(I1338341
I1338413
g3
g3
tp112
as(S'AP53'
p113
S'AP53_rna19'
p114
g3
tp115
(lp116
(I28248
I28320
g6
g3
tp117
as(S'AP53'
p118
S'AP53_rna32'
p119
g3
tp120
(lp121
(I29415
I29485
g6
g3
tp122
as(S'AP53'
p123
S'AP53_rna74'
p124
g3
tp125
(lp126
(I1575912
I1575997
g3
g3
tp127
as(S'AP53'
p128
S'AP53_rna28'
p129
g3
tp130
(lp131
(I29041
I29114
g6
g3
tp132
as(S'AP53'
p133
S'AP53_rna56'
p134
g3
tp135
(lp136
(I268498
I268571
g6
g3
tp137
as(S'AP53'
p138
S'AP53_rna61'
p139
g3
tp140
(lp141
(I1260368
I1260438
g6
g3
tp142
as(S'AP53'
p143
S'AP53_rna51'
p144
g3
tp145
(lp146
(I263292
I264792
g6
g3
tp147
as(S'AP53'
p148
S'AP53_rna62'
p149
g3
tp150
(lp151
(I1334282
I1334353
g3
g3
tp152
as(S'AP53'
p153
S'AP53_rna3'
p154
g3
tp155
(lp156
(I19036
I21939
g6
g3
tp157
as(S'AP53'
p158
S'AP53_rna6'
p159
g3
tp160
(lp161
(I22247
I22319
g6
g3
tp162
as(S'AP53'
p163
S'AP53_rna38'
p164
g3
tp165
(lp166
(I84923
I85039
g6
g3
tp167
as(S'AP53'
p168
S'AP53_rna85'
p169
g3
tp170
(lp171
(I1857545
I1857618
g6
g3
tp172
as(S'AP53'
p173
S'AP53_rna53'
p174
g3
tp175
(lp176
(I265236
I268139
g6
g3
tp177
as(S'AP53'
p178
S'AP53_rna47'
p179
g3
tp180
(lp181
(I85790
I85860
g6
g3
tp182
as(S'AP53'
p183
S'AP53_rna34'
p184
g3
tp185
(lp186
(I29603
I29690
g6
g3
tp187
as(S'AP53'
p188
S'AP53_rna44'
p189
g3
tp190
(lp191
(I85517
I85590
g6
g3
tp192
as(S'AP53'
p193
S'AP53_rna33'
p194
g3
tp195
(lp196
(I29520
I29593
g6
g3
tp197
as(S'AP53'
p198
S'AP53_rna70'
p199
g3
tp200
(lp201
(I1335139
I1338042
g3
g3
tp202
as(S'AP53'
p203
S'AP53_rna67'
p204
g3
tp205
(lp206
(I1334759
I1334831
g3
g3
tp207
as(S'AP53'
p208
S'AP53_rna64'
p209
g3
tp210
(lp211
(I1334485
I1334557
g3
g3
tp212
as(S'AP53'
p213
S'AP53_rna60'
p214
g3
tp215
(lp216
(I757295
I757366
g6
g3
tp217
as(S'AP53'
p218
S'AP53_rna52'
p219
g3
tp220
(lp221
(I264865
I264937
g6
g3
tp222
as(S'AP53'
p223
S'AP53_rna26'
p224
g3
tp225
(lp226
(I28868
I28941
g6
g3
tp227
as(S'AP53'
p228
S'AP53_rna21'
p229
g3
tp230
(lp231
(I28430
I28511
g6
g3
tp232
as(S'AP53'
p233
S'AP53_rna77'
p234
g3
tp235
(lp236
(I1585763
I1585879
g3
g3
tp237
as(S'AP53'
p238
S'AP53_rna22'
p239
g3
tp240
(lp241
(I28522
I28594
g6
g3
tp242
as(S'AP53'
p243
S'AP53_rna7'
p244
g3
tp245
(lp246
(I22351
I22423
g6
g3
tp247
as(S'AP53'
p248
S'AP53_rna49'
p249
g3
tp250
(lp251
(I85953
I86024
g6
g3
tp252
as(S'AP53'
p253
S'AP53_rna10'
p254
g3
tp255
(lp256
(I22606
I22677
g6
g3
tp257
as(S'AP53'
p258
S'AP53_rna46'
p259
g3
tp260
(lp261
(I85703
I85783
g6
g3
tp262
as(S'AP53'
p263
S'AP53_rna13'
p264
g3
tp265
(lp266
(I22867
I22940
g6
g3
tp267
as(S'AP53'
p268
S'AP53_rna43'
p269
g3
tp270
(lp271
(I85418
I85507
g6
g3
tp272
as(S'AP53'
p273
S'AP53_rna30'
p274
g3
tp275
(lp276
(I29236
I29309
g6
g3
tp277
as(S'AP53'
p278
S'AP53_rna5'
p279
g3
tp280
(lp281
(I22157
I22229
g6
g3
tp282
as(S'AP53'
p283
S'AP53_rna69'
p284
g3
tp285
(lp286
(I1334939
I1335055
g3
g3
tp287
as(S'AP53'
p288
S'AP53_rna39'
p289
g3
tp290
(lp291
(I85057
I85129
g6
g3
tp292
as(S'AP53'
p293
S'AP53_rna58'
p294
g3
tp295
(lp296
(I755648
I755728
g6
g3
tp297
as(S'AP53'
p298
S'AP53_rna63'
p299
g3
tp300
(lp301
(I1334376
I1334449
g3
g3
tp302
as(S'AP53'
p303
S'AP53_rna20'
p304
g3
tp305
(lp306
(I28352
I28424
g6
g3
tp307
as(S'AP53'
p308
S'AP53_rna9'
p309
g3
tp310
(lp311
(I22521
I22593
g6
g3
tp312
as(S'AP53'
p313
S'AP53_rna25'
p314
g3
tp315
(lp316
(I28788
I28861
g6
g3
tp317
as(S'AP53'
p318
S'AP53_rna75'
p319
g3
tp320
(lp321
(I1585531
I1585604
g3
g3
tp322
as(S'AP53'
p323
S'AP53_rna4'
p324
g3
tp325
(lp326
(I22023
I22139
g6
g3
tp327
as(S'AP53'
p328
S'AP53_rna73'
p329
g3
tp330
(lp331
(I1435440
I1435526
g3
g3
tp332
as(S'AP53'
p333
S'AP53_rna83'
p334
g3
tp335
(lp336
(I1856027
I1856100
g3
g3
tp337
as(S'AP53'
p338
S'AP53_rna11'
p339
g3
tp340
(lp341
(I22686
I22770
g6
g3
tp342
as(S'AP53'
p343
S'AP53_rna45'
p344
g3
tp345
(lp346
(I85611
I85683
g6
g3
tp347
as(S'AP53'
p348
S'AP53_rna80'
p349
g3
tp350
(lp351
(I1589310
I1590810
g3
g3
tp352
as(S'AP53'
p353
S'AP53_rna14'
p354
g3
tp355
(lp356
(I23093
I24593
g6
g3
tp357
as(S'AP53'
p358
S'AP53_rna42'
p359
g3
tp360
(lp361
(I85336
I85407
g6
g3
tp362
as(S'AP53'
p363
S'AP53_rna17'
p364
g3
tp365
(lp366
(I28024
I28140
g6
g3
tp367
as(S'AP53'
p368
S'AP53_rna78'
p369
g3
tp370
(lp371
(I1585963
I1588866
g3
g3
tp372
as(S'AP53'
p373
S'AP53_rna76'
p374
g3
tp375
(lp376
(I1585684
I1585757
g3
g3
tp377
as(S'AP53'
p378
S'AP53_rna79'
p379
g3
tp380
(lp381
(I1589165
I1589237
g3
g3
tp382
as(S'AP53'
p383
S'AP53_rna59'
p384
g3
tp385
(lp386
(I755779
I755850
g6
g3
tp387
as(S'AP53'
p388
S'AP53_rna40'
p389
g3
tp390
(lp391
(I85135
I85205
g6
g3
tp392
as(S'AP53'
p393
S'AP53_rna54'
p394
g3
tp395
(lp396
(I268223
I268339
g6
g3
tp397
as(S'AP53'
p398
S'AP53_rna36'
p399
g3
tp400
(lp401
(I81565
I81637
g6
g3
tp402
as(S'AP53'
p403
S'AP53_rna23'
p404
g3
tp405
(lp406
(I28607
I28678
g6
g3
tp407
as(S'AP53'
p408
S'AP53_rna57'
p409
g3
tp410
(lp411
(I547357
I547428
g6
g3
tp412
as(S'AP53'
p413
S'AP53_rna82'
p414
g3
tp415
(lp416
(I1735156
I1735226
g3
g3
tp417
as(S'AP53'
p418
S'AP53_rna24'
p419
g3
tp420
(lp421
(I28687
I28771
g6
g3
tp422
as(S'AP53'
p423
S'AP53_rna65'
p424
g3
tp425
(lp426
(I1334568
I1334649
g3
g3
tp427
as.