(dp0
(S'AP53'
p1
S'AP53_rna37'
p2
S'-'
p3
tp4
S'GGTTAAGTTAATAAGGGCGCACGGTGGATGCCTTGGCACTAGAAGCCGAAGAAGGACGTGACAAACGACGAAATGCTTTGGGGAGCTGTAAGTAAGCGCTGATCCAGAGATGTCCGAATGGGGGAACCCACTAACTAATGGTTAGTATCCATAACTGTTAAGGTTATGAGAAGGAAGACGCAGTGAACTGAAACATCTAAGTAGCTGCAGGAAGAGAAAGCAAACGCGATTGCCTTAGTAGCGGCGAGCGAAACGGCAGGAGGGCAAACCGAAGTGTTTACACTTCGGGGTTGTAGGACTGCGACGTGGGACTTTAAAAGGATAGAAGAATTACCTGGGAAGGTAAGCCAAAGAGAGTAAAAGCCTCGTATTTAAAATTCTTTTGAGCCCTAGCAGTATCCTGAGTACGGCGAGACACGTGAAATCTCGTTGGAATCTGGGAGGACCATCTCCCAACCCTAAATACTCTCTAGTGACCGATAGTGAACCAGTACCGTGAGGGAAAGGTGAAAAGCACCCCGGGAGGGGAGTGAAATAGAACCTGAAACCGTGTGCCTACAACAAGTTCGAGCCCGTTAATGGGTGAGAGCGTGCCTTTTGTAGAATGAACCGGCGAGTTACGATATGATGCGAGGTTAAGTTGAAGAGACGGAGCCGTAGGGAAACCGAGTCTTAATAGGGCGATTTAGTATCATGTTGTAGACCCGAAACCATGTGACCTACCCATGAGCAGGTTGAAGGTGAGGTAAAACTCACTGGAGGACCGAACCAGGGCACGTTGAAAAGTGCTTGGATGACTTGTGGGTAGCGGAGAAATTCCAAACGAACTTGGAGATAGCTGGTTCTCTCCGAAATAGCTTTAGGGCTAGCGTCGATGTTAAGTCTCTTGGAGGTAGAGCACTGTTTGGGTGAGGGGTCCATCTCGGATTACCAATCTCAGATAAACTCCGAATGCCAACGAGATATCATCGGCAGTCAGACTGCGAGTGCTAAGATCCGTAGTCGAAAGGGAAACAGCCCAGACCACCAGCTAAGGTCCCAAAATAACTGTTAAGTGGAAAAGGATGTGGGGTTGCACAGACAACTAGGATGTTAGCTTAGAAGCAGCTATTCATTCAAAGAGTGCGTAATAGCTCACTAGTCGAGTGACCCTGCGCCGAAAATGTACCGGGGCTAAAACAGTTTACCGAAGCTGTGGATGACACAAAAGTGTCATGGTAGGAGAGCGTTCTATGTGTGAAGAAGGTGTACCGTGAGGAGCGCTGGAACGCATAGAAGTGAGAATGCCGGTATGAGTAGCGAAAGACAGGTGAGAATCCTGTCCACCGTAAGACTAAGGTTTCCAGGGGAAGGCTCGTCCGCCCTGGGTTAGTCGGGACCTAAGGAGAGACCGAAAGGTGTATCCGATGGCCAACAGGTTGATATTCCTGTACTAGAGTATATAGTGATGGAGGGACGCAGTAGGCTAACTAAACCGGACGATTGGAAGAGTCCGGCTAAGCAGTGAGGTGTAAGATGAGTCAAATGCTTATCTTTATAACATTGAGCTGTGATGGGGAGCGAATTTTAGTAGCGAAGTTAGTGATGTCACACTGCCAAGAAAAGCTTCTAGCGTTTAATGATACTCTACCCGTACCGCAAACCGACACAGGTAGTCGAGGCGAGTAGCCTCAGGTGATCGAGAGAACTCTCGTTAAGGAACTCGGCAAAATGACCCCGTAACTTCGGGAGAAGGGGTGCTGACTTAGGTCAGCCGCAGTGAATAGGCCCAAGCAACTGTTTATCAAAAACACAGCTCTCTGCTAAATCGTAAGATGATGTATAGGGGGTGACGCCTGCCCGGTGCTGGAAGGTTAAGAGGAGGGTTTAGCGCAAGCGAAGATCTGAATTGAAGCCCCAGTAAACGGCGGCCGTAACTATAACGGTCCTAAGGTAGCGAAATTCCTTGTCGGGTAAGTTCCGACCCGCACGAAAGGCGTAATGATTTGGGCACTGTCTCAACGAGAGACTCGGTGAAATTTTAGTACCTGTGAAGATGCAGGTTACCCGCGACAGGACGGAAAGACCCCATGGAGCTTTACTGCAGTTTGATATTGAGTATCTGTACCACATGTACAGGATAGGTAGGAGCCATTGACTTCGGGACGCCAGTTTCGAATGAGGCGTTGTTGGGATACTACCCTTGTGTTATGGCTACTCTAACCCAGATAGGTTATCCCTATCGGAGACAGTGTCTGACGGGCAGTTTGACTGGGGCGGTCGCCTCCTAAAGAGTAACGGAGGCGCCCAAAGGTTCCCTCAGATTGGTTGGAAATCAATCGCAGAGTGTAAAGGTATAAGGGAGCTTGACTGCGAGAGCTACAACTCGAGCAGGGACGAAAGTCGGGCTTAGTGATCCGGTGGTACCGAATGGAAGGGCCATCGCTCAACGGATAAAAGCTACCCTGGGGATAACAGGCTTATCTCCCCCAAGAGTTCACATCGACGGGGAGGTTTGGCACCTCGATGTCGGCTCGTCGCATCCTGGGGCTGTAGTCGGTCCCAAGGGTTGGGCTGTTCGCCCATTAAAGCGGCACGCGAGCTGGGTTCAGAACGTCGTGAGACAGTTCGGTCCCTATCCGTCGCGGGCGTAGGAAATTTGAGAGGATCTGCTCCTAGTACGAGAGGACCAGAGTGGACTTACCGCTGGTGTACCAGTTGTCTTGCCAAAGGCATCGCTGGGTAGCTATGTAGGGAAGGGATAAGCGCTGAAAGCATCTAAGTGCGAAGCCCCCCTCAAGATGAGATTTCCCATGATTTTATATCAGTAAGAGCCCTGAGAGATGATCAGGTAGATAGGTTAGGAGTGTAAGTGTAGCGATACATGTAGCGGACTAATACTAATAGCTCGAGGACTTATCCAAA'
p5
s(S'AP53'
p6
S'AP53_rna12'
p7
g3
tp8
S'GCACCCTTAGCTCAACTGGATAGAGTACCTGACTACGAATCAGGCGGTTAGAGGTTCGACTCCTCTAGGGTGCA'
p9
s(S'AP53'
p10
S'AP53_rna84'
p11
g3
tp12
S'TAGTCCGTACGGGATTCGAACCCGTGTTACCGCCGTGAAAAGGCGGTGTCTTAACCCCTTGACCAACGGACC'
p13
s(S'AP53'
p14
S'AP53_rna15'
p15
g3
tp16
S'GGGGCCTTAGCTCAGCTGGGAGAGCGCCTGCTTTGCACGCAGGAGGTCAGCGGTTCGATCCCGCTAGGCTCCA'
p17
s(S'AP53'
p18
S'AP53_rna41'
p19
g3
tp20
S'GGGCGCGTAGCTCAGGTGGTTAGAGCGCACGCCTGATAAGCGTGAGGTCGGTGGTTCGAGTCCACTCGTGCCCA'
p21
s(S'AP53'
p22
S'AP53_rna31'
p23
g3
tp24
S'GGCTCGGTAGCTCAGTTGGTAGAGCAATGGATTGAAGCTCCATGTGTCGGCGGTTCGATTCCGTCTCGCGCCA'
p25
s(S'AP53'
p26
S'AP53_rna18'
p27
g3
tp28
S'GGGAGTTTAGCTCAGCTGGGAGAGCATCTGCCTTACAAGCAGAGGGTCAGCGGTTCGATCCCGTTAACTCCCA'
p29
s(S'AP53'
p30
S'AP53_rna35'
p31
g3
tp32
S'GACGAACGCTGGCGGCGTGCCTAATACATGCAAGTAGAACGCTGAGAACTGGTGCTTGCACCGGTTCAAGGAGTTGCGAACGGGTGAGTAACGCGTAGGTAACCTACCTCATAGCGGGGGATAACTATTGGAAACGATAGCTAATACCGCATAAGAGAGACTAACGCATGTTAGTAATTTAAAAGGGGCAATTGCTCCACTATGAGATGGACCTGCGTTGTATTAGCTAGTTGGTGAGGTAAAGGCTCACCAAGGCGACGATACATAGCCGACCTGAGAGGGTGATCGGCCACACTGGGACTGAGACACGGCCCAGACTCCTACGGGAGGCAGCAGTAGGGAATCTTCGGCAATGGGGGCAACCCTGACCGAGCAACGCCGCGTGAGTGAAGAAGGTTTTCGGATCGTAAAGCTCTGTTGTTAGAGAAGAATGATGGTGGGAGTGGAAAATCCACCAAGTGACGGTAACTAACCAGAAAGGGACGGCTAACTACGTGCCAGCAGCCGCGGTAATACGTAGGTCCCGAGCGTTGTCCGGATTTATTGGGCGTAAAGCGAGCGCAGGCGGTTTTTTAAGTCTGAAGTTAAAGGCATTGGCTCAACCAATGTACGCTTTGGAAACTGGAGAACTTGAGTGCAGAAGGGGAGAGTGGAATTCCATGTGTAGCGGTGAAATGCGTAGATATATGGAGGAACACCGGTGGCGAAAGCGGCTCTCTGGTCTGTAACTGACGCTGAGGCTCGAAAGCGTGGGGAGCAAACAGGATTAGATACCCTGGTAGTCCACGCCGTAAACGATGAGTGCTAGGTGTTAGGCCCTTTCCGGGGCTTAGTGCCGGAGCTAACGCATTAAGCACTCCGCCTGGGGAGTACGACCGCAAGGTTGAAACTCAAAGGAATTGACGGGGGCCCGCACAAGCGGTGGAGCATGTGGTTTAATTCGAAGCAACGCGAAGAACCTTACCAGGTCTTGACATCCCGATGCCCGCTCTAGAGATAGAGTTTTACTTCGGTACATCGGTGACAGGTGGTGCATGGTTGTCGTCAGCTCGTGTCGTGAGATGTTGGGTTAAGTCCCGCAACGAGCGCAACCCCTATTGTTAGTTGCCATCATTAAGTTGGGCACTCTAGCGAGACTGCCGGTAATAAACCGGAGGAAGGTGGGGATGACGTCAAATCATCATGCCCCTTATGACCTGGGCTACACACGTGCTACAATGGTTGGTACAACGAGTCGCAAGCCGGTGACGGCAAGCTAATCTCTTAAAGCCAATCTCAGTTCGGATTGTAGGCTGCAACTCGCCTACATGAAGTCGGAATCGCTAGTAATCGCGGATCAGCACGCCGCGGTGAATACGTTCCCGGGCCTTGTACACACCGCCCGTCACACCACGAGAGTTTGTAACACCCGAAGTCGGTGAGGTAACCTATTAGGAGCCAGCCGCCTAAGGTGGGATAGATGATTGGGGTGAAGTCGTAACAAGGTAGCCGTATCGGAAGG'
p33
s(S'AP53'
p34
S'AP53_rna68'
p35
g3
tp36
S'TGGGAGTTAACGGGATCGAACCGCTGACCCTCTGCTTGTAAGGCAGATGCTCTCCCAGCTGAGCTAAACTCCC'
p37
s(S'AP53'
p38
S'AP53_rna29'
p39
g3
tp40
S'GGAGGATTACCCAAGTCCGGCTGAAGGGAACGGTCTTGAAAACCGTCAGGCGTGTAAAAGCGTGCGTGGGTTCGAATCCCACATCCTCCT'
p41
s(S'AP53'
p42
S'AP53_rna55'
p43
g3
tp44
S'TCCGCCATAGCTCAGTTGGTAGTAGCGCATGACTGTTAATCATGATGTCGTAGGTTCGAGTCCTACTGGCGGAG'
p45
s(S'AP53'
p46
S'AP53_rna8'
p47
g3
tp48
S'GCGGGTTTGGCGGAATTGGCAGACGCACCAGATTTAGGATCTGGCGCTTAACGGCGTGGGGGTTCAAGTCCCTTAACCCGCA'
p49
s(S'AP53'
p50
S'AP53_rna66'
p51
g3
tp52
S'TGACCCGTACTGGGCTCGAACCAGTGACCCATTGATTAAAAGTCAATTGCTCTACCAACTGAGCTAACGAGTC'
p53
s(S'AP53'
p54
S'AP53_rna50'
p55
g3
tp56
S'GCCGGCGTGGCGGAATTGGCAGACGCGCTGGACTCAAAATCCAGTGTCCGCAAGGACGTGCCGGTTCGACCCCGGCCGCCGGTA'
p57
s(S'AP53'
p58
S'AP53_rna72'
p59
g3
tp60
S'CCTTCCGATACGGCTACCTTGTTACGACTTCACCCCAATCATCTATCCCACCTTAGGCGGCTGGCTCCTAATAGGTTACCTCACCGACTTCGGGTGTTACAAACTCTCGTGGTGTGACGGGCGGTGTGTACAAGGCCCGGGAACGTATTCACCGCGGCGTGCTGATCCGCGATTACTAGCGATTCCGACTTCATGTAGGCGAGTTGCAGCCTACAATCCGAACTGAGATTGGCTTTAAGAGATTAGCTTGCCGTCACCGGCTTGCGACTCGTTGTACCAACCATTGTAGCACGTGTGTAGCCCAGGTCATAAGGGGCATGATGATTTGACGTCATCCCCACCTTCCTCCGGTTTATTACCGGCAGTCTCGCTAGAGTGCCCAACTTAATGATGGCAACTAACAATAGGGGTTGCGCTCGTTGCGGGACTTAACCCAACATCTCACGACACGAGCTGACGACAACCATGCACCACCTGTCACCGATGTACCGAAGTAAAACTCTATCTCTAGAGCGGGCATCGGGATGTCAAGACCTGGTAAGGTTCTTCGCGTTGCTTCGAATTAAACCACATGCTCCACCGCTTGTGCGGGCCCCCGTCAATTCCTTTGAGTTTCAACCTTGCGGTCGTACTCCCCAGGCGGAGTGCTTAATGCGTTAGCTCCGGCACTAAGCCCCGGAAAGGGCCTAACACCTAGCACTCATCGTTTACGGCGTGGACTACCAGGGTATCTAATCCTGTTTGCTCCCCACGCTTTCGAGCCTCAGCGTCAGTTACAGACCAGAGAGCCGCTTTCGCCACCGGTGTTCCTCCATATATCTACGCATTTCACCGCTACACATGGAATTCCACTCTCCCCTTCTGCACTCAAGTTCTCCAGTTTCCAAAGCGTACATTGGTTGAGCCAATGCCTTTAACTTCAGACTTAAAAAACCGCCTGCGCTCGCTTTACGCCCAATAAATCCGGACAACGCTCGGGACCTACGTATTACCGCGGCTGCTGGCACGTAGTTAGCCGTCCCTTTCTGGTTAGTTACCGTCACTTGGTGGATTTTCCACTCCCACCATCATTCTTCTCTAACAACAGAGCTTTACGATCCGAAAACCTTCTTCACTCACGCGGCGTTGCTCGGTCAGGGTTGCCCCCATTGCCGAAGATTCCCTACTGCTGCCTCCCGTAGGAGTCTGGGCCGTGTCTCAGTCCCAGTGTGGCCGATCACCCTCTCAGGTCGGCTATGTATCGTCGCCTTGGTGAGCCTTTACCTCACCAACTAGCTAATACAACGCAGGTCCATCTCATAGTGGAGCAATTGCCCCTTTTAAATTACTAACATGCGTTAGTCTCTCTTATGCGGTATTAGCTATCGTTTCCAATAGTTATCCCCCGCTATGAGGTAGGTTACCTACGCGTTACTCACCCGTTCGCAACTCCTTGAACCGGTGCAAGCACCAGTTCTCAGCGTTCTACTTGCATGTATTAGGCACGCCGCCAGCGTTCGTC'
p61
s(S'AP53'
p62
S'AP53_rna27'
p63
g3
tp64
S'GGCGGTGTAGCTCAGCTGGCTAGAGCGTCCGGTTCATACCCGGGAGGTCGGGGGTTCGATCCCCTTCGCCGCTA'
p65
s(S'AP53'
p66
S'AP53_rna2'
p67
g3
tp68
S'GGGGCCTTAGCTCAGCTGGGAGAGCGCCTGCTTTGCACGCAGGAGGTCAGCGGTTCGATCCCGCTAGGCTCCA'
p69
s(S'AP53'
p70
S'AP53_rna81'
p71
g3
tp72
S'GCCTCCTTAGCTCAGTTGGTAGAGCAGTAGACTCTTAATCTATGGGTCACAGGTTCGAGCCCTGTAGGGGGTA'
p73
s(S'AP53'
p74
S'AP53_rna1'
p75
g3
tp76
S'GACGAACGCTGGCGGCGTGCCTAATACATGCAAGTAGAACGCTGAGAACTGGTGCTTGCACCGGTTCAAGGAGTTGCGAACGGGTGAGTAACGCGTAGGTAACCTACCTCATAGCGGGGGATAACTATTGGAAACGATAGCTAATACCGCATAAGAGAGACTAACGCATGTTAGTAATTTAAAAGGGGCAATTGCTCCACTATGAGATGGACCTGCGTTGTATTAGCTAGTTGGTGAGGTAAAGGCTCACCAAGGCGACGATACATAGCCGACCTGAGAGGGTGATCGGCCACACTGGGACTGAGACACGGCCCAGACTCCTACGGGAGGCAGCAGTAGGGAATCTTCGGCAATGGGGGCAACCCTGACCGAGCAACGCCGCGTGAGTGAAGAAGGTTTTCGGATCGTAAAGCTCTGTTGTTAGAGAAGAATGATGGTGGGAGTGGAAAATCCACCAAGTGACGGTAACTAACCAGAAAGGGACGGCTAACTACGTGCCAGCAGCCGCGGTAATACGTAGGTCCCGAGCGTTGTCCGGATTTATTGGGCGTAAAGCGAGCGCAGGCGGTTTTTTAAGTCTGAAGTTAAAGGCATTGGCTCAACCAATGTACGCTTTGGAAACTGGAGAACTTGAGTGCAGAAGGGGAGAGTGGAATTCCATGTGTAGCGGTGAAATGCGTAGATATATGGAGGAACACCGGTGGCGAAAGCGGCTCTCTGGTCTGTAACTGACGCTGAGGCTCGAAAGCGTGGGGAGCAAACAGGATTAGATACCCTGGTAGTCCACGCCGTAAACGATGAGTGCTAGGTGTTAGGCCCTTTCCGGGGCTTAGTGCCGGAGCTAACGCATTAAGCACTCCGCCTGGGGAGTACGACCGCAAGGTTGAAACTCAAAGGAATTGACGGGGGCCCGCACAAGCGGTGGAGCATGTGGTTTAATTCGAAGCAACGCGAAGAACCTTACCAGGTCTTGACATCCCGATGCCCGCTCTAGAGATAGAGTTTTACTTCGGTACATCGGTGACAGGTGGTGCATGGTTGTCGTCAGCTCGTGTCGTGAGATGTTGGGTTAAGTCCCGCAACGAGCGCAACCCCTATTGTTAGTTGCCATCATTAAGTTGGGCACTCTAGCGAGACTGCCGGTAATAAACCGGAGGAAGGTGGGGATGACGTCAAATCATCATGCCCCTTATGACCTGGGCTACACACGTGCTACAATGGTTGGTACAACGAGTCGCAAGCCGGTGACGGCAAGCTAATCTCTTAAAGCCAATCTCAGTTCGGATTGTAGGCTGCAACTCGCCTACATGAAGTCGGAATCGCTAGTAATCGCGGATCAGCACGCCGCGGTGAATACGTTCCCGGGCCTTGTACACACCGCCCGTCACACCACGAGAGTTTGTAACACCCGAAGTCGGTGAGGTAACCTATTAGGAGCCAGCCGCCTAAGGTGGGATAGATGATTGGGGTGAAGTCGTAACAAGGTAGCCGTATCGGAAGG'
p77
s(S'AP53'
p78
S'AP53_rna16'
p79
g3
tp80
S'GGTTAAGTTAATAAGGGCGCACGGTGGATGCCTTGGCACTAGAAGCCGAAGAAGGACGTGACAAACGACGAAATGCTTTGGGGAGCTGTAAGTAAGCGCTGATCCAGAGATGTCCGAATGGGGGAACCCACTAACTAATGGTTAGTATCCATAACTGTTAAGGTTATGAGAAGGAAGACGCAGTGAACTGAAACATCTAAGTAGCTGCAGGAAGAGAAAGCAAACGCGATTGCCTTAGTAGCGGCGAGCGAAACGGCAGGAGGGCAAACCGAAGTGTTTACACTTCGGGGTTGTAGGACTGCGACGTGGGACTTTAAAAGGATAGAAGAATTACCTGGGAAGGTAAGCCAAAGAGAGTAAAAGCCTCGTATTTAAAATTCTTTTGAGCCCTAGCAGTATCCTGAGTACGGCGAGACACGTGAAATCTCGTTGGAATCTGGGAGGACCATCTCCCAACCCTAAATACTCTCTAGTGACCGATAGTGAACCAGTACCGTGAGGGAAAGGTGAAAAGCACCCCGGGAGGGGAGTGAAATAGAACCTGAAACCGTGTGCCTACAACAAGTTCGAGCCCGTTAATGGGTGAGAGCGTGCCTTTTGTAGAATGAACCGGCGAGTTACGATATGATGCGAGGTTAAGTTGAAGAGACGGAGCCGTAGGGAAACCGAGTCTTAATAGGGCGATTTAGTATCATGTTGTAGACCCGAAACCATGTGACCTACCCATGAGCAGGTTGAAGGTGAGGTAAAACTCACTGGAGGACCGAACCAGGGCACGTTGAAAAGTGCTTGGATGACTTGTGGGTAGCGGAGAAATTCCAAACGAACTTGGAGATAGCTGGTTCTCTCCGAAATAGCTTTAGGGCTAGCGTCGATGTTAAGTCTCTTGGAGGTAGAGCACTGTTTGGGTGAGGGGTCCATCTCGGATTACCAATCTCAGATAAACTCCGAATGCCAACGAGATATCATCGGCAGTCAGACTGCGAGTGCTAAGATCCGTAGTCGAAAGGGAAACAGCCCAGACCACCAGCTAAGGTCCCAAAATAACTGTTAAGTGGAAAAGGATGTGGGGTTGCACAGACAACTAGGATGTTAGCTTAGAAGCAGCTATTCATTCAAAGAGTGCGTAATAGCTCACTAGTCGAGTGACCCTGCGCCGAAAATGTACCGGGGCTAAAACAGTTTACCGAAGCTGTGGATGACACAAAAGTGTCATGGTAGGAGAGCGTTCTATGTGTGAAGAAGGTGTACCGTGAGGAGCGCTGGAACGCATAGAAGTGAGAATGCCGGTATGAGTAGCGAAAGACAGGTGAGAATCCTGTCCACCGTAAGACTAAGGTTTCCAGGGGAAGGCTCGTCCGCCCTGGGTTAGTCGGGACCTAAGGAGAGACCGAAAGGTGTATCCGATGGCCAACAGGTTGATATTCCTGTACTAGAGTATATAGTGATGGAGGGACGCAGTAGGCTAACTAAACCGGACGATTGGAAGAGTCCGGCTAAGCAGTGAGGTGTAAGATGAGTCAAATGCTTATCTTTATAACATTGAGCTGTGATGGGGAGCGAATTTTAGTAGCGAAGTTAGTGATGTCACACTGCCAAGAAAAGCTTCTAGCGTTTAATGATACTCTACCCGTACCGCAAACCGACACAGGTAGTCGAGGCGAGTAGCCTCAGGTGATCGAGAGAACTCTCGTTAAGGAACTCGGCAAAATGACCCCGTAACTTCGGGAGAAGGGGTGCTGACTTAGGTCAGCCGCAGTGAATAGGCCCAAGCAACTGTTTATCAAAAACACAGCTCTCTGCTAAATCGTAAGATGATGTATAGGGGGTGACGCCTGCCCGGTGCTGGAAGGTTAAGAGGAGGGTTTAGCGCAAGCGAAGATCTGAATTGAAGCCCCAGTAAACGGCGGCCGTAACTATAACGGTCCTAAGGTAGCGAAATTCCTTGTCGGGTAAGTTCCGACCCGCACGAAAGGCGTAATGATTTGGGCACTGTCTCAACGAGAGACTCGGTGAAATTTTAGTACCTGTGAAGATGCAGGTTACCCGCGACAGGACGGAAAGACCCCATGGAGCTTTACTGCAGTTTGATATTGAGTATCTGTACCACATGTACAGGATAGGTAGGAGCCATTGACTTCGGGACGCCAGTTTCGAATGAGGCGTTGTTGGGATACTACCCTTGTGTTATGGCTACTCTAACCCAGATAGGTTATCCCTATCGGAGACAGTGTCTGACGGGCAGTTTGACTGGGGCGGTCGCCTCCTAAAGAGTAACGGAGGCGCCCAAAGGTTCCCTCAGATTGGTTGGAAATCAATCGCAGAGTGTAAAGGTATAAGGGAGCTTGACTGCGAGAGCTACAACTCGAGCAGGGACGAAAGTCGGGCTTAGTGATCCGGTGGTACCGAATGGAAGGGCCATCGCTCAACGGATAAAAGCTACCCTGGGGATAACAGGCTTATCTCCCCCAAGAGTTCACATCGACGGGGAGGTTTGGCACCTCGATGTCGGCTCGTCGCATCCTGGGGCTGTAGTCGGTCCCAAGGGTTGGGCTGTTCGCCCATTAAAGCGGCACGCGAGCTGGGTTCAGAACGTCGTGAGACAGTTCGGTCCCTATCCGTCGCGGGCGTAGGAAATTTGAGAGGATCTGCTCCTAGTACGAGAGGACCAGAGTGGACTTACCGCTGGTGTACCAGTTGTCTTGCCAAAGGCATCGCTGGGTAGCTATGTAGGGAAGGGATAAGCGCTGAAAGCATCTAAGTGCGAAGCCCCCCTCAAGATGAGATTTCCCATGATTTTATATCAGTAAGAGCCCTGAGAGATGATCAGGTAGATAGGTTAGGAGTGTAAGTGTAGCGATACATGTAGCGGACTAATACTAATAGCTCGAGGACTTATCCAAA'
p81
s(S'AP53'
p82
S'AP53_rna48'
p83
g3
tp84
S'GCGGGTGTGGTGAAGTGGTTAACACATCAGATTGTGGCTCTGACATTCGTGGGTTCGATTCCCATCACTCGCC'
p85
s(S'AP53'
p86
S'AP53_rna19'
p87
g3
tp88
S'GGTCCCGTAGTGTAGCGGTTATCACGTCGCCCTGTCACGGCGAAGATCGCGGGTTCGATTCCCGTCGGGACCG'
p89
s(S'AP53'
p90
S'AP53_rna5'
p91
g3
tp92
S'GGGAGTTTAGCTCAGCTGGGAGAGCATCTGCCTTACAAGCAGAGGGTCAGCGGTTCGATCCCGTTAACTCCCA'
p93
s(S'AP53'
p94
S'AP53_rna32'
p95
g3
tp96
S'GCGGGTGTAGTTTAGTGGTAAAACTACAGCCTTCCAAGCTGTTGTCGCGAGTTCGATTCTCGTCACCCGCT'
p97
s(S'AP53'
p98
S'AP53_rna74'
p99
g3
tp100
S'TGCGGAGAGTGGGACTTGAACCCACACGACCTAAAGCGGTCACAGGATCCTTAGTCCTGCGCGTCTGCCAATTCCGCCATCCCCGC'
p101
s(S'AP53'
p102
S'AP53_rna28'
p103
g3
tp104
S'GGACCTTTAGCTCAACTGGTTAGAGCACTCGGCTCATAACCGAGCGGTCGTAGGTTCGAGTCCTACAAGGTCCA'
p105
s(S'AP53'
p106
S'AP53_rna56'
p107
g3
tp108
S'GCACCCTTAGCTCAACTGGATAGAGTACCTGACTACGAATCAGGCGGTTAGAGGTTCGACTCCTCTAGGGTGCA'
p109
s(S'AP53'
p110
S'AP53_rna61'
p111
g3
tp112
S'GCCGCTGTAGTTAAATGGTATAATAAAGCAATGGTAATGCTTCGTTCCGAGTTCGATTCTCGGTGGTGGCA'
p113
s(S'AP53'
p114
S'AP53_rna51'
p115
g3
tp116
S'GACGAACGCTGGCGGCGTGCCTAATACATGCAAGTAGAACGCTGAGAACTGGTGCTTGCACCGGTTCAAGGAGTTGCGAACGGGTGAGTAACGCGTAGGTAACCTACCTCATAGCGGGGGATAACTATTGGAAACGATAGCTAATACCGCATAAGAGAGACTAACGCATGTTAGTAATTTAAAAGGGGCAATTGCTCCACTATGAGATGGACCTGCGTTGTATTAGCTAGTTGGTGAGGTAAAGGCTCACCAAGGCGACGATACATAGCCGACCTGAGAGGGTGATCGGCCACACTGGGACTGAGACACGGCCCAGACTCCTACGGGAGGCAGCAGTAGGGAATCTTCGGCAATGGGGGCAACCCTGACCGAGCAACGCCGCGTGAGTGAAGAAGGTTTTCGGATCGTAAAGCTCTGTTGTTAGAGAAGAATGATGGTGGGAGTGGAAAATCCACCAAGTGACGGTAACTAACCAGAAAGGGACGGCTAACTACGTGCCAGCAGCCGCGGTAATACGTAGGTCCCGAGCGTTGTCCGGATTTATTGGGCGTAAAGCGAGCGCAGGCGGTTTTTTAAGTCTGAAGTTAAAGGCATTGGCTCAACCAATGTACGCTTTGGAAACTGGAGAACTTGAGTGCAGAAGGGGAGAGTGGAATTCCATGTGTAGCGGTGAAATGCGTAGATATATGGAGGAACACCGGTGGCGAAAGCGGCTCTCTGGTCTGTAACTGACGCTGAGGCTCGAAAGCGTGGGGAGCAAACAGGATTAGATACCCTGGTAGTCCACGCCGTAAACGATGAGTGCTAGGTGTTAGGCCCTTTCCGGGGCTTAGTGCCGGAGCTAACGCATTAAGCACTCCGCCTGGGGAGTACGACCGCAAGGTTGAAACTCAAAGGAATTGACGGGGGCCCGCACAAGCGGTGGAGCATGTGGTTTAATTCGAAGCAACGCGAAGAACCTTACCAGGTCTTGACATCCCGATGCCCGCTCTAGAGATAGAGTTTTACTTCGGTACATCGGTGACAGGTGGTGCATGGTTGTCGTCAGCTCGTGTCGTGAGATGTTGGGTTAAGTCCCGCAACGAGCGCAACCCCTATTGTTAGTTGCCATCATTAAGTTGGGCACTCTAGCGAGACTGCCGGTAATAAACCGGAGGAAGGTGGGGATGACGTCAAATCATCATGCCCCTTATGACCTGGGCTACACACGTGCTACAATGGTTGGTACAACGAGTCGCAAGCCGGTGACGGCAAGCTAATCTCTTAAAGCCAATCTCAGTTCGGATTGTAGGCTGCAACTCGCCTACATGAAGTCGGAATCGCTAGTAATCGCGGATCAGCACGCCGCGGTGAATACGTTCCCGGGCCTTGTACACACCGCCCGTCACACCACGAGAGTTTGTAACACCCGAAGTCGGTGAGGTAACCTATTAGGAGCCAGCCGCCTAAGGTGGGATAGATGATTGGGGTGAAGTCGTAACAAGGTAGCCGTATCGGAAGG'
p117
s(S'AP53'
p118
S'AP53_rna62'
p119
g3
tp120
S'TAGTCCGTACGGGATTCGAACCCGTGTTACCGCCGTGAAAAGGCGGTGTCTTAACCCCTTGACCAACGGACC'
p121
s(S'AP53'
p122
S'AP53_rna3'
p123
g3
tp124
S'GGTTAAGTTAATAAGGGCGCACGGTGGATGCCTTGGCACTAGAAGCCGAAGAAGGACGTGACAAACGACGAAATGCTTTGGGGAGCTGTAAGTAAGCGCTGATCCAGAGATGTCCGAATGGGGGAACCCACTAACTAATGGTTAGTATCCATAACTGTTAAGGTTATGAGAAGGAAGACGCAGTGAACTGAAACATCTAAGTAGCTGCAGGAAGAGAAAGCAAACGCGATTGCCTTAGTAGCGGCGAGCGAAACGGCAGGAGGGCAAACCGAAGTGTTTACACTTCGGGGTTGTAGGACTGCGACGTGGGACTTTAAAAGGATAGAAGAATTACCTGGGAAGGTAAGCCAAAGAGAGTAAAAGCCTCGTATTTAAAATTCTTTTGAGCCCTAGCAGTATCCTGAGTACGGCGAGACACGTGAAATCTCGTTGGAATCTGGGAGGACCATCTCCCAACCCTAAATACTCTCTAGTGACCGATAGTGAACCAGTACCGTGAGGGAAAGGTGAAAAGCACCCCGGGAGGGGAGTGAAATAGAACCTGAAACCGTGTGCCTACAACAAGTTCGAGCCCGTTAATGGGTGAGAGCGTGCCTTTTGTAGAATGAACCGGCGAGTTACGATATGATGCGAGGTTAAGTTGAAGAGACGGAGCCGTAGGGAAACCGAGTCTTAATAGGGCGATTTAGTATCATGTTGTAGACCCGAAACCATGTGACCTACCCATGAGCAGGTTGAAGGTGAGGTAAAACTCACTGGAGGACCGAACCAGGGCACGTTGAAAAGTGCTTGGATGACTTGTGGGTAGCGGAGAAATTCCAAACGAACTTGGAGATAGCTGGTTCTCTCCGAAATAGCTTTAGGGCTAGCGTCGATGTTAAGTCTCTTGGAGGTAGAGCACTGTTTGGGTGAGGGGTCCATCTCGGATTACCAATCTCAGATAAACTCCGAATGCCAACGAGATATCATCGGCAGTCAGACTGCGAGTGCTAAGATCCGTAGTCGAAAGGGAAACAGCCCAGACCACCAGCTAAGGTCCCAAAATAACTGTTAAGTGGAAAAGGATGTGGGGTTGCACAGACAACTAGGATGTTAGCTTAGAAGCAGCTATTCATTCAAAGAGTGCGTAATAGCTCACTAGTCGAGTGACCCTGCGCCGAAAATGTACCGGGGCTAAAACAGTTTACCGAAGCTGTGGATGACACAAAAGTGTCATGGTAGGAGAGCGTTCTATGTGTGAAGAAGGTGTACCGTGAGGAGCGCTGGAACGCATAGAAGTGAGAATGCCGGTATGAGTAGCGAAAGACAGGTGAGAATCCTGTCCACCGTAAGACTAAGGTTTCCAGGGGAAGGCTCGTCCGCCCTGGGTTAGTCGGGACCTAAGGAGAGACCGAAAGGTGTATCCGATGGCCAACAGGTTGATATTCCTGTACTAGAGTATATAGTGATGGAGGGACGCAGTAGGCTAACTAAACCGGACGATTGGAAGAGTCCGGCTAAGCAGTGAGGTGTAAGATGAGTCAAATGCTTATCTTTATAACATTGAGCTGTGATGGGGAGCGAATTTTAGTAGCGAAGTTAGTGATGTCACACTGCCAAGAAAAGCTTCTAGCGTTTAATGATACTCTACCCGTACCGCAAACCGACACAGGTAGTCGAGGCGAGTAGCCTCAGGTGATCGAGAGAACTCTCGTTAAGGAACTCGGCAAAATGACCCCGTAACTTCGGGAGAAGGGGTGCTGACTTAGGTCAGCCGCAGTGAATAGGCCCAAGCAACTGTTTATCAAAAACACAGCTCTCTGCTAAATCGTAAGATGATGTATAGGGGGTGACGCCTGCCCGGTGCTGGAAGGTTAAGAGGAGGGTTTAGCGCAAGCGAAGATCTGAATTGAAGCCCCAGTAAACGGCGGCCGTAACTATAACGGTCCTAAGGTAGCGAAATTCCTTGTCGGGTAAGTTCCGACCCGCACGAAAGGCGTAATGATTTGGGCACTGTCTCAACGAGAGACTCGGTGAAATTTTAGTACCTGTGAAGATGCAGGTTACCCGCGACAGGACGGAAAGACCCCATGGAGCTTTACTGCAGTTTGATATTGAGTATCTGTACCACATGTACAGGATAGGTAGGAGCCATTGACTTCGGGACGCCAGTTTCGAATGAGGCGTTGTTGGGATACTACCCTTGTGTTATGGCTACTCTAACCCAGATAGGTTATCCCTATCGGAGACAGTGTCTGACGGGCAGTTTGACTGGGGCGGTCGCCTCCTAAAGAGTAACGGAGGCGCCCAAAGGTTCCCTCAGATTGGTTGGAAATCAATCGCAGAGTGTAAAGGTATAAGGGAGCTTGACTGCGAGAGCTACAACTCGAGCAGGGACGAAAGTCGGGCTTAGTGATCCGGTGGTACCGAATGGAAGGGCCATCGCTCAACGGATAAAAGCTACCCTGGGGATAACAGGCTTATCTCCCCCAAGAGTTCACATCGACGGGGAGGTTTGGCACCTCGATGTCGGCTCGTCGCATCCTGGGGCTGTAGTCGGTCCCAAGGGTTGGGCTGTTCGCCCATTAAAGCGGCACGCGAGCTGGGTTCAGAACGTCGTGAGACAGTTCGGTCCCTATCCGTCGCGGGCGTAGGAAATTTGAGAGGATCTGCTCCTAGTACGAGAGGACCAGAGTGGACTTACCGCTGGTGTACCAGTTGTCTTGCCAAAGGCATCGCTGGGTAGCTATGTAGGGAAGGGATAAGCGCTGAAAGCATCTAAGTGCGAAGCCCCCCTCAAGATGAGATTTCCCATGATTTTATATCAGTAAGAGCCCTGAGAGATGATCAGGTAGATAGGTTAGGAGTGTAAGTGTAGCGATACATGTAGCGGACTAATACTAATAGCTCGAGGACTTATCCAAA'
p125
s(S'AP53'
p126
S'AP53_rna6'
p127
g3
tp128
S'GGTCCCGTAGTGTAGCGGTTATCACGTCGCCCTGTCACGGCGAAGATCGCGGGTTCGATTCCCGTCGGGACCG'
p129
s(S'AP53'
p130
S'AP53_rna38'
p131
g3
tp132
S'GTTAAGTGACGATAGCCTAGGAGATACACCTGTACCCATGCCGAACACAGCAGTTAAGCCCTAGAACGCCTGATGTAGTTGGGGGTTGCCCCCTGTGAGATAAGGTAGTCGCTTAGC'
p133
s(S'AP53'
p134
S'AP53_rna85'
p135
g3
tp136
S'GGTCTCATAGCTCAGCTGGATAGAGCATTCGCCTTCTAAGCGAACGGTCGCAGGTTCGAATCCTGCTGAGATCA'
p137
s(S'AP53'
p138
S'AP53_rna53'
p139
g3
tp140
S'GGTTAAGTTAATAAGGGCGCACGGTGGATGCCTTGGCACTAGAAGCCGAAGAAGGACGTGACAAACGACGAAATGCTTTGGGGAGCTGTAAGTAAGCGCTGATCCAGAGATGTCCGAATGGGGGAACCCACTAACTAATGGTTAGTATCCATAACTGTTAAGGTTATGAGAAGGAAGACGCAGTGAACTGAAACATCTAAGTAGCTGCAGGAAGAGAAAGCAAACGCGATTGCCTTAGTAGCGGCGAGCGAAACGGCAGGAGGGCAAACCGAAGTGTTTACACTTCGGGGTTGTAGGACTGCGACGTGGGACTTTAAAAGGATAGAAGAATTACCTGGGAAGGTAAGCCAAAGAGAGTAAAAGCCTCGTATTTAAAATTCTTTTGAGCCCTAGCAGTATCCTGAGTACGGCGAGACACGTGAAATCTCGTTGGAATCTGGGAGGACCATCTCCCAACCCTAAATACTCTCTAGTGACCGATAGTGAACCAGTACCGTGAGGGAAAGGTGAAAAGCACCCCGGGAGGGGAGTGAAATAGAACCTGAAACCGTGTGCCTACAACAAGTTCGAGCCCGTTAATGGGTGAGAGCGTGCCTTTTGTAGAATGAACCGGCGAGTTACGATATGATGCGAGGTTAAGTTGAAGAGACGGAGCCGTAGGGAAACCGAGTCTTAATAGGGCGATTTAGTATCATGTTGTAGACCCGAAACCATGTGACCTACCCATGAGCAGGTTGAAGGTGAGGTAAAACTCACTGGAGGACCGAACCAGGGCACGTTGAAAAGTGCTTGGATGACTTGTGGGTAGCGGAGAAATTCCAAACGAACTTGGAGATAGCTGGTTCTCTCCGAAATAGCTTTAGGGCTAGCGTCGATGTTAAGTCTCTTGGAGGTAGAGCACTGTTTGGGTGAGGGGTCCATCTCGGATTACCAATCTCAGATAAACTCCGAATGCCAACGAGATATCATCGGCAGTCAGACTGCGAGTGCTAAGATCCGTAGTCGAAAGGGAAACAGCCCAGACCACCAGCTAAGGTCCCAAAATAACTGTTAAGTGGAAAAGGATGTGGGGTTGCACAGACAACTAGGATGTTAGCTTAGAAGCAGCTATTCATTCAAAGAGTGCGTAATAGCTCACTAGTCGAGTGACCCTGCGCCGAAAATGTACCGGGGCTAAAACAGTTTACCGAAGCTGTGGATGACACAAAAGTGTCATGGTAGGAGAGCGTTCTATGTGTGAAGAAGGTGTACCGTGAGGAGCGCTGGAACGCATAGAAGTGAGAATGCCGGTATGAGTAGCGAAAGACAGGTGAGAATCCTGTCCACCGTAAGACTAAGGTTTCCAGGGGAAGGCTCGTCCGCCCTGGGTTAGTCGGGACCTAAGGAGAGACCGAAAGGTGTATCCGATGGCCAACAGGTTGATATTCCTGTACTAGAGTATATAGTGATGGAGGGACGCAGTAGGCTAACTAAACCGGACGATTGGAAGAGTCCGGCTAAGCAGTGAGGTGTAAGATGAGTCAAATGCTTATCTTTATAACATTGAGCTGTGATGGGGAGCGAATTTTAGTAGCGAAGTTAGTGATGTCACACTGCCAAGAAAAGCTTCTAGCGTTTAATGATACTCTACCCGTACCGCAAACCGACACAGGTAGTCGAGGCGAGTAGCCTCAGGTGATCGAGAGAACTCTCGTTAAGGAACTCGGCAAAATGACCCCGTAACTTCGGGAGAAGGGGTGCTGACTTAGGTCAGCCGCAGTGAATAGGCCCAAGCAACTGTTTATCAAAAACACAGCTCTCTGCTAAATCGTAAGATGATGTATAGGGGGTGACGCCTGCCCGGTGCTGGAAGGTTAAGAGGAGGGTTTAGCGCAAGCGAAGATCTGAATTGAAGCCCCAGTAAACGGCGGCCGTAACTATAACGGTCCTAAGGTAGCGAAATTCCTTGTCGGGTAAGTTCCGACCCGCACGAAAGGCGTAATGATTTGGGCACTGTCTCAACGAGAGACTCGGTGAAATTTTAGTACCTGTGAAGATGCAGGTTACCCGCGACAGGACGGAAAGACCCCATGGAGCTTTACTGCAGTTTGATATTGAGTATCTGTACCACATGTACAGGATAGGTAGGAGCCATTGACTTCGGGACGCCAGTTTCGAATGAGGCGTTGTTGGGATACTACCCTTGTGTTATGGCTACTCTAACCCAGATAGGTTATCCCTATCGGAGACAGTGTCTGACGGGCAGTTTGACTGGGGCGGTCGCCTCCTAAAGAGTAACGGAGGCGCCCAAAGGTTCCCTCAGATTGGTTGGAAATCAATCGCAGAGTGTAAAGGTATAAGGGAGCTTGACTGCGAGAGCTACAACTCGAGCAGGGACGAAAGTCGGGCTTAGTGATCCGGTGGTACCGAATGGAAGGGCCATCGCTCAACGGATAAAAGCTACCCTGGGGATAACAGGCTTATCTCCCCCAAGAGTTCACATCGACGGGGAGGTTTGGCACCTCGATGTCGGCTCGTCGCATCCTGGGGCTGTAGTCGGTCCCAAGGGTTGGGCTGTTCGCCCATTAAAGCGGCACGCGAGCTGGGTTCAGAACGTCGTGAGACAGTTCGGTCCCTATCCGTCGCGGGCGTAGGAAATTTGAGAGGATCTGCTCCTAGTACGAGAGGACCAGAGTGGACTTACCGCTGGTGTACCAGTTGTCTTGCCAAAGGCATCGCTGGGTAGCTATGTAGGGAAGGGATAAGCGCTGAAAGCATCTAAGTGCGAAGCCCCCCTCAAGATGAGATTTCCCATGATTTTATATCAGTAAGAGCCCTGAGAGATGATCAGGTAGATAGGTTAGGAGTGTAAGTGTAGCGATACATGTAGCGGACTAATACTAATAGCTCGAGGACTTATCCAAA'
p141
s(S'AP53'
p142
S'AP53_rna47'
p143
g3
tp144
S'ACGGGCATAGTTTAAAGGTAGAACTAAGGTCTCCAAAACCTTCAGTGTGGGTTCGATTCCTACTGCCCGTG'
p145
s(S'AP53'
p146
S'AP53_rna34'
p147
g3
tp148
S'GGAGAATTACTCAAGAGGCTGAAGAGGACGGTTTGCTAAATCGTTAGGTCGGGTAACTGGCGCAAGGGTTCGAATCCCTTATTCTCCG'
p149
s(S'AP53'
p150
S'AP53_rna44'
p151
g3
tp152
S'CGCGGGATGGAGCAGTTAGGTAGCTCGTCGGGCTCATAACCCGAAGGTCGTAGGTTCAAATCCTGCTCCCGCAA'
p153
s(S'AP53'
p154
S'AP53_rna33'
p155
g3
tp156
S'GGGCGCGTAGCTCAGGTGGTTAGAGCGCACGCCTGATAAGCGTGAGGTCGGTGGTTCGAGTCCACTCGTGCCCA'
p157
s(S'AP53'
p158
S'AP53_rna70'
p159
g3
tp160
S'TTTGGATAAGTCCTCGAGCTATTAGTATTAGTCCGCTACATGTATCGCTACACTTACACTCCTAACCTATCTACCTGATCATCTCTCAGGGCTCTTACTGATATAAAATCATGGGAAATCTCATCTTGAGGGGGGCTTCGCACTTAGATGCTTTCAGCGCTTATCCCTTCCCTACATAGCTACCCAGCGATGCCTTTGGCAAGACAACTGGTACACCAGCGGTAAGTCCACTCTGGTCCTCTCGTACTAGGAGCAGATCCTCTCAAATTTCCTACGCCCGCGACGGATAGGGACCGAACTGTCTCACGACGTTCTGAACCCAGCTCGCGTGCCGCTTTAATGGGCGAACAGCCCAACCCTTGGGACCGACTACAGCCCCAGGATGCGACGAGCCGACATCGAGGTGCCAAACCTCCCCGTCGATGTGAACTCTTGGGGGAGATAAGCCTGTTATCCCCAGGGTAGCTTTTATCCGTTGAGCGATGGCCCTTCCATTCGGTACCACCGGATCACTAAGCCCGACTTTCGTCCCTGCTCGAGTTGTAGCTCTCGCAGTCAAGCTCCCTTATACCTTTACACTCTGCGATTGATTTCCAACCAATCTGAGGGAACCTTTGGGCGCCTCCGTTACTCTTTAGGAGGCGACCGCCCCAGTCAAACTGCCCGTCAGACACTGTCTCCGATAGGGATAACCTATCTGGGTTAGAGTAGCCATAACACAAGGGTAGTATCCCAACAACGCCTCATTCGAAACTGGCGTCCCGAAGTCAATGGCTCCTACCTATCCTGTACATGTGGTACAGATACTCAATATCAAACTGCAGTAAAGCTCCATGGGGTCTTTCCGTCCTGTCGCGGGTAACCTGCATCTTCACAGGTACTAAAATTTCACCGAGTCTCTCGTTGAGACAGTGCCCAAATCATTACGCCTTTCGTGCGGGTCGGAACTTACCCGACAAGGAATTTCGCTACCTTAGGACCGTTATAGTTACGGCCGCCGTTTACTGGGGCTTCAATTCAGATCTTCGCTTGCGCTAAACCCTCCTCTTAACCTTCCAGCACCGGGCAGGCGTCACCCCCTATACATCATCTTACGATTTAGCAGAGAGCTGTGTTTTTGATAAACAGTTGCTTGGGCCTATTCACTGCGGCTGACCTAAGTCAGCACCCCTTCTCCCGAAGTTACGGGGTCATTTTGCCGAGTTCCTTAACGAGAGTTCTCTCGATCACCTGAGGCTACTCGCCTCGACTACCTGTGTCGGTTTGCGGTACGGGTAGAGTATCATTAAACGCTAGAAGCTTTTCTTGGCAGTGTGACATCACTAACTTCGCTACTAAAATTCGCTCCCCATCACAGCTCAATGTTATAAAGATAAGCATTTGACTCATCTTACACCTCACTGCTTAGCCGGACTCTTCCAATCGTCCGGTTTAGTTAGCCTACTGCGTCCCTCCATCACTATATACTCTAGTACAGGAATATCAACCTGTTGGCCATCGGATACACCTTTCGGTCTCTCCTTAGGTCCCGACTAACCCAGGGCGGACGAGCCTTCCCCTGGAAACCTTAGTCTTACGGTGGACAGGATTCTCACCTGTCTTTCGCTACTCATACCGGCATTCTCACTTCTATGCGTTCCAGCGCTCCTCACGGTACACCTTCTTCACACATAGAACGCTCTCCTACCATGACACTTTTGTGTCATCCACAGCTTCGGTAAACTGTTTTAGCCCCGGTACATTTTCGGCGCAGGGTCACTCGACTAGTGAGCTATTACGCACTCTTTGAATGAATAGCTGCTTCTAAGCTAACATCCTAGTTGTCTGTGCAACCCCACATCCTTTTCCACTTAACAGTTATTTTGGGACCTTAGCTGGTGGTCTGGGCTGTTTCCCTTTCGACTACGGATCTTAGCACTCGCAGTCTGACTGCCGATGATATCTCGTTGGCATTCGGAGTTTATCTGAGATTGGTAATCCGAGATGGACCCCTCACCCAAACAGTGCTCTACCTCCAAGAGACTTAACATCGACGCTAGCCCTAAAGCTATTTCGGAGAGAACCAGCTATCTCCAAGTTCGTTTGGAATTTCTCCGCTACCCACAAGTCATCCAAGCACTTTTCAACGTGCCCTGGTTCGGTCCTCCAGTGAGTTTTACCTCACCTTCAACCTGCTCATGGGTAGGTCACATGGTTTCGGGTCTACAACATGATACTAAATCGCCCTATTAAGACTCGGTTTCCCTACGGCTCCGTCTCTTCAACTTAACCTCGCATCATATCGTAACTCGCCGGTTCATTCTACAAAAGGCACGCTCTCACCCATTAACGGGCTCGAACTTGTTGTAGGCACACGGTTTCAGGTTCTATTTCACTCCCCTCCCGGGGTGCTTTTCACCTTTCCCTCACGGTACTGGTTCACTATCGGTCACTAGAGAGTATTTAGGGTTGGGAGATGGTCCTCCCAGATTCCAACGAGATTTCACGTGTCTCGCCGTACTCAGGATACTGCTAGGGCTCAAAAGAATTTTAAATACGAGGCTTTTACTCTCTTTGGCTTACCTTCCCAGGTAATTCTTCTATCCTTTTAAAGTCCCACGTCGCAGTCCTACAACCCCGAAGTGTAAACACTTCGGTTTGCCCTCCTGCCGTTTCGCTCGCCGCTACTAAGGCAATCGCGTTTGCTTTCTCTTCCTGCAGCTACTTAGATGTTTCAGTTCACTGCGTCTTCCTTCTCATAACCTTAACAGTTATGGATACTAACCATTAGTTAGTGGGTTCCCCCATTCGGACATCTCTGGATCAGCGCTTACTTACAGCTCCCCAAAGCATTTCGTCGTTTGTCACGTCCTTCTTCGGCTTCTAGTGCCAAGGCATCCACCGTGCGCCCTTATTAACTTAACC'
p161
s(S'AP53'
p162
S'AP53_rna67'
p163
g3
tp164
S'CGGTCCCGACGGGAATCGAACCCGCGATCTTCGCCGTGACAGGGCGACGTGATAACCGCTACACTACGGGACC'
p165
s(S'AP53'
p166
S'AP53_rna64'
p167
g3
tp168
S'TGCCGGCTACATGACTTGAACACGCGACCCTCTGATTACAAATCAGATGCTCTACCAACTGAGCTAAGCCGGC'
p169
s(S'AP53'
p170
S'AP53_rna60'
p171
g3
tp172
S'CCACCTTTAGTGTAATGGATATCACGTAAGATTCCGGTTCTTGAGATGGGGGTTCGATTCCCTCAAGGTGGA'
p173
s(S'AP53'
p174
S'AP53_rna52'
p175
g3
tp176
S'GGGGCCTTAGCTCAGCTGGGAGAGCGCCTGCTTTGCACGCAGGAGGTCAGCGGTTCGATCCCGCTAGGCTCCA'
p177
s(S'AP53'
p178
S'AP53_rna26'
p179
g3
tp180
S'CGGGAAGTAGCTCAGCTTGGTAGAGTACTTGGTTTGGGACCAAGGTGTCGCAGGTTCGAATCCTGTCTTCCCGA'
p181
s(S'AP53'
p182
S'AP53_rna21'
p183
g3
tp184
S'GCGGGTTTGGCGGAATTGGCAGACGCACCAGATTTAGGATCTGGCGCTTAACGGCGTGGGGGTTCAAGTCCCTTAACCCGCA'
p185
s(S'AP53'
p186
S'AP53_rna77'
p187
g3
tp188
S'GCTAAGCGACTACCTTATCTCACAGGGGGCAACCCCCAACTACATCAGGCGTTCTAGGGCTTAACTGCTGTGTTCGGCATGGGTACAGGTGTATCTCCTAGGCTATCGTCACTTAAC'
p189
s(S'AP53'
p190
S'AP53_rna22'
p191
g3
tp192
S'GCCGGCTTAGCTCAGTTGGTAGAGCATCTGATTTGTAATCAGAGGGTCGCGTGTTCAAGTCATGTAGCCGGCA'
p193
s(S'AP53'
p194
S'AP53_rna7'
p195
g3
tp196
S'GACTCGTTAGCTCAGTTGGTAGAGCAATTGACTTTTAATCAATGGGTCACTGGTTCGAGCCCAGTACGGGTCA'
p197
s(S'AP53'
p198
S'AP53_rna49'
p199
g3
tp200
S'TGGGGTATAGCCAAGCGGTAAGGCAAGGGACTTTGACTCCCTCATGCGTTGGTTCGAATCCAGCTACCCCAG'
p201
s(S'AP53'
p202
S'AP53_rna10'
p203
g3
tp204
S'GCGAACGTAGTTCAGTGGTAGAACATCACCTTGCCAAGGTGGGGGTCGCGGGTTCGAATCCCGTCGTTCGCT'
p205
s(S'AP53'
p206
S'AP53_rna46'
p207
g3
tp208
S'GGAAAGATAGCGAAGAGGCTAAACGCGGCGGACTGTAAATCCGCTCCTTCGGGTTCGGGGGTTCGAATCCCTCTCTTTCCA'
p209
s(S'AP53'
p210
S'AP53_rna13'
p211
g3
tp212
S'CGGGAAGTAGCTCAGCTTGGTAGAGTACTTGGTTTGGGACCAAGGTGTCGCAGGTTCGAATCCTGTCTTCCCGA'
p213
s(S'AP53'
p214
S'AP53_rna43'
p215
g3
tp216
S'GGAGGATTACCCAAGTCCGGCTGAAGGGAACGGTCTTGAAAACCGTCAGGCGTGTAAAAGCGTGCGTGGGTTCGAATCCCACATCCTCCT'
p217
s(S'AP53'
p218
S'AP53_rna30'
p219
g3
tp220
S'CGCGGGATGGAGCAGTTAGGTAGCTCGTCGGGCTCATAACCCGAAGGTCGTAGGTTCAAATCCTGCTCCCGCAA'
p221
s(S'AP53'
p222
S'AP53_rna39'
p223
g3
tp224
S'GGGAGTTTAGCTCAGCTGGGAGAGCATCTGCCTTACAAGCAGAGGGTCAGCGGTTCGATCCCGTTAACTCCCA'
p225
s(S'AP53'
p226
S'AP53_rna69'
p227
g3
tp228
S'GCTAAGCGACTACCTTATCTCACAGGGGGCAACCCCCAACTACATCAGGCGTTCTAGGGCTTAACTGCTGTGTTCGGCATGGGTACAGGTGTATCTCCTAGGCTATCGTCACTTAAC'
p229
s(S'AP53'
p230
S'AP53_rna58'
p231
g3
tp232
S'GGAAAGATAGCGAAGAGGCTAAACGCGGCGGACTGTAAATCCGCTCCTTCGGGTTCGGGGGTTCGAATCCCTCTCTTTCCA'
p233
s(S'AP53'
p234
S'AP53_rna63'
p235
g3
tp236
S'TGGGCACGAGTGGACTCGAACCACCGACCTCACGCTTATCAGGCGTGCGCTCTAACCACCTGAGCTACGCGCCC'
p237
s(S'AP53'
p238
S'AP53_rna20'
p239
g3
tp240
S'GACTCGTTAGCTCAGTTGGTAGAGCAATTGACTTTTAATCAATGGGTCACTGGTTCGAGCCCAGTACGGGTCA'
p241
s(S'AP53'
p242
S'AP53_rna71'
p243
g3
tp244
S'TGGAGCCTAGCGGGATCGAACCGCTGACCTCCTGCGTGCAAAGCAGGCGCTCTCCCAGCTGAGCTAAGGCCCC'
p245
s(S'AP53'
p246
S'AP53_rna25'
p247
g3
tp248
S'GCACCCTTAGCTCAACTGGATAGAGTACCTGACTACGAATCAGGCGGTTAGAGGTTCGACTCCTCTAGGGTGCA'
p249
s(S'AP53'
p250
S'AP53_rna75'
p251
g3
tp252
S'TGCACCCTAGAGGAGTCGAACCTCTAACCGCCTGATTCGTAGTCAGGTACTCTATCCAGTTGAGCTAAGGGTGC'
p253
s(S'AP53'
p254
S'AP53_rna4'
p255
g3
tp256
S'GTTAAGTGACGATAGCCTAGGAGATACACCTGTACCCATGCCGAACACAGCAGTTAAGCCCTAGAACGCCTGATGTAGTTGGGGGTTGCCCCCTGTGAGATAAGGTAGTCGCTTAGC'
p257
s(S'AP53'
p258
S'AP53_rna73'
p259
g3
tp260
S'AGGAGAGGAGGGGATTCGAACCCCCGAGCCCCGTTAAGGACTACACGCTTTCCAAGCGTGCGCACTAAGCCACTATGCGACCTCTCC'
p261
s(S'AP53'
p262
S'AP53_rna83'
p263
g3
tp264
S'CTCCGGCAGTAGGACTCGAACCTACGACATCATGATTAACAGTCATGCGCTACTACCAACTGAGCTATGCCGGA'
p265
s(S'AP53'
p266
S'AP53_rna11'
p267
g3
tp268
S'GCCGGGGTGGCGGAACTGGCAGACGCACAGGACTTAAAATCCTGCGATGGTTTACATCGTACCGGTTCGATTCCGGTCCTCGGCA'
p269
s(S'AP53'
p270
S'AP53_rna45'
p271
g3
tp272
S'GGCTCGGTAGCTCAGTTGGTAGAGCAATGGATTGAAGCTCCATGTGTCGGCGGTTCGATTCCGTCTCGCGCCA'
p273
s(S'AP53'
p274
S'AP53_rna80'
p275
g3
tp276
S'CCTTCCGATACGGCTACCTTGTTACGACTTCACCCCAATCATCTATCCCACCTTAGGCGGCTGGCTCCTAATAGGTTACCTCACCGACTTCGGGTGTTACAAACTCTCGTGGTGTGACGGGCGGTGTGTACAAGGCCCGGGAACGTATTCACCGCGGCGTGCTGATCCGCGATTACTAGCGATTCCGACTTCATGTAGGCGAGTTGCAGCCTACAATCCGAACTGAGATTGGCTTTAAGAGATTAGCTTGCCGTCACCGGCTTGCGACTCGTTGTACCAACCATTGTAGCACGTGTGTAGCCCAGGTCATAAGGGGCATGATGATTTGACGTCATCCCCACCTTCCTCCGGTTTATTACCGGCAGTCTCGCTAGAGTGCCCAACTTAATGATGGCAACTAACAATAGGGGTTGCGCTCGTTGCGGGACTTAACCCAACATCTCACGACACGAGCTGACGACAACCATGCACCACCTGTCACCGATGTACCGAAGTAAAACTCTATCTCTAGAGCGGGCATCGGGATGTCAAGACCTGGTAAGGTTCTTCGCGTTGCTTCGAATTAAACCACATGCTCCACCGCTTGTGCGGGCCCCCGTCAATTCCTTTGAGTTTCAACCTTGCGGTCGTACTCCCCAGGCGGAGTGCTTAATGCGTTAGCTCCGGCACTAAGCCCCGGAAAGGGCCTAACACCTAGCACTCATCGTTTACGGCGTGGACTACCAGGGTATCTAATCCTGTTTGCTCCCCACGCTTTCGAGCCTCAGCGTCAGTTACAGACCAGAGAGCCGCTTTCGCCACCGGTGTTCCTCCATATATCTACGCATTTCACCGCTACACATGGAATTCCACTCTCCCCTTCTGCACTCAAGTTCTCCAGTTTCCAAAGCGTACATTGGTTGAGCCAATGCCTTTAACTTCAGACTTAAAAAACCGCCTGCGCTCGCTTTACGCCCAATAAATCCGGACAACGCTCGGGACCTACGTATTACCGCGGCTGCTGGCACGTAGTTAGCCGTCCCTTTCTGGTTAGTTACCGTCACTTGGTGGATTTTCCACTCCCACCATCATTCTTCTCTAACAACAGAGCTTTACGATCCGAAAACCTTCTTCACTCACGCGGCGTTGCTCGGTCAGGGTTGCCCCCATTGCCGAAGATTCCCTACTGCTGCCTCCCGTAGGAGTCTGGGCCGTGTCTCAGTCCCAGTGTGGCCGATCACCCTCTCAGGTCGGCTATGTATCGTCGCCTTGGTGAGCCTTTACCTCACCAACTAGCTAATACAACGCAGGTCCATCTCATAGTGGAGCAATTGCCCCTTTTAAATTACTAACATGCGTTAGTCTCTCTTATGCGGTATTAGCTATCGTTTCCAATAGTTATCCCCCGCTATGAGGTAGGTTACCTACGCGTTACTCACCCGTTCGCAACTCCTTGAACCGGTGCAAGCACCAGTTCTCAGCGTTCTACTTGCATGTATTAGGCACGCCGCCAGCGTTCGTC'
p277
s(S'AP53'
p278
S'AP53_rna14'
p279
g3
tp280
S'GACGAACGCTGGCGGCGTGCCTAATACATGCAAGTAGAACGCTGAGAACTGGTGCTTGCACCGGTTCAAGGAGTTGCGAACGGGTGAGTAACGCGTAGGTAACCTACCTCATAGCGGGGGATAACTATTGGAAACGATAGCTAATACCGCATAAGAGAGACTAACGCATGTTAGTAATTTAAAAGGGGCAATTGCTCCACTATGAGATGGACCTGCGTTGTATTAGCTAGTTGGTGAGGTAAAGGCTCACCAAGGCGACGATACATAGCCGACCTGAGAGGGTGATCGGCCACACTGGGACTGAGACACGGCCCAGACTCCTACGGGAGGCAGCAGTAGGGAATCTTCGGCAATGGGGGCAACCCTGACCGAGCAACGCCGCGTGAGTGAAGAAGGTTTTCGGATCGTAAAGCTCTGTTGTTAGAGAAGAATGATGGTGGGAGTGGAAAATCCACCAAGTGACGGTAACTAACCAGAAAGGGACGGCTAACTACGTGCCAGCAGCCGCGGTAATACGTAGGTCCCGAGCGTTGTCCGGATTTATTGGGCGTAAAGCGAGCGCAGGCGGTTTTTTAAGTCTGAAGTTAAAGGCATTGGCTCAACCAATGTACGCTTTGGAAACTGGAGAACTTGAGTGCAGAAGGGGAGAGTGGAATTCCATGTGTAGCGGTGAAATGCGTAGATATATGGAGGAACACCGGTGGCGAAAGCGGCTCTCTGGTCTGTAACTGACGCTGAGGCTCGAAAGCGTGGGGAGCAAACAGGATTAGATACCCTGGTAGTCCACGCCGTAAACGATGAGTGCTAGGTGTTAGGCCCTTTCCGGGGCTTAGTGCCGGAGCTAACGCATTAAGCACTCCGCCTGGGGAGTACGACCGCAAGGTTGAAACTCAAAGGAATTGACGGGGGCCCGCACAAGCGGTGGAGCATGTGGTTTAATTCGAAGCAACGCGAAGAACCTTACCAGGTCTTGACATCCCGATGCCCGCTCTAGAGATAGAGTTTTACTTCGGTACATCGGTGACAGGTGGTGCATGGTTGTCGTCAGCTCGTGTCGTGAGATGTTGGGTTAAGTCCCGCAACGAGCGCAACCCCTATTGTTAGTTGCCATCATTAAGTTGGGCACTCTAGCGAGACTGCCGGTAATAAACCGGAGGAAGGTGGGGATGACGTCAAATCATCATGCCCCTTATGACCTGGGCTACACACGTGCTACAATGGTTGGTACAACGAGTCGCAAGCCGGTGACGGCAAGCTAATCTCTTAAAGCCAATCTCAGTTCGGATTGTAGGCTGCAACTCGCCTACATGAAGTCGGAATCGCTAGTAATCGCGGATCAGCACGCCGCGGTGAATACGTTCCCGGGCCTTGTACACACCGCCCGTCACACCACGAGAGTTTGTAACACCCGAAGTCGGTGAGGTAACCTATTAGGAGCCAGCCGCCTAAGGTGGGATAGATGATTGGGGTGAAGTCGTAACAAGGTAGCCGTATCGGAAGG'
p281
s(S'AP53'
p282
S'AP53_rna42'
p283
g3
tp284
S'GGTCCGTTGGTCAAGGGGTTAAGACACCGCCTTTTCACGGCGGTAACACGGGTTCGAATCCCGTACGGACTA'
p285
s(S'AP53'
p286
S'AP53_rna17'
p287
g3
tp288
S'GTTAAGTGACGATAGCCTAGGAGATACACCTGTACCCATGCCGAACACAGCAGTTAAGCCCTAGAACGCCTGATGTAGTTGGGGGTTGCCCCCTGTGAGATAAGGTAGTCGCTTAGC'
p289
s(S'AP53'
p290
S'AP53_rna9'
p291
g3
tp292
S'GCCGGCTTAGCTCAGTTGGTAGAGCATCTGATTTGTAATCAGAGGGTCGCGTGTTCAAGTCATGTAGCCGGCA'
p293
s(S'AP53'
p294
S'AP53_rna78'
p295
g3
tp296
S'TTTGGATAAGTCCTCGAGCTATTAGTATTAGTCCGCTACATGTATCGCTACACTTACACTCCTAACCTATCTACCTGATCATCTCTCAGGGCTCTTACTGATATAAAATCATGGGAAATCTCATCTTGAGGGGGGCTTCGCACTTAGATGCTTTCAGCGCTTATCCCTTCCCTACATAGCTACCCAGCGATGCCTTTGGCAAGACAACTGGTACACCAGCGGTAAGTCCACTCTGGTCCTCTCGTACTAGGAGCAGATCCTCTCAAATTTCCTACGCCCGCGACGGATAGGGACCGAACTGTCTCACGACGTTCTGAACCCAGCTCGCGTGCCGCTTTAATGGGCGAACAGCCCAACCCTTGGGACCGACTACAGCCCCAGGATGCGACGAGCCGACATCGAGGTGCCAAACCTCCCCGTCGATGTGAACTCTTGGGGGAGATAAGCCTGTTATCCCCAGGGTAGCTTTTATCCGTTGAGCGATGGCCCTTCCATTCGGTACCACCGGATCACTAAGCCCGACTTTCGTCCCTGCTCGAGTTGTAGCTCTCGCAGTCAAGCTCCCTTATACCTTTACACTCTGCGATTGATTTCCAACCAATCTGAGGGAACCTTTGGGCGCCTCCGTTACTCTTTAGGAGGCGACCGCCCCAGTCAAACTGCCCGTCAGACACTGTCTCCGATAGGGATAACCTATCTGGGTTAGAGTAGCCATAACACAAGGGTAGTATCCCAACAACGCCTCATTCGAAACTGGCGTCCCGAAGTCAATGGCTCCTACCTATCCTGTACATGTGGTACAGATACTCAATATCAAACTGCAGTAAAGCTCCATGGGGTCTTTCCGTCCTGTCGCGGGTAACCTGCATCTTCACAGGTACTAAAATTTCACCGAGTCTCTCGTTGAGACAGTGCCCAAATCATTACGCCTTTCGTGCGGGTCGGAACTTACCCGACAAGGAATTTCGCTACCTTAGGACCGTTATAGTTACGGCCGCCGTTTACTGGGGCTTCAATTCAGATCTTCGCTTGCGCTAAACCCTCCTCTTAACCTTCCAGCACCGGGCAGGCGTCACCCCCTATACATCATCTTACGATTTAGCAGAGAGCTGTGTTTTTGATAAACAGTTGCTTGGGCCTATTCACTGCGGCTGACCTAAGTCAGCACCCCTTCTCCCGAAGTTACGGGGTCATTTTGCCGAGTTCCTTAACGAGAGTTCTCTCGATCACCTGAGGCTACTCGCCTCGACTACCTGTGTCGGTTTGCGGTACGGGTAGAGTATCATTAAACGCTAGAAGCTTTTCTTGGCAGTGTGACATCACTAACTTCGCTACTAAAATTCGCTCCCCATCACAGCTCAATGTTATAAAGATAAGCATTTGACTCATCTTACACCTCACTGCTTAGCCGGACTCTTCCAATCGTCCGGTTTAGTTAGCCTACTGCGTCCCTCCATCACTATATACTCTAGTACAGGAATATCAACCTGTTGGCCATCGGATACACCTTTCGGTCTCTCCTTAGGTCCCGACTAACCCAGGGCGGACGAGCCTTCCCCTGGAAACCTTAGTCTTACGGTGGACAGGATTCTCACCTGTCTTTCGCTACTCATACCGGCATTCTCACTTCTATGCGTTCCAGCGCTCCTCACGGTACACCTTCTTCACACATAGAACGCTCTCCTACCATGACACTTTTGTGTCATCCACAGCTTCGGTAAACTGTTTTAGCCCCGGTACATTTTCGGCGCAGGGTCACTCGACTAGTGAGCTATTACGCACTCTTTGAATGAATAGCTGCTTCTAAGCTAACATCCTAGTTGTCTGTGCAACCCCACATCCTTTTCCACTTAACAGTTATTTTGGGACCTTAGCTGGTGGTCTGGGCTGTTTCCCTTTCGACTACGGATCTTAGCACTCGCAGTCTGACTGCCGATGATATCTCGTTGGCATTCGGAGTTTATCTGAGATTGGTAATCCGAGATGGACCCCTCACCCAAACAGTGCTCTACCTCCAAGAGACTTAACATCGACGCTAGCCCTAAAGCTATTTCGGAGAGAACCAGCTATCTCCAAGTTCGTTTGGAATTTCTCCGCTACCCACAAGTCATCCAAGCACTTTTCAACGTGCCCTGGTTCGGTCCTCCAGTGAGTTTTACCTCACCTTCAACCTGCTCATGGGTAGGTCACATGGTTTCGGGTCTACAACATGATACTAAATCGCCCTATTAAGACTCGGTTTCCCTACGGCTCCGTCTCTTCAACTTAACCTCGCATCATATCGTAACTCGCCGGTTCATTCTACAAAAGGCACGCTCTCACCCATTAACGGGCTCGAACTTGTTGTAGGCACACGGTTTCAGGTTCTATTTCACTCCCCTCCCGGGGTGCTTTTCACCTTTCCCTCACGGTACTGGTTCACTATCGGTCACTAGAGAGTATTTAGGGTTGGGAGATGGTCCTCCCAGATTCCAACGAGATTTCACGTGTCTCGCCGTACTCAGGATACTGCTAGGGCTCAAAAGAATTTTAAATACGAGGCTTTTACTCTCTTTGGCTTACCTTCCCAGGTAATTCTTCTATCCTTTTAAAGTCCCACGTCGCAGTCCTACAACCCCGAAGTGTAAACACTTCGGTTTGCCCTCCTGCCGTTTCGCTCGCCGCTACTAAGGCAATCGCGTTTGCTTTCTCTTCCTGCAGCTACTTAGATGTTTCAGTTCACTGCGTCTTCCTTCTCATAACCTTAACAGTTATGGATACTAACCATTAGTTAGTGGGTTCCCCCATTCGGACATCTCTGGATCAGCGCTTACTTACAGCTCCCCAAAGCATTTCGTCGTTTGTCACGTCCTTCTTCGGCTTCTAGTGCCAAGGCATCCACCGTGCGCCCTTATTAACTTAACC'
p297
s(S'AP53'
p298
S'AP53_rna76'
p299
g3
tp300
S'CTCCGCCAGTAGGACTCGAACCTACGACATCATGATTAACAGTCATGCGCTACTACCAACTGAGCTATGGCGGA'
p301
s(S'AP53'
p302
S'AP53_rna79'
p303
g3
tp304
S'TGGAGCCTAGCGGGATCGAACCGCTGACCTCCTGCGTGCAAAGCAGGCGCTCTCCCAGCTGAGCTAAGGCCCC'
p305
s(S'AP53'
p306
S'AP53_rna59'
p307
g3
tp308
S'TGGGGTATAGCCAAGCGGTAAGGCAAGGGACTTTGACTCCCTCATGCGTTGGTTCGAATCCAGCTACCCCAG'
p309
s(S'AP53'
p310
S'AP53_rna40'
p311
g3
tp312
S'GCGGGTGTAGTTTAGTGGTAAAACTACAGCCTTCCAAGCTGTTGTCGCGAGTTCGATTCTCGTCACCCGCT'
p313
s(S'AP53'
p314
S'AP53_rna54'
p315
g3
tp316
S'GTTAAGTGACGATAGCCTAGGAGATACACCTGTACCCATGCCGAACACAGCAGTTAAGCCCTAGAACGCCTGATGTAGTTGGGGGTTGCCCCCTGTGAGATAAGGTAGTCGCTTAGC'
p317
s(S'AP53'
p318
S'AP53_rna36'
p319
g3
tp320
S'GGGGCCTTAGCTCAGCTGGGAGAGCGCCTGCTTTGCACGCAGGAGGTCAGCGGTTCGATCCCGCTAGGCTCCA'
p321
s(S'AP53'
p322
S'AP53_rna23'
p323
g3
tp324
S'GCGAACGTAGTTCAGTGGTAGAACATCACCTTGCCAAGGTGGGGGTCGCGGGTTCGAATCCCGTCGTTCGCT'
p325
s(S'AP53'
p326
S'AP53_rna57'
p327
g3
tp328
S'GACCCCTTAGTTCAATGGATATAACAACTCCCTCCTAAGGAGTAGTTGCTGGTTCGATTCCGGCAGGGGTCA'
p329
s(S'AP53'
p330
S'AP53_rna82'
p331
g3
tp332
S'AGGCGGTAGACGGATTTGAACCGACGATCAAGCTTTTGCAGAGCCGTGCCTTACCACTTGGCTATACCGCC'
p333
s(S'AP53'
p334
S'AP53_rna24'
p335
g3
tp336
S'GCCGGGGTGGCGGAACTGGCAGACGCACAGGACTTAAAATCCTGCGATGGTTTACATCGTACCGGTTCGATTCCGGTCCTCGGCA'
p337
s(S'AP53'
p338
S'AP53_rna65'
p339
g3
tp340
S'TGCGGGTTAAGGGACTTGAACCCCCACGCCGTTAAGCGCCAGATCCTAAATCTGGTGCGTCTGCCAATTCCGCCAAACCCGC'
p341
s.